
There are no discarded input sections

Memory Configuration

Name             Origin             Length             Attributes
*default*        0x0000000000000000 0xffffffffffffffff

Linker script and memory map

                0x0000000040000000                . = 0x40000000

.text           0x0000000040000000     0x1da0
 *(.text.boot)
 .text.boot     0x0000000040000000       0x60 bin/obj/boot/boot.o
                0x0000000040000000                _start
 *(.text*)
 .text          0x0000000040000060        0xc bin/obj/lib/kernel_utils.o
                0x0000000040000060                _currentEL
 .text          0x000000004000006c        0x0 bin/obj/boot/boot.o
 .text          0x000000004000006c      0x27c bin/obj/kernel/panic.o
                0x000000004000006c                init_panic
                0x0000000040000120                panic
                0x0000000040000234                set_panic
                0x00000000400002a4                set_and_throw_panic
 .text          0x00000000400002e8        0x0 bin/obj/kernel/malloc/buddy_allocator.o
 .text          0x00000000400002e8       0x9c bin/obj/kernel/kernel_entry.o
                0x00000000400002e8                kernel_entry
 .text          0x0000000040000384     0x11c8 bin/obj/lib/string.o
                0x0000000040000384                strcopy
                0x0000000040000418                uint8_to_ascii_char
                0x0000000040000488                stdint_to_ascii
                0x0000000040000b40                test_stdint_to_ascii
 .text          0x000000004000154c      0x84c bin/obj/drivers/uart/uart.o
                0x0000000040001ad0                UART_putc
                0x0000000040001b38                UART_puts
                0x0000000040001b88                UART_reset
                0x0000000040001c20                UART_init
                0x0000000040001da0                . = ALIGN (0x10)
 *fill*         0x0000000040001d98        0x8 

.iplt           0x0000000040001da0        0x0
 .iplt          0x0000000040001da0        0x0 bin/obj/boot/boot.o

.rodata         0x0000000040001da0      0x5b0
 *(.rodata*)
 .rodata        0x0000000040001da0       0xd3 bin/obj/kernel/panic.o
 *fill*         0x0000000040001e73        0x5 
 .rodata        0x0000000040001e78       0x33 bin/obj/kernel/kernel_entry.o
 *fill*         0x0000000040001eab        0x5 
 .rodata        0x0000000040001eb0      0x479 bin/obj/lib/string.o
 *fill*         0x0000000040002329        0x7 
 .rodata        0x0000000040002330       0x20 bin/obj/drivers/uart/uart.o
                0x0000000040002350                . = ALIGN (0x10)

.rela.dyn       0x0000000040002350        0x0
 .rela.iplt     0x0000000040002350        0x0 bin/obj/boot/boot.o
 .rela.text.boot
                0x0000000040002350        0x0 bin/obj/boot/boot.o

.data           0x0000000040002350        0x0
 *(.data*)
 .data          0x0000000040002350        0x0 bin/obj/lib/kernel_utils.o
 .data          0x0000000040002350        0x0 bin/obj/boot/boot.o
 .data          0x0000000040002350        0x0 bin/obj/kernel/panic.o
 .data          0x0000000040002350        0x0 bin/obj/kernel/malloc/buddy_allocator.o
 .data          0x0000000040002350        0x0 bin/obj/kernel/kernel_entry.o
 .data          0x0000000040002350        0x0 bin/obj/lib/string.o
 .data          0x0000000040002350        0x0 bin/obj/drivers/uart/uart.o
                0x0000000040002350                . = ALIGN (0x10)

.igot.plt       0x0000000040002350        0x0
 .igot.plt      0x0000000040002350        0x0 bin/obj/boot/boot.o

.bss            0x0000000040002350     0x1430
                0x0000000040002350                __bss_start = .
 *(.bss*)
 .bss           0x0000000040002350        0x0 bin/obj/lib/kernel_utils.o
 .bss           0x0000000040002350        0x0 bin/obj/boot/boot.o
 .bss           0x0000000040002350     0x1428 bin/obj/kernel/panic.o
                0x0000000040002350                PANIC_MESSAGE_LEN
                0x0000000040002358                PANIC_FILE_LEN
                0x0000000040002360                PANIC_MESSAGE_PTR
                0x0000000040002368                PANIC_FILE_PTR
                0x0000000040002370                PANIC_LINE
                0x0000000040002374                PANIC_COL
 .bss           0x0000000040003778        0x0 bin/obj/kernel/malloc/buddy_allocator.o
 .bss           0x0000000040003778        0x0 bin/obj/kernel/kernel_entry.o
 .bss           0x0000000040003778        0x0 bin/obj/lib/string.o
 .bss           0x0000000040003778        0x0 bin/obj/drivers/uart/uart.o
 *(COMMON)
                0x0000000040003778                __bss_end = .
                0x0000000040003780                . = ALIGN (0x10)
 *fill*         0x0000000040003778        0x8 

.stacks         0x0000000040004000   0xf00000
                0x0000000040004000                __stack_el0_bottom = .
                0x0000000040504000                . = (. + 0x500000)
 *fill*         0x0000000040004000   0x500000 
                0x0000000040504000                __stack_el0_top = .
                0x0000000040504000                . = ALIGN (0x10)
                0x0000000040504000                __stack_el1_bottom = .
                0x0000000040a04000                . = (. + 0x500000)
 *fill*         0x0000000040504000   0x500000 
                0x0000000040a04000                __stack_el1_top = .
                0x0000000040a04000                . = ALIGN (0x10)
                0x0000000040a04000                __stack_el2_bottom = .
                0x0000000040f04000                . = (. + 0x500000)
 *fill*         0x0000000040a04000   0x500000 
                0x0000000040f04000                __stack_el2_top = .
                0x0000000040002350                PROVIDE (_bss_start = __bss_start)
                0x0000000040003778                PROVIDE (_bss_end = __bss_end)
                [!provide]                        PROVIDE (_stack_el0_top = __stack_el0_top)
                [!provide]                        PROVIDE (_stack_el0_bottom = __stack_el0_bottom)
                [!provide]                        PROVIDE (_stack_el1_top = __stack_el1_top)
                [!provide]                        PROVIDE (_stack_el1_bottom = __stack_el1_bottom)
                [!provide]                        PROVIDE (_stack_el2_top = __stack_el2_top)
                [!provide]                        PROVIDE (_stack_el2_bottom = __stack_el2_bottom)
LOAD bin/obj/lib/kernel_utils.o
LOAD bin/obj/boot/boot.o
LOAD bin/obj/kernel/panic.o
LOAD bin/obj/kernel/malloc/buddy_allocator.o
LOAD bin/obj/kernel/kernel_entry.o
LOAD bin/obj/lib/string.o
LOAD bin/obj/drivers/uart/uart.o
LOAD bin/obj/rslib.a
OUTPUT(bin/kernel.elf elf64-littleaarch64)
LOAD linker stubs

.debug_line     0x0000000000000000      0x817
 .debug_line    0x0000000000000000       0x4d bin/obj/lib/kernel_utils.o
 .debug_line    0x000000000000004d       0x5a bin/obj/boot/boot.o
 .debug_line    0x00000000000000a7       0xcd bin/obj/kernel/panic.o
 .debug_line    0x0000000000000174        0x0 bin/obj/kernel/malloc/buddy_allocator.o
 .debug_line    0x0000000000000174       0x8a bin/obj/kernel/kernel_entry.o
 .debug_line    0x00000000000001fe      0x42a bin/obj/lib/string.o
 .debug_line    0x0000000000000628      0x1ef bin/obj/drivers/uart/uart.o

.debug_line_str
                0x0000000000000000      0x203
 .debug_line_str
                0x0000000000000000      0x203 bin/obj/lib/kernel_utils.o
                                         0x43 (size before relaxing)
 .debug_line_str
                0x0000000000000203       0x3c bin/obj/boot/boot.o
 .debug_line_str
                0x0000000000000203       0xda bin/obj/kernel/panic.o
 .debug_line_str
                0x0000000000000203       0x50 bin/obj/kernel/malloc/buddy_allocator.o
 .debug_line_str
                0x0000000000000203       0xfe bin/obj/kernel/kernel_entry.o
 .debug_line_str
                0x0000000000000203       0xce bin/obj/lib/string.o
 .debug_line_str
                0x0000000000000203      0x171 bin/obj/drivers/uart/uart.o

.debug_info     0x0000000000000000     0x1708
 .debug_info    0x0000000000000000       0x28 bin/obj/lib/kernel_utils.o
 .debug_info    0x0000000000000028       0x28 bin/obj/boot/boot.o
 .debug_info    0x0000000000000050      0x45e bin/obj/kernel/panic.o
 .debug_info    0x00000000000004ae      0x20b bin/obj/kernel/kernel_entry.o
 .debug_info    0x00000000000006b9      0x4f3 bin/obj/lib/string.o
 .debug_info    0x0000000000000bac      0xb5c bin/obj/drivers/uart/uart.o

.debug_abbrev   0x0000000000000000      0x619
 .debug_abbrev  0x0000000000000000       0x14 bin/obj/lib/kernel_utils.o
 .debug_abbrev  0x0000000000000014       0x14 bin/obj/boot/boot.o
 .debug_abbrev  0x0000000000000028      0x19d bin/obj/kernel/panic.o
 .debug_abbrev  0x00000000000001c5      0x124 bin/obj/kernel/kernel_entry.o
 .debug_abbrev  0x00000000000002e9      0x1b6 bin/obj/lib/string.o
 .debug_abbrev  0x000000000000049f      0x17a bin/obj/drivers/uart/uart.o

.debug_aranges  0x0000000000000000      0x120
 .debug_aranges
                0x0000000000000000       0x30 bin/obj/lib/kernel_utils.o
 .debug_aranges
                0x0000000000000030       0x30 bin/obj/boot/boot.o
 .debug_aranges
                0x0000000000000060       0x30 bin/obj/kernel/panic.o
 .debug_aranges
                0x0000000000000090       0x30 bin/obj/kernel/kernel_entry.o
 .debug_aranges
                0x00000000000000c0       0x30 bin/obj/lib/string.o
 .debug_aranges
                0x00000000000000f0       0x30 bin/obj/drivers/uart/uart.o

.debug_str      0x0000000000000000      0x822
 .debug_str     0x0000000000000000      0x822 bin/obj/lib/kernel_utils.o
                                         0x51 (size before relaxing)
 .debug_str     0x0000000000000822       0x4a bin/obj/boot/boot.o
 .debug_str     0x0000000000000822      0x33e bin/obj/kernel/panic.o
 .debug_str     0x0000000000000822       0x76 bin/obj/kernel/malloc/buddy_allocator.o
 .debug_str     0x0000000000000822      0x1ed bin/obj/kernel/kernel_entry.o
 .debug_str     0x0000000000000822      0x358 bin/obj/lib/string.o
 .debug_str     0x0000000000000822      0x585 bin/obj/drivers/uart/uart.o

.comment        0x0000000000000000       0x45
 .comment       0x0000000000000000       0x45 bin/obj/kernel/panic.o
                                         0x46 (size before relaxing)
 .comment       0x0000000000000045       0x46 bin/obj/kernel/malloc/buddy_allocator.o
 .comment       0x0000000000000045       0x46 bin/obj/kernel/kernel_entry.o
 .comment       0x0000000000000045       0x46 bin/obj/lib/string.o
 .comment       0x0000000000000045       0x46 bin/obj/drivers/uart/uart.o

.debug_frame    0x0000000000000000      0x620
 .debug_frame   0x0000000000000000       0xa8 bin/obj/kernel/panic.o
 .debug_frame   0x00000000000000a8       0x30 bin/obj/kernel/kernel_entry.o
 .debug_frame   0x00000000000000d8       0xb0 bin/obj/lib/string.o
 .debug_frame   0x0000000000000188      0x498 bin/obj/drivers/uart/uart.o

.debug_rnglists
                0x0000000000000000       0x2b
 .debug_rnglists
                0x0000000000000000       0x2b bin/obj/lib/string.o
