Archive member included to satisfy reference by file (symbol)

bin/obj/rslib.a(imx8mp_kernel-1a53598e06c50be6.imx8mp_kernel.241a9a11e0e6ae75-cgu.0.rcgu.o)
                              bin/obj/kernel/init/init.o (rust_kernel_initcalls_stage0)
bin/obj/rslib.a(core-dca77d77b03929cc.core.bbd04c23a4fa3c72-cgu.0.rcgu.o)
                              bin/obj/rslib.a(imx8mp_kernel-1a53598e06c50be6.imx8mp_kernel.241a9a11e0e6ae75-cgu.0.rcgu.o) (core::panicking::panic_fmt)
bin/obj/rslib.a(compiler_builtins-fabd8ee97a026881.compiler_builtins.f286be164c3a919f-cgu.099.rcgu.o)
                              bin/obj/rslib.a(core-dca77d77b03929cc.core.bbd04c23a4fa3c72-cgu.0.rcgu.o) (memcmp)
bin/obj/rslib.a(compiler_builtins-fabd8ee97a026881.compiler_builtins.f286be164c3a919f-cgu.173.rcgu.o)
                              bin/obj/rslib.a(imx8mp_kernel-1a53598e06c50be6.imx8mp_kernel.241a9a11e0e6ae75-cgu.0.rcgu.o) (memcpy)
bin/obj/rslib.a(compiler_builtins-fabd8ee97a026881.compiler_builtins.f286be164c3a919f-cgu.242.rcgu.o)
                              bin/obj/drivers/arm_generic_timer/arm_generic_timer.o (__udivti3)
bin/obj/rslib.a(compiler_builtins-fabd8ee97a026881.compiler_builtins.f286be164c3a919f-cgu.295.rcgu.o)
                              bin/obj/kernel/mm/virt/containers/containers.o (memset)
bin/obj/rslib.a(compiler_builtins-fabd8ee97a026881.compiler_builtins.f286be164c3a919f-cgu.018.rcgu.o)
                              bin/obj/rslib.a(compiler_builtins-fabd8ee97a026881.compiler_builtins.f286be164c3a919f-cgu.242.rcgu.o) (compiler_builtins::int::specialized_div_rem::u128_div_rem)

Discarded input sections

 .group         0x0000000000000000        0xc bin/obj/kernel/irq/irq.o
 .group         0x0000000000000000        0xc bin/obj/kernel/irq/irq.o
 .group         0x0000000000000000        0xc bin/obj/kernel/irq/irq.o
 .group         0x0000000000000000        0xc bin/obj/kernel/irq/irq.o
 .group         0x0000000000000000        0xc bin/obj/kernel/irq/irq.o
 .group         0x0000000000000000        0xc bin/obj/kernel/irq/irq.o
 .group         0x0000000000000000        0xc bin/obj/kernel/irq/irq.o
 .group         0x0000000000000000        0xc bin/obj/kernel/irq/irq.o
 .group         0x0000000000000000        0xc bin/obj/kernel/irq/irq.o
 .group         0x0000000000000000        0xc bin/obj/kernel/irq/irq.o
 .group         0x0000000000000000        0xc bin/obj/kernel/irq/irq.o
 .group         0x0000000000000000        0xc bin/obj/kernel/irq/irq.o
 .group         0x0000000000000000        0xc bin/obj/kernel/devices/drivers.o
 .group         0x0000000000000000        0xc bin/obj/kernel/devices/drivers.o
 .group         0x0000000000000000        0xc bin/obj/kernel/devices/drivers.o
 .group         0x0000000000000000        0xc bin/obj/kernel/devices/drivers.o
 .group         0x0000000000000000        0xc bin/obj/kernel/devices/drivers.o
 .group         0x0000000000000000        0xc bin/obj/kernel/devices/drivers.o
 .group         0x0000000000000000        0xc bin/obj/kernel/devices/drivers.o
 .group         0x0000000000000000        0xc bin/obj/kernel/devices/drivers.o
 .group         0x0000000000000000        0xc bin/obj/kernel/devices/drivers.o
 .group         0x0000000000000000        0xc bin/obj/kernel/devices/drivers.o
 .group         0x0000000000000000        0xc bin/obj/kernel/devices/drivers.o
 .group         0x0000000000000000        0xc bin/obj/kernel/devices/drivers.o
 .group         0x0000000000000000        0xc bin/obj/kernel/devices/drivers.o
 .group         0x0000000000000000        0xc bin/obj/kernel/devices/drivers.o
 .group         0x0000000000000000        0xc bin/obj/kernel/devices/drivers.o
 .debug_macro   0x0000000000000000      0xad8 bin/obj/kernel/devices/drivers.o
 .debug_macro   0x0000000000000000       0x82 bin/obj/kernel/devices/drivers.o
 .debug_macro   0x0000000000000000       0x1c bin/obj/kernel/devices/drivers.o
 .debug_macro   0x0000000000000000       0x22 bin/obj/kernel/devices/drivers.o
 .debug_macro   0x0000000000000000       0x1c bin/obj/kernel/devices/drivers.o
 .debug_macro   0x0000000000000000       0x2e bin/obj/kernel/devices/drivers.o
 .debug_macro   0x0000000000000000       0x10 bin/obj/kernel/devices/drivers.o
 .debug_macro   0x0000000000000000       0x61 bin/obj/kernel/devices/drivers.o
 .debug_macro   0x0000000000000000       0x22 bin/obj/kernel/devices/drivers.o
 .debug_macro   0x0000000000000000       0x10 bin/obj/kernel/devices/drivers.o
 .group         0x0000000000000000        0xc bin/obj/kernel/init/early_init.o
 .group         0x0000000000000000        0xc bin/obj/kernel/init/early_init.o
 .group         0x0000000000000000        0xc bin/obj/kernel/init/early_init.o
 .group         0x0000000000000000        0xc bin/obj/kernel/init/early_init.o
 .group         0x0000000000000000        0xc bin/obj/kernel/init/early_init.o
 .group         0x0000000000000000        0xc bin/obj/kernel/init/early_init.o
 .group         0x0000000000000000        0xc bin/obj/kernel/init/early_init.o
 .group         0x0000000000000000        0xc bin/obj/kernel/init/early_init.o
 .group         0x0000000000000000        0xc bin/obj/kernel/init/early_init.o
 .group         0x0000000000000000        0xc bin/obj/kernel/init/early_init.o
 .group         0x0000000000000000        0xc bin/obj/kernel/init/early_init.o
 .group         0x0000000000000000        0xc bin/obj/kernel/init/early_init.o
 .group         0x0000000000000000        0xc bin/obj/kernel/init/early_init.o
 .group         0x0000000000000000        0xc bin/obj/kernel/init/early_init.o
 .group         0x0000000000000000        0xc bin/obj/kernel/init/early_init.o
 .debug_macro   0x0000000000000000      0xad8 bin/obj/kernel/init/early_init.o
 .debug_macro   0x0000000000000000       0x1c bin/obj/kernel/init/early_init.o
 .debug_macro   0x0000000000000000       0x82 bin/obj/kernel/init/early_init.o
 .debug_macro   0x0000000000000000       0x22 bin/obj/kernel/init/early_init.o
 .debug_macro   0x0000000000000000       0x10 bin/obj/kernel/init/early_init.o
 .debug_macro   0x0000000000000000       0x61 bin/obj/kernel/init/early_init.o
 .debug_macro   0x0000000000000000       0x22 bin/obj/kernel/init/early_init.o
 .debug_macro   0x0000000000000000       0x28 bin/obj/kernel/init/early_init.o
 .debug_macro   0x0000000000000000       0x1c bin/obj/kernel/init/early_init.o
 .debug_macro   0x0000000000000000       0x2e bin/obj/kernel/init/early_init.o
 .debug_macro   0x0000000000000000       0x10 bin/obj/kernel/init/early_init.o
 .debug_macro   0x0000000000000000      0x118 bin/obj/kernel/init/early_init.o
 .debug_macro   0x0000000000000000       0x6a bin/obj/kernel/init/early_init.o
 .debug_macro   0x0000000000000000       0x1c bin/obj/kernel/init/early_init.o
 .group         0x0000000000000000        0xc bin/obj/kernel/init/init_drivers.o
 .group         0x0000000000000000        0xc bin/obj/kernel/init/init_drivers.o
 .group         0x0000000000000000        0xc bin/obj/kernel/init/init_drivers.o
 .group         0x0000000000000000        0xc bin/obj/kernel/init/init_drivers.o
 .group         0x0000000000000000        0xc bin/obj/kernel/init/init_drivers.o
 .group         0x0000000000000000        0xc bin/obj/kernel/init/init_drivers.o
 .group         0x0000000000000000        0xc bin/obj/kernel/init/init_drivers.o
 .group         0x0000000000000000        0xc bin/obj/kernel/init/init_drivers.o
 .group         0x0000000000000000        0xc bin/obj/kernel/init/init_drivers.o
 .group         0x0000000000000000        0xc bin/obj/kernel/init/init_drivers.o
 .group         0x0000000000000000        0xc bin/obj/kernel/init/init_drivers.o
 .group         0x0000000000000000        0xc bin/obj/kernel/init/init_drivers.o
 .group         0x0000000000000000        0xc bin/obj/kernel/init/init_drivers.o
 .group         0x0000000000000000        0xc bin/obj/kernel/init/init_drivers.o
 .group         0x0000000000000000        0xc bin/obj/kernel/init/init_drivers.o
 .group         0x0000000000000000        0xc bin/obj/kernel/init/init_drivers.o
 .group         0x0000000000000000        0xc bin/obj/kernel/init/init_drivers.o
 .debug_macro   0x0000000000000000      0xad8 bin/obj/kernel/init/init_drivers.o
 .debug_macro   0x0000000000000000       0x82 bin/obj/kernel/init/init_drivers.o
 .debug_macro   0x0000000000000000       0x10 bin/obj/kernel/init/init_drivers.o
 .debug_macro   0x0000000000000000       0x1c bin/obj/kernel/init/init_drivers.o
 .debug_macro   0x0000000000000000       0x22 bin/obj/kernel/init/init_drivers.o
 .debug_macro   0x0000000000000000       0x1c bin/obj/kernel/init/init_drivers.o
 .debug_macro   0x0000000000000000       0x2e bin/obj/kernel/init/init_drivers.o
 .debug_macro   0x0000000000000000       0x10 bin/obj/kernel/init/init_drivers.o
 .debug_macro   0x0000000000000000       0x61 bin/obj/kernel/init/init_drivers.o
 .debug_macro   0x0000000000000000       0x22 bin/obj/kernel/init/init_drivers.o
 .debug_macro   0x0000000000000000       0x10 bin/obj/kernel/init/init_drivers.o
 .debug_macro   0x0000000000000000       0x1c bin/obj/kernel/init/init_drivers.o
 .debug_macro   0x0000000000000000      0x118 bin/obj/kernel/init/init_drivers.o
 .debug_macro   0x0000000000000000       0x6a bin/obj/kernel/init/init_drivers.o
 .debug_macro   0x0000000000000000       0x10 bin/obj/kernel/init/init_drivers.o
 .debug_macro   0x0000000000000000       0x28 bin/obj/kernel/init/init_drivers.o
 .debug_macro   0x0000000000000000       0x2e bin/obj/kernel/init/init_drivers.o
 .group         0x0000000000000000        0xc bin/obj/kernel/init/init.o
 .group         0x0000000000000000        0xc bin/obj/kernel/init/init.o
 .group         0x0000000000000000        0xc bin/obj/kernel/init/init.o
 .group         0x0000000000000000        0xc bin/obj/kernel/init/init.o
 .group         0x0000000000000000        0xc bin/obj/kernel/init/init.o
 .group         0x0000000000000000        0xc bin/obj/kernel/init/init.o
 .group         0x0000000000000000        0xc bin/obj/kernel/init/init.o
 .group         0x0000000000000000        0xc bin/obj/kernel/init/init.o
 .group         0x0000000000000000        0xc bin/obj/kernel/init/init.o
 .group         0x0000000000000000        0xc bin/obj/kernel/init/init.o
 .group         0x0000000000000000        0xc bin/obj/kernel/init/init.o
 .group         0x0000000000000000        0xc bin/obj/kernel/init/init.o
 .group         0x0000000000000000        0xc bin/obj/kernel/init/init.o
 .group         0x0000000000000000        0xc bin/obj/kernel/init/init.o
 .group         0x0000000000000000        0xc bin/obj/kernel/init/init.o
 .debug_macro   0x0000000000000000      0xad8 bin/obj/kernel/init/init.o
 .debug_macro   0x0000000000000000       0x1c bin/obj/kernel/init/init.o
 .debug_macro   0x0000000000000000       0x82 bin/obj/kernel/init/init.o
 .debug_macro   0x0000000000000000       0x10 bin/obj/kernel/init/init.o
 .debug_macro   0x0000000000000000       0x1c bin/obj/kernel/init/init.o
 .debug_macro   0x0000000000000000       0x10 bin/obj/kernel/init/init.o
 .debug_macro   0x0000000000000000       0x61 bin/obj/kernel/init/init.o
 .debug_macro   0x0000000000000000       0x22 bin/obj/kernel/init/init.o
 .debug_macro   0x0000000000000000       0x22 bin/obj/kernel/init/init.o
 .debug_macro   0x0000000000000000       0x1c bin/obj/kernel/init/init.o
 .debug_macro   0x0000000000000000       0x2e bin/obj/kernel/init/init.o
 .debug_macro   0x0000000000000000       0x10 bin/obj/kernel/init/init.o
 .debug_macro   0x0000000000000000       0x10 bin/obj/kernel/init/init.o
 .debug_macro   0x0000000000000000       0x28 bin/obj/kernel/init/init.o
 .debug_macro   0x0000000000000000       0x2e bin/obj/kernel/init/init.o
 .group         0x0000000000000000        0xc bin/obj/kernel/lib/smp.o
 .group         0x0000000000000000        0xc bin/obj/kernel/lib/smp.o
 .group         0x0000000000000000        0xc bin/obj/kernel/lib/smp.o
 .group         0x0000000000000000        0xc bin/obj/kernel/lib/smp.o
 .group         0x0000000000000000        0xc bin/obj/kernel/lib/smp.o
 .group         0x0000000000000000        0xc bin/obj/kernel/lib/smp.o
 .group         0x0000000000000000        0xc bin/obj/kernel/lib/smp.o
 .debug_macro   0x0000000000000000      0xad8 bin/obj/kernel/lib/smp.o
 .debug_macro   0x0000000000000000       0x82 bin/obj/kernel/lib/smp.o
 .debug_macro   0x0000000000000000       0x10 bin/obj/kernel/lib/smp.o
 .debug_macro   0x0000000000000000       0x1c bin/obj/kernel/lib/smp.o
 .debug_macro   0x0000000000000000       0x10 bin/obj/kernel/lib/smp.o
 .debug_macro   0x0000000000000000       0x61 bin/obj/kernel/lib/smp.o
 .group         0x0000000000000000        0xc bin/obj/kernel/mm/phys/page_allocator.o
 .group         0x0000000000000000        0xc bin/obj/kernel/mm/phys/page_allocator.o
 .group         0x0000000000000000        0xc bin/obj/kernel/mm/phys/page_allocator.o
 .group         0x0000000000000000        0xc bin/obj/kernel/mm/phys/page_allocator.o
 .group         0x0000000000000000        0xc bin/obj/kernel/mm/phys/page_allocator.o
 .group         0x0000000000000000        0xc bin/obj/kernel/mm/phys/page_allocator.o
 .group         0x0000000000000000        0xc bin/obj/kernel/mm/phys/page_allocator.o
 .group         0x0000000000000000        0xc bin/obj/kernel/mm/phys/page_allocator.o
 .group         0x0000000000000000        0xc bin/obj/kernel/mm/phys/page_allocator.o
 .group         0x0000000000000000        0xc bin/obj/kernel/mm/phys/page_allocator.o
 .group         0x0000000000000000        0xc bin/obj/kernel/mm/phys/page_allocator.o
 .group         0x0000000000000000        0xc bin/obj/kernel/mm/phys/page_allocator.o
 .debug_macro   0x0000000000000000      0xad8 bin/obj/kernel/mm/phys/page_allocator.o
 .debug_macro   0x0000000000000000       0x1c bin/obj/kernel/mm/phys/page_allocator.o
 .debug_macro   0x0000000000000000       0x82 bin/obj/kernel/mm/phys/page_allocator.o
 .debug_macro   0x0000000000000000       0x10 bin/obj/kernel/mm/phys/page_allocator.o
 .debug_macro   0x0000000000000000       0x61 bin/obj/kernel/mm/phys/page_allocator.o
 .debug_macro   0x0000000000000000       0x22 bin/obj/kernel/mm/phys/page_allocator.o
 .debug_macro   0x0000000000000000       0x22 bin/obj/kernel/mm/phys/page_allocator.o
 .debug_macro   0x0000000000000000       0x28 bin/obj/kernel/mm/phys/page_allocator.o
 .debug_macro   0x0000000000000000       0x3a bin/obj/kernel/mm/phys/page_allocator.o
 .debug_macro   0x0000000000000000       0x1c bin/obj/kernel/mm/phys/page_allocator.o
 .group         0x0000000000000000        0xc bin/obj/kernel/mm/init/identity_mapping.o
 .group         0x0000000000000000        0xc bin/obj/kernel/mm/init/identity_mapping.o
 .group         0x0000000000000000        0xc bin/obj/kernel/mm/init/identity_mapping.o
 .group         0x0000000000000000        0xc bin/obj/kernel/mm/init/identity_mapping.o
 .group         0x0000000000000000        0xc bin/obj/kernel/mm/init/identity_mapping.o
 .group         0x0000000000000000        0xc bin/obj/kernel/mm/init/identity_mapping.o
 .group         0x0000000000000000        0xc bin/obj/kernel/mm/init/identity_mapping.o
 .group         0x0000000000000000        0xc bin/obj/kernel/mm/init/identity_mapping.o
 .group         0x0000000000000000        0xc bin/obj/kernel/mm/init/identity_mapping.o
 .group         0x0000000000000000        0xc bin/obj/kernel/mm/init/identity_mapping.o
 .group         0x0000000000000000        0xc bin/obj/kernel/mm/init/identity_mapping.o
 .group         0x0000000000000000        0xc bin/obj/kernel/mm/init/identity_mapping.o
 .debug_macro   0x0000000000000000      0xad8 bin/obj/kernel/mm/init/identity_mapping.o
 .debug_macro   0x0000000000000000       0x1c bin/obj/kernel/mm/init/identity_mapping.o
 .debug_macro   0x0000000000000000       0x82 bin/obj/kernel/mm/init/identity_mapping.o
 .debug_macro   0x0000000000000000       0x22 bin/obj/kernel/mm/init/identity_mapping.o
 .debug_macro   0x0000000000000000       0x10 bin/obj/kernel/mm/init/identity_mapping.o
 .debug_macro   0x0000000000000000       0x61 bin/obj/kernel/mm/init/identity_mapping.o
 .debug_macro   0x0000000000000000       0x22 bin/obj/kernel/mm/init/identity_mapping.o
 .debug_macro   0x0000000000000000       0x28 bin/obj/kernel/mm/init/identity_mapping.o
 .debug_macro   0x0000000000000000       0x1c bin/obj/kernel/mm/init/identity_mapping.o
 .debug_macro   0x0000000000000000       0x3a bin/obj/kernel/mm/init/identity_mapping.o
 .group         0x0000000000000000        0xc bin/obj/kernel/mm/init/init.o
 .group         0x0000000000000000        0xc bin/obj/kernel/mm/init/init.o
 .group         0x0000000000000000        0xc bin/obj/kernel/mm/init/init.o
 .group         0x0000000000000000        0xc bin/obj/kernel/mm/init/init.o
 .group         0x0000000000000000        0xc bin/obj/kernel/mm/init/init.o
 .group         0x0000000000000000        0xc bin/obj/kernel/mm/init/init.o
 .group         0x0000000000000000        0xc bin/obj/kernel/mm/init/init.o
 .group         0x0000000000000000        0xc bin/obj/kernel/mm/init/init.o
 .group         0x0000000000000000        0xc bin/obj/kernel/mm/init/init.o
 .group         0x0000000000000000        0xc bin/obj/kernel/mm/init/init.o
 .debug_macro   0x0000000000000000      0xad8 bin/obj/kernel/mm/init/init.o
 .debug_macro   0x0000000000000000       0x82 bin/obj/kernel/mm/init/init.o
 .debug_macro   0x0000000000000000       0x28 bin/obj/kernel/mm/init/init.o
 .debug_macro   0x0000000000000000       0x1c bin/obj/kernel/mm/init/init.o
 .debug_macro   0x0000000000000000       0x10 bin/obj/kernel/mm/init/init.o
 .debug_macro   0x0000000000000000       0x61 bin/obj/kernel/mm/init/init.o
 .debug_macro   0x0000000000000000       0x22 bin/obj/kernel/mm/init/init.o
 .debug_macro   0x0000000000000000       0x22 bin/obj/kernel/mm/init/init.o
 .debug_macro   0x0000000000000000       0x3a bin/obj/kernel/mm/init/init.o
 .group         0x0000000000000000        0xc bin/obj/kernel/mm/init/mem_regions/early_kalloc.o
 .group         0x0000000000000000        0xc bin/obj/kernel/mm/init/mem_regions/early_kalloc.o
 .group         0x0000000000000000        0xc bin/obj/kernel/mm/init/mem_regions/early_kalloc.o
 .group         0x0000000000000000        0xc bin/obj/kernel/mm/init/mem_regions/early_kalloc.o
 .group         0x0000000000000000        0xc bin/obj/kernel/mm/init/mem_regions/early_kalloc.o
 .group         0x0000000000000000        0xc bin/obj/kernel/mm/init/mem_regions/early_kalloc.o
 .group         0x0000000000000000        0xc bin/obj/kernel/mm/init/mem_regions/early_kalloc.o
 .group         0x0000000000000000        0xc bin/obj/kernel/mm/init/mem_regions/early_kalloc.o
 .group         0x0000000000000000        0xc bin/obj/kernel/mm/init/mem_regions/early_kalloc.o
 .group         0x0000000000000000        0xc bin/obj/kernel/mm/init/mem_regions/early_kalloc.o
 .group         0x0000000000000000        0xc bin/obj/kernel/mm/init/mem_regions/early_kalloc.o
 .group         0x0000000000000000        0xc bin/obj/kernel/mm/init/mem_regions/early_kalloc.o
 .group         0x0000000000000000        0xc bin/obj/kernel/mm/init/mem_regions/early_kalloc.o
 .debug_macro   0x0000000000000000      0xad8 bin/obj/kernel/mm/init/mem_regions/early_kalloc.o
 .debug_macro   0x0000000000000000       0x1c bin/obj/kernel/mm/init/mem_regions/early_kalloc.o
 .debug_macro   0x0000000000000000       0x82 bin/obj/kernel/mm/init/mem_regions/early_kalloc.o
 .debug_macro   0x0000000000000000       0x10 bin/obj/kernel/mm/init/mem_regions/early_kalloc.o
 .debug_macro   0x0000000000000000       0x61 bin/obj/kernel/mm/init/mem_regions/early_kalloc.o
 .debug_macro   0x0000000000000000       0x22 bin/obj/kernel/mm/init/mem_regions/early_kalloc.o
 .debug_macro   0x0000000000000000       0x22 bin/obj/kernel/mm/init/mem_regions/early_kalloc.o
 .debug_macro   0x0000000000000000       0x28 bin/obj/kernel/mm/init/mem_regions/early_kalloc.o
 .debug_macro   0x0000000000000000       0x3a bin/obj/kernel/mm/init/mem_regions/early_kalloc.o
 .debug_macro   0x0000000000000000       0x22 bin/obj/kernel/mm/init/mem_regions/early_kalloc.o
 .debug_macro   0x0000000000000000       0x16 bin/obj/kernel/mm/init/mem_regions/early_kalloc.o
 .debug_macro   0x0000000000000000       0x1c bin/obj/kernel/mm/init/mem_regions/early_kalloc.o
 .debug_macro   0x0000000000000000       0x2e bin/obj/kernel/mm/init/mem_regions/early_kalloc.o
 .group         0x0000000000000000        0xc bin/obj/kernel/mm/init/mem_regions/mem_regions.o
 .group         0x0000000000000000        0xc bin/obj/kernel/mm/init/mem_regions/mem_regions.o
 .group         0x0000000000000000        0xc bin/obj/kernel/mm/init/mem_regions/mem_regions.o
 .group         0x0000000000000000        0xc bin/obj/kernel/mm/init/mem_regions/mem_regions.o
 .group         0x0000000000000000        0xc bin/obj/kernel/mm/init/mem_regions/mem_regions.o
 .group         0x0000000000000000        0xc bin/obj/kernel/mm/init/mem_regions/mem_regions.o
 .group         0x0000000000000000        0xc bin/obj/kernel/mm/init/mem_regions/mem_regions.o
 .group         0x0000000000000000        0xc bin/obj/kernel/mm/init/mem_regions/mem_regions.o
 .group         0x0000000000000000        0xc bin/obj/kernel/mm/init/mem_regions/mem_regions.o
 .group         0x0000000000000000        0xc bin/obj/kernel/mm/init/mem_regions/mem_regions.o
 .debug_macro   0x0000000000000000      0xad8 bin/obj/kernel/mm/init/mem_regions/mem_regions.o
 .debug_macro   0x0000000000000000       0x1c bin/obj/kernel/mm/init/mem_regions/mem_regions.o
 .debug_macro   0x0000000000000000       0x82 bin/obj/kernel/mm/init/mem_regions/mem_regions.o
 .debug_macro   0x0000000000000000       0x10 bin/obj/kernel/mm/init/mem_regions/mem_regions.o
 .debug_macro   0x0000000000000000       0x61 bin/obj/kernel/mm/init/mem_regions/mem_regions.o
 .debug_macro   0x0000000000000000       0x22 bin/obj/kernel/mm/init/mem_regions/mem_regions.o
 .debug_macro   0x0000000000000000       0x10 bin/obj/kernel/mm/init/mem_regions/mem_regions.o
 .debug_macro   0x0000000000000000       0x22 bin/obj/kernel/mm/init/mem_regions/mem_regions.o
 .debug_macro   0x0000000000000000       0x28 bin/obj/kernel/mm/init/mem_regions/mem_regions.o
 .debug_macro   0x0000000000000000       0x2e bin/obj/kernel/mm/init/mem_regions/mem_regions.o
 .group         0x0000000000000000        0xc bin/obj/kernel/mm/mm_info.o
 .group         0x0000000000000000        0xc bin/obj/kernel/mm/mm_info.o
 .group         0x0000000000000000        0xc bin/obj/kernel/mm/mm_info.o
 .group         0x0000000000000000        0xc bin/obj/kernel/mm/mm_info.o
 .group         0x0000000000000000        0xc bin/obj/kernel/mm/mm_info.o
 .group         0x0000000000000000        0xc bin/obj/kernel/mm/mm_info.o
 .group         0x0000000000000000        0xc bin/obj/kernel/mm/mm_info.o
 .group         0x0000000000000000        0xc bin/obj/kernel/mm/mm_info.o
 .group         0x0000000000000000        0xc bin/obj/kernel/mm/mm_info.o
 .group         0x0000000000000000        0xc bin/obj/kernel/mm/mm_info.o
 .debug_macro   0x0000000000000000      0xad8 bin/obj/kernel/mm/mm_info.o
 .debug_macro   0x0000000000000000       0x1c bin/obj/kernel/mm/mm_info.o
 .debug_macro   0x0000000000000000       0x82 bin/obj/kernel/mm/mm_info.o
 .debug_macro   0x0000000000000000       0x22 bin/obj/kernel/mm/mm_info.o
 .debug_macro   0x0000000000000000       0x10 bin/obj/kernel/mm/mm_info.o
 .debug_macro   0x0000000000000000       0x61 bin/obj/kernel/mm/mm_info.o
 .debug_macro   0x0000000000000000       0x22 bin/obj/kernel/mm/mm_info.o
 .debug_macro   0x0000000000000000       0x28 bin/obj/kernel/mm/mm_info.o
 .debug_macro   0x0000000000000000       0x3a bin/obj/kernel/mm/mm_info.o
 .debug_macro   0x0000000000000000       0x22 bin/obj/kernel/mm/mm_info.o
 .group         0x0000000000000000        0xc bin/obj/kernel/mm/mm.o
 .group         0x0000000000000000        0xc bin/obj/kernel/mm/mm.o
 .group         0x0000000000000000        0xc bin/obj/kernel/mm/mm.o
 .group         0x0000000000000000        0xc bin/obj/kernel/mm/mm.o
 .group         0x0000000000000000        0xc bin/obj/kernel/mm/mm.o
 .group         0x0000000000000000        0xc bin/obj/kernel/mm/mm.o
 .group         0x0000000000000000        0xc bin/obj/kernel/mm/mm.o
 .group         0x0000000000000000        0xc bin/obj/kernel/mm/mm.o
 .group         0x0000000000000000        0xc bin/obj/kernel/mm/mm.o
 .group         0x0000000000000000        0xc bin/obj/kernel/mm/mm.o
 .debug_macro   0x0000000000000000      0xad8 bin/obj/kernel/mm/mm.o
 .debug_macro   0x0000000000000000       0x10 bin/obj/kernel/mm/mm.o
 .debug_macro   0x0000000000000000       0x1c bin/obj/kernel/mm/mm.o
 .debug_macro   0x0000000000000000       0x82 bin/obj/kernel/mm/mm.o
 .debug_macro   0x0000000000000000       0x22 bin/obj/kernel/mm/mm.o
 .debug_macro   0x0000000000000000       0x10 bin/obj/kernel/mm/mm.o
 .debug_macro   0x0000000000000000       0x61 bin/obj/kernel/mm/mm.o
 .debug_macro   0x0000000000000000       0x22 bin/obj/kernel/mm/mm.o
 .debug_macro   0x0000000000000000       0x28 bin/obj/kernel/mm/mm.o
 .debug_macro   0x0000000000000000       0x2e bin/obj/kernel/mm/mm.o
 .group         0x0000000000000000        0xc bin/obj/kernel/mm/virt/containers/containers.o
 .group         0x0000000000000000        0xc bin/obj/kernel/mm/virt/containers/containers.o
 .group         0x0000000000000000        0xc bin/obj/kernel/mm/virt/containers/containers.o
 .group         0x0000000000000000        0xc bin/obj/kernel/mm/virt/containers/containers.o
 .group         0x0000000000000000        0xc bin/obj/kernel/mm/virt/containers/containers.o
 .group         0x0000000000000000        0xc bin/obj/kernel/mm/virt/containers/containers.o
 .group         0x0000000000000000        0xc bin/obj/kernel/mm/virt/containers/containers.o
 .group         0x0000000000000000        0xc bin/obj/kernel/mm/virt/containers/containers.o
 .group         0x0000000000000000        0xc bin/obj/kernel/mm/virt/containers/containers.o
 .group         0x0000000000000000        0xc bin/obj/kernel/mm/virt/containers/containers.o
 .group         0x0000000000000000        0xc bin/obj/kernel/mm/virt/containers/containers.o
 .group         0x0000000000000000        0xc bin/obj/kernel/mm/virt/containers/containers.o
 .group         0x0000000000000000        0xc bin/obj/kernel/mm/virt/containers/containers.o
 .group         0x0000000000000000        0xc bin/obj/kernel/mm/virt/containers/containers.o
 .debug_macro   0x0000000000000000      0xad8 bin/obj/kernel/mm/virt/containers/containers.o
 .debug_macro   0x0000000000000000       0x10 bin/obj/kernel/mm/virt/containers/containers.o
 .debug_macro   0x0000000000000000       0x1c bin/obj/kernel/mm/virt/containers/containers.o
 .debug_macro   0x0000000000000000       0x82 bin/obj/kernel/mm/virt/containers/containers.o
 .debug_macro   0x0000000000000000       0x22 bin/obj/kernel/mm/virt/containers/containers.o
 .debug_macro   0x0000000000000000       0x10 bin/obj/kernel/mm/virt/containers/containers.o
 .debug_macro   0x0000000000000000       0x61 bin/obj/kernel/mm/virt/containers/containers.o
 .debug_macro   0x0000000000000000       0x22 bin/obj/kernel/mm/virt/containers/containers.o
 .debug_macro   0x0000000000000000       0x28 bin/obj/kernel/mm/virt/containers/containers.o
 .debug_macro   0x0000000000000000       0x2e bin/obj/kernel/mm/virt/containers/containers.o
 .debug_macro   0x0000000000000000       0x1c bin/obj/kernel/mm/virt/containers/containers.o
 .debug_macro   0x0000000000000000       0x2e bin/obj/kernel/mm/virt/containers/containers.o
 .debug_macro   0x0000000000000000       0x10 bin/obj/kernel/mm/virt/containers/containers.o
 .group         0x0000000000000000        0xc bin/obj/kernel/mm/virt/vmalloc.o
 .group         0x0000000000000000        0xc bin/obj/kernel/mm/virt/vmalloc.o
 .group         0x0000000000000000        0xc bin/obj/kernel/mm/virt/vmalloc.o
 .group         0x0000000000000000        0xc bin/obj/kernel/mm/virt/vmalloc.o
 .group         0x0000000000000000        0xc bin/obj/kernel/mm/virt/vmalloc.o
 .group         0x0000000000000000        0xc bin/obj/kernel/mm/virt/vmalloc.o
 .group         0x0000000000000000        0xc bin/obj/kernel/mm/virt/vmalloc.o
 .group         0x0000000000000000        0xc bin/obj/kernel/mm/virt/vmalloc.o
 .group         0x0000000000000000        0xc bin/obj/kernel/mm/virt/vmalloc.o
 .group         0x0000000000000000        0xc bin/obj/kernel/mm/virt/vmalloc.o
 .group         0x0000000000000000        0xc bin/obj/kernel/mm/virt/vmalloc.o
 .group         0x0000000000000000        0xc bin/obj/kernel/mm/virt/vmalloc.o
 .group         0x0000000000000000        0xc bin/obj/kernel/mm/virt/vmalloc.o
 .group         0x0000000000000000        0xc bin/obj/kernel/mm/virt/vmalloc.o
 .group         0x0000000000000000        0xc bin/obj/kernel/mm/virt/vmalloc.o
 .group         0x0000000000000000        0xc bin/obj/kernel/mm/virt/vmalloc.o
 .debug_macro   0x0000000000000000      0xad8 bin/obj/kernel/mm/virt/vmalloc.o
 .debug_macro   0x0000000000000000       0x1c bin/obj/kernel/mm/virt/vmalloc.o
 .debug_macro   0x0000000000000000       0x82 bin/obj/kernel/mm/virt/vmalloc.o
 .debug_macro   0x0000000000000000       0x10 bin/obj/kernel/mm/virt/vmalloc.o
 .debug_macro   0x0000000000000000       0x61 bin/obj/kernel/mm/virt/vmalloc.o
 .debug_macro   0x0000000000000000       0x22 bin/obj/kernel/mm/virt/vmalloc.o
 .debug_macro   0x0000000000000000       0x10 bin/obj/kernel/mm/virt/vmalloc.o
 .debug_macro   0x0000000000000000       0x22 bin/obj/kernel/mm/virt/vmalloc.o
 .debug_macro   0x0000000000000000       0x28 bin/obj/kernel/mm/virt/vmalloc.o
 .debug_macro   0x0000000000000000       0x3a bin/obj/kernel/mm/virt/vmalloc.o
 .debug_macro   0x0000000000000000       0x22 bin/obj/kernel/mm/virt/vmalloc.o
 .debug_macro   0x0000000000000000       0x1c bin/obj/kernel/mm/virt/vmalloc.o
 .debug_macro   0x0000000000000000       0x2e bin/obj/kernel/mm/virt/vmalloc.o
 .debug_macro   0x0000000000000000       0x1c bin/obj/kernel/mm/virt/vmalloc.o
 .debug_macro   0x0000000000000000       0x16 bin/obj/kernel/mm/virt/vmalloc.o
 .group         0x0000000000000000        0xc bin/obj/kernel/mm/virt/mdt/mdt.o
 .group         0x0000000000000000        0xc bin/obj/kernel/mm/virt/mdt/mdt.o
 .group         0x0000000000000000        0xc bin/obj/kernel/mm/virt/mdt/mdt.o
 .group         0x0000000000000000        0xc bin/obj/kernel/mm/virt/mdt/mdt.o
 .group         0x0000000000000000        0xc bin/obj/kernel/mm/virt/mdt/mdt.o
 .group         0x0000000000000000        0xc bin/obj/kernel/mm/virt/mdt/mdt.o
 .group         0x0000000000000000        0xc bin/obj/kernel/mm/virt/mdt/mdt.o
 .group         0x0000000000000000        0xc bin/obj/kernel/mm/virt/mdt/mdt.o
 .group         0x0000000000000000        0xc bin/obj/kernel/mm/virt/mdt/mdt.o
 .group         0x0000000000000000        0xc bin/obj/kernel/mm/virt/mdt/mdt.o
 .group         0x0000000000000000        0xc bin/obj/kernel/mm/virt/mdt/mdt.o
 .group         0x0000000000000000        0xc bin/obj/kernel/mm/virt/mdt/mdt.o
 .group         0x0000000000000000        0xc bin/obj/kernel/mm/virt/mdt/mdt.o
 .group         0x0000000000000000        0xc bin/obj/kernel/mm/virt/mdt/mdt.o
 .group         0x0000000000000000        0xc bin/obj/kernel/mm/virt/mdt/mdt.o
 .group         0x0000000000000000        0xc bin/obj/kernel/mm/virt/mdt/mdt.o
 .group         0x0000000000000000        0xc bin/obj/kernel/mm/virt/mdt/mdt.o
 .debug_macro   0x0000000000000000      0xad8 bin/obj/kernel/mm/virt/mdt/mdt.o
 .debug_macro   0x0000000000000000       0x1c bin/obj/kernel/mm/virt/mdt/mdt.o
 .debug_macro   0x0000000000000000       0x82 bin/obj/kernel/mm/virt/mdt/mdt.o
 .debug_macro   0x0000000000000000       0x10 bin/obj/kernel/mm/virt/mdt/mdt.o
 .debug_macro   0x0000000000000000       0x61 bin/obj/kernel/mm/virt/mdt/mdt.o
 .debug_macro   0x0000000000000000       0x22 bin/obj/kernel/mm/virt/mdt/mdt.o
 .debug_macro   0x0000000000000000       0x10 bin/obj/kernel/mm/virt/mdt/mdt.o
 .debug_macro   0x0000000000000000       0x22 bin/obj/kernel/mm/virt/mdt/mdt.o
 .debug_macro   0x0000000000000000       0x28 bin/obj/kernel/mm/virt/mdt/mdt.o
 .debug_macro   0x0000000000000000       0x2e bin/obj/kernel/mm/virt/mdt/mdt.o
 .debug_macro   0x0000000000000000       0x1c bin/obj/kernel/mm/virt/mdt/mdt.o
 .debug_macro   0x0000000000000000       0x2e bin/obj/kernel/mm/virt/mdt/mdt.o
 .debug_macro   0x0000000000000000       0x10 bin/obj/kernel/mm/virt/mdt/mdt.o
 .debug_macro   0x0000000000000000       0x1c bin/obj/kernel/mm/virt/mdt/mdt.o
 .debug_macro   0x0000000000000000       0x10 bin/obj/kernel/mm/virt/mdt/mdt.o
 .debug_macro   0x0000000000000000       0x22 bin/obj/kernel/mm/virt/mdt/mdt.o
 .debug_macro   0x0000000000000000       0x16 bin/obj/kernel/mm/virt/mdt/mdt.o
 .group         0x0000000000000000        0xc bin/obj/kernel/mm/malloc/reserve_malloc.o
 .group         0x0000000000000000        0xc bin/obj/kernel/mm/malloc/reserve_malloc.o
 .group         0x0000000000000000        0xc bin/obj/kernel/mm/malloc/reserve_malloc.o
 .group         0x0000000000000000        0xc bin/obj/kernel/mm/malloc/reserve_malloc.o
 .group         0x0000000000000000        0xc bin/obj/kernel/mm/malloc/reserve_malloc.o
 .group         0x0000000000000000        0xc bin/obj/kernel/mm/malloc/reserve_malloc.o
 .group         0x0000000000000000        0xc bin/obj/kernel/mm/malloc/reserve_malloc.o
 .group         0x0000000000000000        0xc bin/obj/kernel/mm/malloc/reserve_malloc.o
 .group         0x0000000000000000        0xc bin/obj/kernel/mm/malloc/reserve_malloc.o
 .group         0x0000000000000000        0xc bin/obj/kernel/mm/malloc/reserve_malloc.o
 .group         0x0000000000000000        0xc bin/obj/kernel/mm/malloc/reserve_malloc.o
 .group         0x0000000000000000        0xc bin/obj/kernel/mm/malloc/reserve_malloc.o
 .group         0x0000000000000000        0xc bin/obj/kernel/mm/malloc/reserve_malloc.o
 .group         0x0000000000000000        0xc bin/obj/kernel/mm/malloc/reserve_malloc.o
 .group         0x0000000000000000        0xc bin/obj/kernel/mm/malloc/reserve_malloc.o
 .debug_macro   0x0000000000000000      0xad8 bin/obj/kernel/mm/malloc/reserve_malloc.o
 .debug_macro   0x0000000000000000       0x1c bin/obj/kernel/mm/malloc/reserve_malloc.o
 .debug_macro   0x0000000000000000       0x82 bin/obj/kernel/mm/malloc/reserve_malloc.o
 .debug_macro   0x0000000000000000       0x10 bin/obj/kernel/mm/malloc/reserve_malloc.o
 .debug_macro   0x0000000000000000       0x61 bin/obj/kernel/mm/malloc/reserve_malloc.o
 .debug_macro   0x0000000000000000       0x22 bin/obj/kernel/mm/malloc/reserve_malloc.o
 .debug_macro   0x0000000000000000       0x10 bin/obj/kernel/mm/malloc/reserve_malloc.o
 .debug_macro   0x0000000000000000       0x22 bin/obj/kernel/mm/malloc/reserve_malloc.o
 .debug_macro   0x0000000000000000       0x28 bin/obj/kernel/mm/malloc/reserve_malloc.o
 .debug_macro   0x0000000000000000       0x2e bin/obj/kernel/mm/malloc/reserve_malloc.o
 .debug_macro   0x0000000000000000       0x1c bin/obj/kernel/mm/malloc/reserve_malloc.o
 .debug_macro   0x0000000000000000       0x2e bin/obj/kernel/mm/malloc/reserve_malloc.o
 .debug_macro   0x0000000000000000       0x1c bin/obj/kernel/mm/malloc/reserve_malloc.o
 .debug_macro   0x0000000000000000       0x34 bin/obj/kernel/mm/malloc/reserve_malloc.o
 .debug_macro   0x0000000000000000       0x10 bin/obj/kernel/mm/malloc/reserve_malloc.o
 .group         0x0000000000000000        0xc bin/obj/kernel/mm/malloc/raw_kmalloc.o
 .group         0x0000000000000000        0xc bin/obj/kernel/mm/malloc/raw_kmalloc.o
 .group         0x0000000000000000        0xc bin/obj/kernel/mm/malloc/raw_kmalloc.o
 .group         0x0000000000000000        0xc bin/obj/kernel/mm/malloc/raw_kmalloc.o
 .group         0x0000000000000000        0xc bin/obj/kernel/mm/malloc/raw_kmalloc.o
 .group         0x0000000000000000        0xc bin/obj/kernel/mm/malloc/raw_kmalloc.o
 .group         0x0000000000000000        0xc bin/obj/kernel/mm/malloc/raw_kmalloc.o
 .group         0x0000000000000000        0xc bin/obj/kernel/mm/malloc/raw_kmalloc.o
 .group         0x0000000000000000        0xc bin/obj/kernel/mm/malloc/raw_kmalloc.o
 .group         0x0000000000000000        0xc bin/obj/kernel/mm/malloc/raw_kmalloc.o
 .group         0x0000000000000000        0xc bin/obj/kernel/mm/malloc/raw_kmalloc.o
 .group         0x0000000000000000        0xc bin/obj/kernel/mm/malloc/raw_kmalloc.o
 .debug_macro   0x0000000000000000      0xad8 bin/obj/kernel/mm/malloc/raw_kmalloc.o
 .debug_macro   0x0000000000000000       0x1c bin/obj/kernel/mm/malloc/raw_kmalloc.o
 .debug_macro   0x0000000000000000       0x82 bin/obj/kernel/mm/malloc/raw_kmalloc.o
 .debug_macro   0x0000000000000000       0x22 bin/obj/kernel/mm/malloc/raw_kmalloc.o
 .debug_macro   0x0000000000000000       0x10 bin/obj/kernel/mm/malloc/raw_kmalloc.o
 .debug_macro   0x0000000000000000       0x61 bin/obj/kernel/mm/malloc/raw_kmalloc.o
 .debug_macro   0x0000000000000000       0x22 bin/obj/kernel/mm/malloc/raw_kmalloc.o
 .debug_macro   0x0000000000000000       0x28 bin/obj/kernel/mm/malloc/raw_kmalloc.o
 .debug_macro   0x0000000000000000       0x3a bin/obj/kernel/mm/malloc/raw_kmalloc.o
 .debug_macro   0x0000000000000000       0x22 bin/obj/kernel/mm/malloc/raw_kmalloc.o
 .debug_macro   0x0000000000000000       0x1c bin/obj/kernel/mm/malloc/raw_kmalloc.o
 .debug_macro   0x0000000000000000       0x10 bin/obj/kernel/mm/malloc/raw_kmalloc.o
 .group         0x0000000000000000        0xc bin/obj/kernel/mm/reloc/reloc.o
 .group         0x0000000000000000        0xc bin/obj/kernel/mm/reloc/reloc.o
 .group         0x0000000000000000        0xc bin/obj/kernel/mm/reloc/reloc.o
 .group         0x0000000000000000        0xc bin/obj/kernel/mm/reloc/reloc.o
 .group         0x0000000000000000        0xc bin/obj/kernel/mm/reloc/reloc.o
 .group         0x0000000000000000        0xc bin/obj/kernel/mm/reloc/reloc.o
 .group         0x0000000000000000        0xc bin/obj/kernel/mm/reloc/reloc.o
 .group         0x0000000000000000        0xc bin/obj/kernel/mm/reloc/reloc.o
 .group         0x0000000000000000        0xc bin/obj/kernel/mm/reloc/reloc.o
 .group         0x0000000000000000        0xc bin/obj/kernel/mm/reloc/reloc.o
 .group         0x0000000000000000        0xc bin/obj/kernel/mm/reloc/reloc.o
 .debug_macro   0x0000000000000000      0xad8 bin/obj/kernel/mm/reloc/reloc.o
 .debug_macro   0x0000000000000000       0x1c bin/obj/kernel/mm/reloc/reloc.o
 .debug_macro   0x0000000000000000       0x82 bin/obj/kernel/mm/reloc/reloc.o
 .debug_macro   0x0000000000000000       0x22 bin/obj/kernel/mm/reloc/reloc.o
 .debug_macro   0x0000000000000000       0x10 bin/obj/kernel/mm/reloc/reloc.o
 .debug_macro   0x0000000000000000       0x61 bin/obj/kernel/mm/reloc/reloc.o
 .debug_macro   0x0000000000000000       0x22 bin/obj/kernel/mm/reloc/reloc.o
 .debug_macro   0x0000000000000000       0x28 bin/obj/kernel/mm/reloc/reloc.o
 .debug_macro   0x0000000000000000       0x1c bin/obj/kernel/mm/reloc/reloc.o
 .debug_macro   0x0000000000000000       0x10 bin/obj/kernel/mm/reloc/reloc.o
 .debug_macro   0x0000000000000000       0x3a bin/obj/kernel/mm/reloc/reloc.o
 .group         0x0000000000000000        0xc bin/obj/kernel/kernel_entry.o
 .group         0x0000000000000000        0xc bin/obj/kernel/kernel_entry.o
 .group         0x0000000000000000        0xc bin/obj/kernel/kernel_entry.o
 .group         0x0000000000000000        0xc bin/obj/kernel/kernel_entry.o
 .group         0x0000000000000000        0xc bin/obj/kernel/kernel_entry.o
 .group         0x0000000000000000        0xc bin/obj/kernel/kernel_entry.o
 .group         0x0000000000000000        0xc bin/obj/kernel/kernel_entry.o
 .group         0x0000000000000000        0xc bin/obj/kernel/kernel_entry.o
 .group         0x0000000000000000        0xc bin/obj/kernel/kernel_entry.o
 .group         0x0000000000000000        0xc bin/obj/kernel/kernel_entry.o
 .group         0x0000000000000000        0xc bin/obj/kernel/kernel_entry.o
 .group         0x0000000000000000        0xc bin/obj/kernel/kernel_entry.o
 .group         0x0000000000000000        0xc bin/obj/kernel/kernel_entry.o
 .group         0x0000000000000000        0xc bin/obj/kernel/kernel_entry.o
 .group         0x0000000000000000        0xc bin/obj/kernel/kernel_entry.o
 .group         0x0000000000000000        0xc bin/obj/kernel/kernel_entry.o
 .group         0x0000000000000000        0xc bin/obj/kernel/kernel_entry.o
 .group         0x0000000000000000        0xc bin/obj/kernel/kernel_entry.o
 .debug_macro   0x0000000000000000      0xad8 bin/obj/kernel/kernel_entry.o
 .debug_macro   0x0000000000000000       0x1c bin/obj/kernel/kernel_entry.o
 .debug_macro   0x0000000000000000       0x82 bin/obj/kernel/kernel_entry.o
 .debug_macro   0x0000000000000000       0x28 bin/obj/kernel/kernel_entry.o
 .debug_macro   0x0000000000000000       0x22 bin/obj/kernel/kernel_entry.o
 .debug_macro   0x0000000000000000       0x10 bin/obj/kernel/kernel_entry.o
 .debug_macro   0x0000000000000000       0x1c bin/obj/kernel/kernel_entry.o
 .debug_macro   0x0000000000000000       0x2e bin/obj/kernel/kernel_entry.o
 .debug_macro   0x0000000000000000       0x1c bin/obj/kernel/kernel_entry.o
 .debug_macro   0x0000000000000000       0x10 bin/obj/kernel/kernel_entry.o
 .debug_macro   0x0000000000000000       0x61 bin/obj/kernel/kernel_entry.o
 .debug_macro   0x0000000000000000       0x1c bin/obj/kernel/kernel_entry.o
 .debug_macro   0x0000000000000000       0x34 bin/obj/kernel/kernel_entry.o
 .debug_macro   0x0000000000000000       0x10 bin/obj/kernel/kernel_entry.o
 .debug_macro   0x0000000000000000       0x22 bin/obj/kernel/kernel_entry.o
 .debug_macro   0x0000000000000000       0x28 bin/obj/kernel/kernel_entry.o
 .debug_macro   0x0000000000000000       0x2e bin/obj/kernel/kernel_entry.o
 .debug_macro   0x0000000000000000       0x10 bin/obj/kernel/kernel_entry.o
 .group         0x0000000000000000        0xc bin/obj/kernel/io/term.o
 .group         0x0000000000000000        0xc bin/obj/kernel/io/term.o
 .group         0x0000000000000000        0xc bin/obj/kernel/io/term.o
 .group         0x0000000000000000        0xc bin/obj/kernel/io/term.o
 .group         0x0000000000000000        0xc bin/obj/kernel/io/term.o
 .group         0x0000000000000000        0xc bin/obj/kernel/io/term.o
 .group         0x0000000000000000        0xc bin/obj/kernel/io/term.o
 .group         0x0000000000000000        0xc bin/obj/kernel/io/term.o
 .group         0x0000000000000000        0xc bin/obj/kernel/io/term.o
 .debug_macro   0x0000000000000000      0xad8 bin/obj/kernel/io/term.o
 .debug_macro   0x0000000000000000       0x10 bin/obj/kernel/io/term.o
 .debug_macro   0x0000000000000000       0x1c bin/obj/kernel/io/term.o
 .debug_macro   0x0000000000000000       0x82 bin/obj/kernel/io/term.o
 .debug_macro   0x0000000000000000       0x1c bin/obj/kernel/io/term.o
 .debug_macro   0x0000000000000000       0x1c bin/obj/kernel/io/term.o
 .debug_macro   0x0000000000000000       0x34 bin/obj/kernel/io/term.o
 .debug_macro   0x0000000000000000       0x61 bin/obj/kernel/io/term.o
 .group         0x0000000000000000        0xc bin/obj/kernel/panic/panic.o
 .group         0x0000000000000000        0xc bin/obj/kernel/panic/panic.o
 .group         0x0000000000000000        0xc bin/obj/kernel/panic/panic.o
 .group         0x0000000000000000        0xc bin/obj/kernel/panic/panic.o
 .group         0x0000000000000000        0xc bin/obj/kernel/panic/panic.o
 .group         0x0000000000000000        0xc bin/obj/kernel/panic/panic.o
 .group         0x0000000000000000        0xc bin/obj/kernel/panic/panic.o
 .group         0x0000000000000000        0xc bin/obj/kernel/panic/panic.o
 .group         0x0000000000000000        0xc bin/obj/kernel/panic/panic.o
 .group         0x0000000000000000        0xc bin/obj/kernel/panic/panic.o
 .group         0x0000000000000000        0xc bin/obj/kernel/panic/panic.o
 .group         0x0000000000000000        0xc bin/obj/kernel/panic/panic.o
 .group         0x0000000000000000        0xc bin/obj/kernel/panic/panic.o
 .debug_macro   0x0000000000000000      0xad8 bin/obj/kernel/panic/panic.o
 .debug_macro   0x0000000000000000       0x1c bin/obj/kernel/panic/panic.o
 .debug_macro   0x0000000000000000       0x82 bin/obj/kernel/panic/panic.o
 .debug_macro   0x0000000000000000       0x10 bin/obj/kernel/panic/panic.o
 .debug_macro   0x0000000000000000       0x61 bin/obj/kernel/panic/panic.o
 .debug_macro   0x0000000000000000       0x22 bin/obj/kernel/panic/panic.o
 .debug_macro   0x0000000000000000       0x22 bin/obj/kernel/panic/panic.o
 .debug_macro   0x0000000000000000       0x28 bin/obj/kernel/panic/panic.o
 .debug_macro   0x0000000000000000       0x16 bin/obj/kernel/panic/panic.o
 .debug_macro   0x0000000000000000       0x1c bin/obj/kernel/panic/panic.o
 .debug_macro   0x0000000000000000       0x1c bin/obj/kernel/panic/panic.o
 .debug_macro   0x0000000000000000       0x34 bin/obj/kernel/panic/panic.o
 .group         0x0000000000000000        0xc bin/obj/kernel/panic/panic_puts.o
 .group         0x0000000000000000        0xc bin/obj/kernel/panic/panic_puts.o
 .group         0x0000000000000000        0xc bin/obj/kernel/panic/panic_puts.o
 .group         0x0000000000000000        0xc bin/obj/kernel/panic/panic_puts.o
 .group         0x0000000000000000        0xc bin/obj/kernel/panic/panic_puts.o
 .debug_macro   0x0000000000000000      0xad8 bin/obj/kernel/panic/panic_puts.o
 .debug_macro   0x0000000000000000       0x40 bin/obj/kernel/panic/panic_puts.o
 .debug_macro   0x0000000000000000       0x1c bin/obj/kernel/panic/panic_puts.o
 .debug_macro   0x0000000000000000       0x82 bin/obj/kernel/panic/panic_puts.o
 .debug_macro   0x0000000000000000       0x34 bin/obj/kernel/panic/panic_puts.o
 .group         0x0000000000000000        0xc bin/obj/kernel/panic/panic_exception/panic_exception_handlers.o
 .group         0x0000000000000000        0xc bin/obj/kernel/panic/panic_exception/panic_exception_handlers.o
 .group         0x0000000000000000        0xc bin/obj/kernel/panic/panic_exception/panic_exception_handlers.o
 .group         0x0000000000000000        0xc bin/obj/kernel/panic/panic_exception/panic_exception_handlers.o
 .group         0x0000000000000000        0xc bin/obj/kernel/panic/panic_exception/panic_exception_handlers.o
 .group         0x0000000000000000        0xc bin/obj/kernel/panic/panic_exception/panic_exception_handlers.o
 .debug_macro   0x0000000000000000      0xad8 bin/obj/kernel/panic/panic_exception/panic_exception_handlers.o
 .debug_macro   0x0000000000000000       0x1c bin/obj/kernel/panic/panic_exception/panic_exception_handlers.o
 .debug_macro   0x0000000000000000       0x82 bin/obj/kernel/panic/panic_exception/panic_exception_handlers.o
 .debug_macro   0x0000000000000000       0x10 bin/obj/kernel/panic/panic_exception/panic_exception_handlers.o
 .debug_macro   0x0000000000000000       0x61 bin/obj/kernel/panic/panic_exception/panic_exception_handlers.o
 .debug_macro   0x0000000000000000       0x40 bin/obj/kernel/panic/panic_exception/panic_exception_handlers.o
 .group         0x0000000000000000        0xc bin/obj/kernel/panic/panic_exception/esr/esr.o
 .group         0x0000000000000000        0xc bin/obj/kernel/panic/panic_exception/esr/esr.o
 .group         0x0000000000000000        0xc bin/obj/kernel/panic/panic_exception/esr/esr.o
 .group         0x0000000000000000        0xc bin/obj/kernel/panic/panic_exception/esr/esr.o
 .group         0x0000000000000000        0xc bin/obj/kernel/panic/panic_exception/esr/esr.o
 .group         0x0000000000000000        0xc bin/obj/kernel/panic/panic_exception/esr/esr.o
 .debug_macro   0x0000000000000000      0xad8 bin/obj/kernel/panic/panic_exception/esr/esr.o
 .debug_macro   0x0000000000000000       0x82 bin/obj/kernel/panic/panic_exception/esr/esr.o
 .debug_macro   0x0000000000000000       0x40 bin/obj/kernel/panic/panic_exception/esr/esr.o
 .debug_macro   0x0000000000000000       0x1c bin/obj/kernel/panic/panic_exception/esr/esr.o
 .debug_macro   0x0000000000000000       0x10 bin/obj/kernel/panic/panic_exception/esr/esr.o
 .debug_macro   0x0000000000000000       0x61 bin/obj/kernel/panic/panic_exception/esr/esr.o
 .group         0x0000000000000000        0xc bin/obj/kernel/panic/panic_exception/esr/data_abort.o
 .group         0x0000000000000000        0xc bin/obj/kernel/panic/panic_exception/esr/data_abort.o
 .group         0x0000000000000000        0xc bin/obj/kernel/panic/panic_exception/esr/data_abort.o
 .debug_macro   0x0000000000000000      0xad8 bin/obj/kernel/panic/panic_exception/esr/data_abort.o
 .debug_macro   0x0000000000000000       0x82 bin/obj/kernel/panic/panic_exception/esr/data_abort.o
 .debug_macro   0x0000000000000000       0x40 bin/obj/kernel/panic/panic_exception/esr/data_abort.o
 .group         0x0000000000000000        0xc bin/obj/arm/tfa/smccc.o
 .group         0x0000000000000000        0xc bin/obj/arm/tfa/smccc.o
 .group         0x0000000000000000        0xc bin/obj/arm/tfa/smccc.o
 .debug_macro   0x0000000000000000       0x82 bin/obj/arm/tfa/smccc.o
 .debug_macro   0x0000000000000000       0x28 bin/obj/arm/tfa/smccc.o
 .group         0x0000000000000000        0xc bin/obj/arm/cpu.o
 .group         0x0000000000000000        0xc bin/obj/arm/cpu.o
 .group         0x0000000000000000        0xc bin/obj/arm/cpu.o
 .debug_macro   0x0000000000000000      0xad8 bin/obj/arm/cpu.o
 .debug_macro   0x0000000000000000       0x82 bin/obj/arm/cpu.o
 .debug_macro   0x0000000000000000       0x10 bin/obj/arm/cpu.o
 .group         0x0000000000000000        0xc bin/obj/arm/exceptions/handlers/el1/el1_low_a32_serror.o
 .group         0x0000000000000000        0xc bin/obj/arm/exceptions/handlers/el1/el1_low_a32_serror.o
 .group         0x0000000000000000        0xc bin/obj/arm/exceptions/handlers/el1/el1_low_a32_serror.o
 .group         0x0000000000000000        0xc bin/obj/arm/exceptions/handlers/el1/el1_low_a32_serror.o
 .group         0x0000000000000000        0xc bin/obj/arm/exceptions/handlers/el1/el1_low_a32_serror.o
 .group         0x0000000000000000        0xc bin/obj/arm/exceptions/handlers/el1/el1_low_a32_serror.o
 .group         0x0000000000000000        0xc bin/obj/arm/exceptions/handlers/el1/el1_low_a32_serror.o
 .group         0x0000000000000000        0xc bin/obj/arm/exceptions/handlers/el1/el1_low_a32_serror.o
 .debug_macro   0x0000000000000000      0xad8 bin/obj/arm/exceptions/handlers/el1/el1_low_a32_serror.o
 .debug_macro   0x0000000000000000       0x1c bin/obj/arm/exceptions/handlers/el1/el1_low_a32_serror.o
 .debug_macro   0x0000000000000000       0x82 bin/obj/arm/exceptions/handlers/el1/el1_low_a32_serror.o
 .debug_macro   0x0000000000000000       0x10 bin/obj/arm/exceptions/handlers/el1/el1_low_a32_serror.o
 .debug_macro   0x0000000000000000       0x61 bin/obj/arm/exceptions/handlers/el1/el1_low_a32_serror.o
 .debug_macro   0x0000000000000000       0x1c bin/obj/arm/exceptions/handlers/el1/el1_low_a32_serror.o
 .debug_macro   0x0000000000000000       0x34 bin/obj/arm/exceptions/handlers/el1/el1_low_a32_serror.o
 .group         0x0000000000000000        0xc bin/obj/arm/exceptions/handlers/el1/el1_low_a32_fiq.o
 .group         0x0000000000000000        0xc bin/obj/arm/exceptions/handlers/el1/el1_low_a32_fiq.o
 .group         0x0000000000000000        0xc bin/obj/arm/exceptions/handlers/el1/el1_low_a32_fiq.o
 .group         0x0000000000000000        0xc bin/obj/arm/exceptions/handlers/el1/el1_low_a32_fiq.o
 .group         0x0000000000000000        0xc bin/obj/arm/exceptions/handlers/el1/el1_low_a32_fiq.o
 .group         0x0000000000000000        0xc bin/obj/arm/exceptions/handlers/el1/el1_low_a32_fiq.o
 .group         0x0000000000000000        0xc bin/obj/arm/exceptions/handlers/el1/el1_low_a32_fiq.o
 .group         0x0000000000000000        0xc bin/obj/arm/exceptions/handlers/el1/el1_low_a32_fiq.o
 .debug_macro   0x0000000000000000      0xad8 bin/obj/arm/exceptions/handlers/el1/el1_low_a32_fiq.o
 .debug_macro   0x0000000000000000       0x1c bin/obj/arm/exceptions/handlers/el1/el1_low_a32_fiq.o
 .debug_macro   0x0000000000000000       0x82 bin/obj/arm/exceptions/handlers/el1/el1_low_a32_fiq.o
 .debug_macro   0x0000000000000000       0x10 bin/obj/arm/exceptions/handlers/el1/el1_low_a32_fiq.o
 .debug_macro   0x0000000000000000       0x61 bin/obj/arm/exceptions/handlers/el1/el1_low_a32_fiq.o
 .debug_macro   0x0000000000000000       0x1c bin/obj/arm/exceptions/handlers/el1/el1_low_a32_fiq.o
 .debug_macro   0x0000000000000000       0x34 bin/obj/arm/exceptions/handlers/el1/el1_low_a32_fiq.o
 .debug_macro   0x0000000000000000       0x10 bin/obj/arm/exceptions/handlers/el1/el1_low_a32_fiq.o
 .group         0x0000000000000000        0xc bin/obj/arm/exceptions/handlers/el1/el1_low_a64_sync.o
 .group         0x0000000000000000        0xc bin/obj/arm/exceptions/handlers/el1/el1_low_a64_sync.o
 .group         0x0000000000000000        0xc bin/obj/arm/exceptions/handlers/el1/el1_low_a64_sync.o
 .group         0x0000000000000000        0xc bin/obj/arm/exceptions/handlers/el1/el1_low_a64_sync.o
 .group         0x0000000000000000        0xc bin/obj/arm/exceptions/handlers/el1/el1_low_a64_sync.o
 .group         0x0000000000000000        0xc bin/obj/arm/exceptions/handlers/el1/el1_low_a64_sync.o
 .group         0x0000000000000000        0xc bin/obj/arm/exceptions/handlers/el1/el1_low_a64_sync.o
 .group         0x0000000000000000        0xc bin/obj/arm/exceptions/handlers/el1/el1_low_a64_sync.o
 .debug_macro   0x0000000000000000      0xad8 bin/obj/arm/exceptions/handlers/el1/el1_low_a64_sync.o
 .debug_macro   0x0000000000000000       0x1c bin/obj/arm/exceptions/handlers/el1/el1_low_a64_sync.o
 .debug_macro   0x0000000000000000       0x82 bin/obj/arm/exceptions/handlers/el1/el1_low_a64_sync.o
 .debug_macro   0x0000000000000000       0x10 bin/obj/arm/exceptions/handlers/el1/el1_low_a64_sync.o
 .debug_macro   0x0000000000000000       0x61 bin/obj/arm/exceptions/handlers/el1/el1_low_a64_sync.o
 .debug_macro   0x0000000000000000       0x1c bin/obj/arm/exceptions/handlers/el1/el1_low_a64_sync.o
 .debug_macro   0x0000000000000000       0x34 bin/obj/arm/exceptions/handlers/el1/el1_low_a64_sync.o
 .debug_macro   0x0000000000000000       0x10 bin/obj/arm/exceptions/handlers/el1/el1_low_a64_sync.o
 .group         0x0000000000000000        0xc bin/obj/arm/exceptions/handlers/el1/el1_cur_spx_fiq.o
 .group         0x0000000000000000        0xc bin/obj/arm/exceptions/handlers/el1/el1_cur_spx_fiq.o
 .group         0x0000000000000000        0xc bin/obj/arm/exceptions/handlers/el1/el1_cur_spx_fiq.o
 .group         0x0000000000000000        0xc bin/obj/arm/exceptions/handlers/el1/el1_cur_spx_fiq.o
 .group         0x0000000000000000        0xc bin/obj/arm/exceptions/handlers/el1/el1_cur_spx_fiq.o
 .group         0x0000000000000000        0xc bin/obj/arm/exceptions/handlers/el1/el1_cur_spx_fiq.o
 .group         0x0000000000000000        0xc bin/obj/arm/exceptions/handlers/el1/el1_cur_spx_fiq.o
 .group         0x0000000000000000        0xc bin/obj/arm/exceptions/handlers/el1/el1_cur_spx_fiq.o
 .debug_macro   0x0000000000000000      0xad8 bin/obj/arm/exceptions/handlers/el1/el1_cur_spx_fiq.o
 .debug_macro   0x0000000000000000       0x1c bin/obj/arm/exceptions/handlers/el1/el1_cur_spx_fiq.o
 .debug_macro   0x0000000000000000       0x82 bin/obj/arm/exceptions/handlers/el1/el1_cur_spx_fiq.o
 .debug_macro   0x0000000000000000       0x10 bin/obj/arm/exceptions/handlers/el1/el1_cur_spx_fiq.o
 .debug_macro   0x0000000000000000       0x61 bin/obj/arm/exceptions/handlers/el1/el1_cur_spx_fiq.o
 .debug_macro   0x0000000000000000       0x1c bin/obj/arm/exceptions/handlers/el1/el1_cur_spx_fiq.o
 .debug_macro   0x0000000000000000       0x34 bin/obj/arm/exceptions/handlers/el1/el1_cur_spx_fiq.o
 .debug_macro   0x0000000000000000       0x10 bin/obj/arm/exceptions/handlers/el1/el1_cur_spx_fiq.o
 .group         0x0000000000000000        0xc bin/obj/arm/exceptions/handlers/el1/el1_cur_spx_irq.o
 .group         0x0000000000000000        0xc bin/obj/arm/exceptions/handlers/el1/el1_cur_spx_irq.o
 .group         0x0000000000000000        0xc bin/obj/arm/exceptions/handlers/el1/el1_cur_spx_irq.o
 .group         0x0000000000000000        0xc bin/obj/arm/exceptions/handlers/el1/el1_cur_spx_irq.o
 .group         0x0000000000000000        0xc bin/obj/arm/exceptions/handlers/el1/el1_cur_spx_irq.o
 .group         0x0000000000000000        0xc bin/obj/arm/exceptions/handlers/el1/el1_cur_spx_irq.o
 .group         0x0000000000000000        0xc bin/obj/arm/exceptions/handlers/el1/el1_cur_spx_irq.o
 .group         0x0000000000000000        0xc bin/obj/arm/exceptions/handlers/el1/el1_cur_spx_irq.o
 .group         0x0000000000000000        0xc bin/obj/arm/exceptions/handlers/el1/el1_cur_spx_irq.o
 .debug_macro   0x0000000000000000      0xad8 bin/obj/arm/exceptions/handlers/el1/el1_cur_spx_irq.o
 .debug_macro   0x0000000000000000       0x1c bin/obj/arm/exceptions/handlers/el1/el1_cur_spx_irq.o
 .debug_macro   0x0000000000000000       0x82 bin/obj/arm/exceptions/handlers/el1/el1_cur_spx_irq.o
 .debug_macro   0x0000000000000000       0x10 bin/obj/arm/exceptions/handlers/el1/el1_cur_spx_irq.o
 .debug_macro   0x0000000000000000       0x61 bin/obj/arm/exceptions/handlers/el1/el1_cur_spx_irq.o
 .debug_macro   0x0000000000000000       0x1c bin/obj/arm/exceptions/handlers/el1/el1_cur_spx_irq.o
 .debug_macro   0x0000000000000000       0x34 bin/obj/arm/exceptions/handlers/el1/el1_cur_spx_irq.o
 .debug_macro   0x0000000000000000       0x10 bin/obj/arm/exceptions/handlers/el1/el1_cur_spx_irq.o
 .debug_macro   0x0000000000000000       0x10 bin/obj/arm/exceptions/handlers/el1/el1_cur_spx_irq.o
 .group         0x0000000000000000        0xc bin/obj/arm/exceptions/handlers/el1/el1_cur_spx_serror.o
 .group         0x0000000000000000        0xc bin/obj/arm/exceptions/handlers/el1/el1_cur_spx_serror.o
 .group         0x0000000000000000        0xc bin/obj/arm/exceptions/handlers/el1/el1_cur_spx_serror.o
 .group         0x0000000000000000        0xc bin/obj/arm/exceptions/handlers/el1/el1_cur_spx_serror.o
 .group         0x0000000000000000        0xc bin/obj/arm/exceptions/handlers/el1/el1_cur_spx_serror.o
 .group         0x0000000000000000        0xc bin/obj/arm/exceptions/handlers/el1/el1_cur_spx_serror.o
 .group         0x0000000000000000        0xc bin/obj/arm/exceptions/handlers/el1/el1_cur_spx_serror.o
 .group         0x0000000000000000        0xc bin/obj/arm/exceptions/handlers/el1/el1_cur_spx_serror.o
 .debug_macro   0x0000000000000000      0xad8 bin/obj/arm/exceptions/handlers/el1/el1_cur_spx_serror.o
 .debug_macro   0x0000000000000000       0x1c bin/obj/arm/exceptions/handlers/el1/el1_cur_spx_serror.o
 .debug_macro   0x0000000000000000       0x82 bin/obj/arm/exceptions/handlers/el1/el1_cur_spx_serror.o
 .debug_macro   0x0000000000000000       0x10 bin/obj/arm/exceptions/handlers/el1/el1_cur_spx_serror.o
 .debug_macro   0x0000000000000000       0x61 bin/obj/arm/exceptions/handlers/el1/el1_cur_spx_serror.o
 .debug_macro   0x0000000000000000       0x1c bin/obj/arm/exceptions/handlers/el1/el1_cur_spx_serror.o
 .debug_macro   0x0000000000000000       0x34 bin/obj/arm/exceptions/handlers/el1/el1_cur_spx_serror.o
 .debug_macro   0x0000000000000000       0x10 bin/obj/arm/exceptions/handlers/el1/el1_cur_spx_serror.o
 .group         0x0000000000000000        0xc bin/obj/arm/exceptions/handlers/el1/el1_low_a32_irq.o
 .group         0x0000000000000000        0xc bin/obj/arm/exceptions/handlers/el1/el1_low_a32_irq.o
 .group         0x0000000000000000        0xc bin/obj/arm/exceptions/handlers/el1/el1_low_a32_irq.o
 .group         0x0000000000000000        0xc bin/obj/arm/exceptions/handlers/el1/el1_low_a32_irq.o
 .group         0x0000000000000000        0xc bin/obj/arm/exceptions/handlers/el1/el1_low_a32_irq.o
 .group         0x0000000000000000        0xc bin/obj/arm/exceptions/handlers/el1/el1_low_a32_irq.o
 .group         0x0000000000000000        0xc bin/obj/arm/exceptions/handlers/el1/el1_low_a32_irq.o
 .group         0x0000000000000000        0xc bin/obj/arm/exceptions/handlers/el1/el1_low_a32_irq.o
 .debug_macro   0x0000000000000000      0xad8 bin/obj/arm/exceptions/handlers/el1/el1_low_a32_irq.o
 .debug_macro   0x0000000000000000       0x1c bin/obj/arm/exceptions/handlers/el1/el1_low_a32_irq.o
 .debug_macro   0x0000000000000000       0x82 bin/obj/arm/exceptions/handlers/el1/el1_low_a32_irq.o
 .debug_macro   0x0000000000000000       0x10 bin/obj/arm/exceptions/handlers/el1/el1_low_a32_irq.o
 .debug_macro   0x0000000000000000       0x61 bin/obj/arm/exceptions/handlers/el1/el1_low_a32_irq.o
 .debug_macro   0x0000000000000000       0x1c bin/obj/arm/exceptions/handlers/el1/el1_low_a32_irq.o
 .debug_macro   0x0000000000000000       0x34 bin/obj/arm/exceptions/handlers/el1/el1_low_a32_irq.o
 .debug_macro   0x0000000000000000       0x10 bin/obj/arm/exceptions/handlers/el1/el1_low_a32_irq.o
 .group         0x0000000000000000        0xc bin/obj/arm/exceptions/handlers/el1/el1_low_a64_fiq.o
 .group         0x0000000000000000        0xc bin/obj/arm/exceptions/handlers/el1/el1_low_a64_fiq.o
 .group         0x0000000000000000        0xc bin/obj/arm/exceptions/handlers/el1/el1_low_a64_fiq.o
 .group         0x0000000000000000        0xc bin/obj/arm/exceptions/handlers/el1/el1_low_a64_fiq.o
 .group         0x0000000000000000        0xc bin/obj/arm/exceptions/handlers/el1/el1_low_a64_fiq.o
 .group         0x0000000000000000        0xc bin/obj/arm/exceptions/handlers/el1/el1_low_a64_fiq.o
 .group         0x0000000000000000        0xc bin/obj/arm/exceptions/handlers/el1/el1_low_a64_fiq.o
 .group         0x0000000000000000        0xc bin/obj/arm/exceptions/handlers/el1/el1_low_a64_fiq.o
 .debug_macro   0x0000000000000000      0xad8 bin/obj/arm/exceptions/handlers/el1/el1_low_a64_fiq.o
 .debug_macro   0x0000000000000000       0x1c bin/obj/arm/exceptions/handlers/el1/el1_low_a64_fiq.o
 .debug_macro   0x0000000000000000       0x82 bin/obj/arm/exceptions/handlers/el1/el1_low_a64_fiq.o
 .debug_macro   0x0000000000000000       0x10 bin/obj/arm/exceptions/handlers/el1/el1_low_a64_fiq.o
 .debug_macro   0x0000000000000000       0x61 bin/obj/arm/exceptions/handlers/el1/el1_low_a64_fiq.o
 .debug_macro   0x0000000000000000       0x1c bin/obj/arm/exceptions/handlers/el1/el1_low_a64_fiq.o
 .debug_macro   0x0000000000000000       0x34 bin/obj/arm/exceptions/handlers/el1/el1_low_a64_fiq.o
 .debug_macro   0x0000000000000000       0x10 bin/obj/arm/exceptions/handlers/el1/el1_low_a64_fiq.o
 .group         0x0000000000000000        0xc bin/obj/arm/exceptions/handlers/el1/el1_low_a64_irq.o
 .group         0x0000000000000000        0xc bin/obj/arm/exceptions/handlers/el1/el1_low_a64_irq.o
 .group         0x0000000000000000        0xc bin/obj/arm/exceptions/handlers/el1/el1_low_a64_irq.o
 .group         0x0000000000000000        0xc bin/obj/arm/exceptions/handlers/el1/el1_low_a64_irq.o
 .group         0x0000000000000000        0xc bin/obj/arm/exceptions/handlers/el1/el1_low_a64_irq.o
 .group         0x0000000000000000        0xc bin/obj/arm/exceptions/handlers/el1/el1_low_a64_irq.o
 .group         0x0000000000000000        0xc bin/obj/arm/exceptions/handlers/el1/el1_low_a64_irq.o
 .group         0x0000000000000000        0xc bin/obj/arm/exceptions/handlers/el1/el1_low_a64_irq.o
 .debug_macro   0x0000000000000000      0xad8 bin/obj/arm/exceptions/handlers/el1/el1_low_a64_irq.o
 .debug_macro   0x0000000000000000       0x1c bin/obj/arm/exceptions/handlers/el1/el1_low_a64_irq.o
 .debug_macro   0x0000000000000000       0x82 bin/obj/arm/exceptions/handlers/el1/el1_low_a64_irq.o
 .debug_macro   0x0000000000000000       0x10 bin/obj/arm/exceptions/handlers/el1/el1_low_a64_irq.o
 .debug_macro   0x0000000000000000       0x61 bin/obj/arm/exceptions/handlers/el1/el1_low_a64_irq.o
 .debug_macro   0x0000000000000000       0x1c bin/obj/arm/exceptions/handlers/el1/el1_low_a64_irq.o
 .debug_macro   0x0000000000000000       0x34 bin/obj/arm/exceptions/handlers/el1/el1_low_a64_irq.o
 .debug_macro   0x0000000000000000       0x10 bin/obj/arm/exceptions/handlers/el1/el1_low_a64_irq.o
 .group         0x0000000000000000        0xc bin/obj/arm/exceptions/handlers/el1/el1_cur_sp0_sync.o
 .group         0x0000000000000000        0xc bin/obj/arm/exceptions/handlers/el1/el1_cur_sp0_sync.o
 .group         0x0000000000000000        0xc bin/obj/arm/exceptions/handlers/el1/el1_cur_sp0_sync.o
 .group         0x0000000000000000        0xc bin/obj/arm/exceptions/handlers/el1/el1_cur_sp0_sync.o
 .group         0x0000000000000000        0xc bin/obj/arm/exceptions/handlers/el1/el1_cur_sp0_sync.o
 .group         0x0000000000000000        0xc bin/obj/arm/exceptions/handlers/el1/el1_cur_sp0_sync.o
 .group         0x0000000000000000        0xc bin/obj/arm/exceptions/handlers/el1/el1_cur_sp0_sync.o
 .group         0x0000000000000000        0xc bin/obj/arm/exceptions/handlers/el1/el1_cur_sp0_sync.o
 .debug_macro   0x0000000000000000      0xad8 bin/obj/arm/exceptions/handlers/el1/el1_cur_sp0_sync.o
 .debug_macro   0x0000000000000000       0x1c bin/obj/arm/exceptions/handlers/el1/el1_cur_sp0_sync.o
 .debug_macro   0x0000000000000000       0x82 bin/obj/arm/exceptions/handlers/el1/el1_cur_sp0_sync.o
 .debug_macro   0x0000000000000000       0x10 bin/obj/arm/exceptions/handlers/el1/el1_cur_sp0_sync.o
 .debug_macro   0x0000000000000000       0x61 bin/obj/arm/exceptions/handlers/el1/el1_cur_sp0_sync.o
 .debug_macro   0x0000000000000000       0x1c bin/obj/arm/exceptions/handlers/el1/el1_cur_sp0_sync.o
 .debug_macro   0x0000000000000000       0x34 bin/obj/arm/exceptions/handlers/el1/el1_cur_sp0_sync.o
 .debug_macro   0x0000000000000000       0x10 bin/obj/arm/exceptions/handlers/el1/el1_cur_sp0_sync.o
 .group         0x0000000000000000        0xc bin/obj/arm/exceptions/handlers/el1/el1_low_a64_serror.o
 .group         0x0000000000000000        0xc bin/obj/arm/exceptions/handlers/el1/el1_low_a64_serror.o
 .group         0x0000000000000000        0xc bin/obj/arm/exceptions/handlers/el1/el1_low_a64_serror.o
 .group         0x0000000000000000        0xc bin/obj/arm/exceptions/handlers/el1/el1_low_a64_serror.o
 .group         0x0000000000000000        0xc bin/obj/arm/exceptions/handlers/el1/el1_low_a64_serror.o
 .group         0x0000000000000000        0xc bin/obj/arm/exceptions/handlers/el1/el1_low_a64_serror.o
 .group         0x0000000000000000        0xc bin/obj/arm/exceptions/handlers/el1/el1_low_a64_serror.o
 .group         0x0000000000000000        0xc bin/obj/arm/exceptions/handlers/el1/el1_low_a64_serror.o
 .debug_macro   0x0000000000000000      0xad8 bin/obj/arm/exceptions/handlers/el1/el1_low_a64_serror.o
 .debug_macro   0x0000000000000000       0x1c bin/obj/arm/exceptions/handlers/el1/el1_low_a64_serror.o
 .debug_macro   0x0000000000000000       0x82 bin/obj/arm/exceptions/handlers/el1/el1_low_a64_serror.o
 .debug_macro   0x0000000000000000       0x10 bin/obj/arm/exceptions/handlers/el1/el1_low_a64_serror.o
 .debug_macro   0x0000000000000000       0x61 bin/obj/arm/exceptions/handlers/el1/el1_low_a64_serror.o
 .debug_macro   0x0000000000000000       0x1c bin/obj/arm/exceptions/handlers/el1/el1_low_a64_serror.o
 .debug_macro   0x0000000000000000       0x34 bin/obj/arm/exceptions/handlers/el1/el1_low_a64_serror.o
 .debug_macro   0x0000000000000000       0x10 bin/obj/arm/exceptions/handlers/el1/el1_low_a64_serror.o
 .group         0x0000000000000000        0xc bin/obj/arm/exceptions/handlers/el1/el1_low_a32_sync.o
 .group         0x0000000000000000        0xc bin/obj/arm/exceptions/handlers/el1/el1_low_a32_sync.o
 .group         0x0000000000000000        0xc bin/obj/arm/exceptions/handlers/el1/el1_low_a32_sync.o
 .group         0x0000000000000000        0xc bin/obj/arm/exceptions/handlers/el1/el1_low_a32_sync.o
 .group         0x0000000000000000        0xc bin/obj/arm/exceptions/handlers/el1/el1_low_a32_sync.o
 .group         0x0000000000000000        0xc bin/obj/arm/exceptions/handlers/el1/el1_low_a32_sync.o
 .group         0x0000000000000000        0xc bin/obj/arm/exceptions/handlers/el1/el1_low_a32_sync.o
 .group         0x0000000000000000        0xc bin/obj/arm/exceptions/handlers/el1/el1_low_a32_sync.o
 .debug_macro   0x0000000000000000      0xad8 bin/obj/arm/exceptions/handlers/el1/el1_low_a32_sync.o
 .debug_macro   0x0000000000000000       0x1c bin/obj/arm/exceptions/handlers/el1/el1_low_a32_sync.o
 .debug_macro   0x0000000000000000       0x82 bin/obj/arm/exceptions/handlers/el1/el1_low_a32_sync.o
 .debug_macro   0x0000000000000000       0x10 bin/obj/arm/exceptions/handlers/el1/el1_low_a32_sync.o
 .debug_macro   0x0000000000000000       0x61 bin/obj/arm/exceptions/handlers/el1/el1_low_a32_sync.o
 .debug_macro   0x0000000000000000       0x1c bin/obj/arm/exceptions/handlers/el1/el1_low_a32_sync.o
 .debug_macro   0x0000000000000000       0x34 bin/obj/arm/exceptions/handlers/el1/el1_low_a32_sync.o
 .debug_macro   0x0000000000000000       0x10 bin/obj/arm/exceptions/handlers/el1/el1_low_a32_sync.o
 .group         0x0000000000000000        0xc bin/obj/arm/exceptions/handlers/el1/el1_cur_spx_sync.o
 .group         0x0000000000000000        0xc bin/obj/arm/exceptions/handlers/el1/el1_cur_spx_sync.o
 .group         0x0000000000000000        0xc bin/obj/arm/exceptions/handlers/el1/el1_cur_spx_sync.o
 .group         0x0000000000000000        0xc bin/obj/arm/exceptions/handlers/el1/el1_cur_spx_sync.o
 .group         0x0000000000000000        0xc bin/obj/arm/exceptions/handlers/el1/el1_cur_spx_sync.o
 .group         0x0000000000000000        0xc bin/obj/arm/exceptions/handlers/el1/el1_cur_spx_sync.o
 .group         0x0000000000000000        0xc bin/obj/arm/exceptions/handlers/el1/el1_cur_spx_sync.o
 .group         0x0000000000000000        0xc bin/obj/arm/exceptions/handlers/el1/el1_cur_spx_sync.o
 .debug_macro   0x0000000000000000      0xad8 bin/obj/arm/exceptions/handlers/el1/el1_cur_spx_sync.o
 .debug_macro   0x0000000000000000       0x1c bin/obj/arm/exceptions/handlers/el1/el1_cur_spx_sync.o
 .debug_macro   0x0000000000000000       0x82 bin/obj/arm/exceptions/handlers/el1/el1_cur_spx_sync.o
 .debug_macro   0x0000000000000000       0x10 bin/obj/arm/exceptions/handlers/el1/el1_cur_spx_sync.o
 .debug_macro   0x0000000000000000       0x61 bin/obj/arm/exceptions/handlers/el1/el1_cur_spx_sync.o
 .debug_macro   0x0000000000000000       0x1c bin/obj/arm/exceptions/handlers/el1/el1_cur_spx_sync.o
 .debug_macro   0x0000000000000000       0x34 bin/obj/arm/exceptions/handlers/el1/el1_cur_spx_sync.o
 .debug_macro   0x0000000000000000       0x10 bin/obj/arm/exceptions/handlers/el1/el1_cur_spx_sync.o
 .group         0x0000000000000000        0xc bin/obj/arm/exceptions/handlers/el1/el1_cur_sp0_fiq.o
 .group         0x0000000000000000        0xc bin/obj/arm/exceptions/handlers/el1/el1_cur_sp0_fiq.o
 .group         0x0000000000000000        0xc bin/obj/arm/exceptions/handlers/el1/el1_cur_sp0_fiq.o
 .group         0x0000000000000000        0xc bin/obj/arm/exceptions/handlers/el1/el1_cur_sp0_fiq.o
 .group         0x0000000000000000        0xc bin/obj/arm/exceptions/handlers/el1/el1_cur_sp0_fiq.o
 .group         0x0000000000000000        0xc bin/obj/arm/exceptions/handlers/el1/el1_cur_sp0_fiq.o
 .group         0x0000000000000000        0xc bin/obj/arm/exceptions/handlers/el1/el1_cur_sp0_fiq.o
 .group         0x0000000000000000        0xc bin/obj/arm/exceptions/handlers/el1/el1_cur_sp0_fiq.o
 .debug_macro   0x0000000000000000      0xad8 bin/obj/arm/exceptions/handlers/el1/el1_cur_sp0_fiq.o
 .debug_macro   0x0000000000000000       0x1c bin/obj/arm/exceptions/handlers/el1/el1_cur_sp0_fiq.o
 .debug_macro   0x0000000000000000       0x82 bin/obj/arm/exceptions/handlers/el1/el1_cur_sp0_fiq.o
 .debug_macro   0x0000000000000000       0x10 bin/obj/arm/exceptions/handlers/el1/el1_cur_sp0_fiq.o
 .debug_macro   0x0000000000000000       0x61 bin/obj/arm/exceptions/handlers/el1/el1_cur_sp0_fiq.o
 .debug_macro   0x0000000000000000       0x1c bin/obj/arm/exceptions/handlers/el1/el1_cur_sp0_fiq.o
 .debug_macro   0x0000000000000000       0x34 bin/obj/arm/exceptions/handlers/el1/el1_cur_sp0_fiq.o
 .debug_macro   0x0000000000000000       0x10 bin/obj/arm/exceptions/handlers/el1/el1_cur_sp0_fiq.o
 .group         0x0000000000000000        0xc bin/obj/arm/exceptions/handlers/el1/el1_cur_sp0_serror.o
 .group         0x0000000000000000        0xc bin/obj/arm/exceptions/handlers/el1/el1_cur_sp0_serror.o
 .group         0x0000000000000000        0xc bin/obj/arm/exceptions/handlers/el1/el1_cur_sp0_serror.o
 .group         0x0000000000000000        0xc bin/obj/arm/exceptions/handlers/el1/el1_cur_sp0_serror.o
 .group         0x0000000000000000        0xc bin/obj/arm/exceptions/handlers/el1/el1_cur_sp0_serror.o
 .group         0x0000000000000000        0xc bin/obj/arm/exceptions/handlers/el1/el1_cur_sp0_serror.o
 .group         0x0000000000000000        0xc bin/obj/arm/exceptions/handlers/el1/el1_cur_sp0_serror.o
 .group         0x0000000000000000        0xc bin/obj/arm/exceptions/handlers/el1/el1_cur_sp0_serror.o
 .debug_macro   0x0000000000000000      0xad8 bin/obj/arm/exceptions/handlers/el1/el1_cur_sp0_serror.o
 .debug_macro   0x0000000000000000       0x1c bin/obj/arm/exceptions/handlers/el1/el1_cur_sp0_serror.o
 .debug_macro   0x0000000000000000       0x82 bin/obj/arm/exceptions/handlers/el1/el1_cur_sp0_serror.o
 .debug_macro   0x0000000000000000       0x10 bin/obj/arm/exceptions/handlers/el1/el1_cur_sp0_serror.o
 .debug_macro   0x0000000000000000       0x61 bin/obj/arm/exceptions/handlers/el1/el1_cur_sp0_serror.o
 .debug_macro   0x0000000000000000       0x1c bin/obj/arm/exceptions/handlers/el1/el1_cur_sp0_serror.o
 .debug_macro   0x0000000000000000       0x34 bin/obj/arm/exceptions/handlers/el1/el1_cur_sp0_serror.o
 .debug_macro   0x0000000000000000       0x10 bin/obj/arm/exceptions/handlers/el1/el1_cur_sp0_serror.o
 .group         0x0000000000000000        0xc bin/obj/arm/exceptions/handlers/el1/el1_cur_sp0_irq.o
 .group         0x0000000000000000        0xc bin/obj/arm/exceptions/handlers/el1/el1_cur_sp0_irq.o
 .group         0x0000000000000000        0xc bin/obj/arm/exceptions/handlers/el1/el1_cur_sp0_irq.o
 .group         0x0000000000000000        0xc bin/obj/arm/exceptions/handlers/el1/el1_cur_sp0_irq.o
 .group         0x0000000000000000        0xc bin/obj/arm/exceptions/handlers/el1/el1_cur_sp0_irq.o
 .group         0x0000000000000000        0xc bin/obj/arm/exceptions/handlers/el1/el1_cur_sp0_irq.o
 .group         0x0000000000000000        0xc bin/obj/arm/exceptions/handlers/el1/el1_cur_sp0_irq.o
 .group         0x0000000000000000        0xc bin/obj/arm/exceptions/handlers/el1/el1_cur_sp0_irq.o
 .debug_macro   0x0000000000000000      0xad8 bin/obj/arm/exceptions/handlers/el1/el1_cur_sp0_irq.o
 .debug_macro   0x0000000000000000       0x1c bin/obj/arm/exceptions/handlers/el1/el1_cur_sp0_irq.o
 .debug_macro   0x0000000000000000       0x82 bin/obj/arm/exceptions/handlers/el1/el1_cur_sp0_irq.o
 .debug_macro   0x0000000000000000       0x10 bin/obj/arm/exceptions/handlers/el1/el1_cur_sp0_irq.o
 .debug_macro   0x0000000000000000       0x61 bin/obj/arm/exceptions/handlers/el1/el1_cur_sp0_irq.o
 .debug_macro   0x0000000000000000       0x1c bin/obj/arm/exceptions/handlers/el1/el1_cur_sp0_irq.o
 .debug_macro   0x0000000000000000       0x34 bin/obj/arm/exceptions/handlers/el1/el1_cur_sp0_irq.o
 .debug_macro   0x0000000000000000       0x10 bin/obj/arm/exceptions/handlers/el1/el1_cur_sp0_irq.o
 .group         0x0000000000000000        0xc bin/obj/arm/exceptions/handlers/el2/el2_low_a32_serror.o
 .group         0x0000000000000000        0xc bin/obj/arm/exceptions/handlers/el2/el2_low_a32_serror.o
 .group         0x0000000000000000        0xc bin/obj/arm/exceptions/handlers/el2/el2_low_a32_serror.o
 .group         0x0000000000000000        0xc bin/obj/arm/exceptions/handlers/el2/el2_low_a32_serror.o
 .group         0x0000000000000000        0xc bin/obj/arm/exceptions/handlers/el2/el2_low_a32_serror.o
 .group         0x0000000000000000        0xc bin/obj/arm/exceptions/handlers/el2/el2_low_a32_serror.o
 .group         0x0000000000000000        0xc bin/obj/arm/exceptions/handlers/el2/el2_low_a32_serror.o
 .group         0x0000000000000000        0xc bin/obj/arm/exceptions/handlers/el2/el2_low_a32_serror.o
 .debug_macro   0x0000000000000000      0xad8 bin/obj/arm/exceptions/handlers/el2/el2_low_a32_serror.o
 .debug_macro   0x0000000000000000       0x1c bin/obj/arm/exceptions/handlers/el2/el2_low_a32_serror.o
 .debug_macro   0x0000000000000000       0x82 bin/obj/arm/exceptions/handlers/el2/el2_low_a32_serror.o
 .debug_macro   0x0000000000000000       0x10 bin/obj/arm/exceptions/handlers/el2/el2_low_a32_serror.o
 .debug_macro   0x0000000000000000       0x61 bin/obj/arm/exceptions/handlers/el2/el2_low_a32_serror.o
 .debug_macro   0x0000000000000000       0x1c bin/obj/arm/exceptions/handlers/el2/el2_low_a32_serror.o
 .debug_macro   0x0000000000000000       0x34 bin/obj/arm/exceptions/handlers/el2/el2_low_a32_serror.o
 .debug_macro   0x0000000000000000       0x10 bin/obj/arm/exceptions/handlers/el2/el2_low_a32_serror.o
 .group         0x0000000000000000        0xc bin/obj/arm/exceptions/handlers/el2/el2_cur_spx_serror.o
 .group         0x0000000000000000        0xc bin/obj/arm/exceptions/handlers/el2/el2_cur_spx_serror.o
 .group         0x0000000000000000        0xc bin/obj/arm/exceptions/handlers/el2/el2_cur_spx_serror.o
 .group         0x0000000000000000        0xc bin/obj/arm/exceptions/handlers/el2/el2_cur_spx_serror.o
 .group         0x0000000000000000        0xc bin/obj/arm/exceptions/handlers/el2/el2_cur_spx_serror.o
 .group         0x0000000000000000        0xc bin/obj/arm/exceptions/handlers/el2/el2_cur_spx_serror.o
 .group         0x0000000000000000        0xc bin/obj/arm/exceptions/handlers/el2/el2_cur_spx_serror.o
 .group         0x0000000000000000        0xc bin/obj/arm/exceptions/handlers/el2/el2_cur_spx_serror.o
 .debug_macro   0x0000000000000000      0xad8 bin/obj/arm/exceptions/handlers/el2/el2_cur_spx_serror.o
 .debug_macro   0x0000000000000000       0x1c bin/obj/arm/exceptions/handlers/el2/el2_cur_spx_serror.o
 .debug_macro   0x0000000000000000       0x82 bin/obj/arm/exceptions/handlers/el2/el2_cur_spx_serror.o
 .debug_macro   0x0000000000000000       0x10 bin/obj/arm/exceptions/handlers/el2/el2_cur_spx_serror.o
 .debug_macro   0x0000000000000000       0x61 bin/obj/arm/exceptions/handlers/el2/el2_cur_spx_serror.o
 .debug_macro   0x0000000000000000       0x1c bin/obj/arm/exceptions/handlers/el2/el2_cur_spx_serror.o
 .debug_macro   0x0000000000000000       0x34 bin/obj/arm/exceptions/handlers/el2/el2_cur_spx_serror.o
 .debug_macro   0x0000000000000000       0x10 bin/obj/arm/exceptions/handlers/el2/el2_cur_spx_serror.o
 .group         0x0000000000000000        0xc bin/obj/arm/exceptions/handlers/el2/el2_low_a64_serror.o
 .group         0x0000000000000000        0xc bin/obj/arm/exceptions/handlers/el2/el2_low_a64_serror.o
 .group         0x0000000000000000        0xc bin/obj/arm/exceptions/handlers/el2/el2_low_a64_serror.o
 .group         0x0000000000000000        0xc bin/obj/arm/exceptions/handlers/el2/el2_low_a64_serror.o
 .group         0x0000000000000000        0xc bin/obj/arm/exceptions/handlers/el2/el2_low_a64_serror.o
 .group         0x0000000000000000        0xc bin/obj/arm/exceptions/handlers/el2/el2_low_a64_serror.o
 .group         0x0000000000000000        0xc bin/obj/arm/exceptions/handlers/el2/el2_low_a64_serror.o
 .group         0x0000000000000000        0xc bin/obj/arm/exceptions/handlers/el2/el2_low_a64_serror.o
 .debug_macro   0x0000000000000000      0xad8 bin/obj/arm/exceptions/handlers/el2/el2_low_a64_serror.o
 .debug_macro   0x0000000000000000       0x1c bin/obj/arm/exceptions/handlers/el2/el2_low_a64_serror.o
 .debug_macro   0x0000000000000000       0x82 bin/obj/arm/exceptions/handlers/el2/el2_low_a64_serror.o
 .debug_macro   0x0000000000000000       0x10 bin/obj/arm/exceptions/handlers/el2/el2_low_a64_serror.o
 .debug_macro   0x0000000000000000       0x61 bin/obj/arm/exceptions/handlers/el2/el2_low_a64_serror.o
 .debug_macro   0x0000000000000000       0x1c bin/obj/arm/exceptions/handlers/el2/el2_low_a64_serror.o
 .debug_macro   0x0000000000000000       0x34 bin/obj/arm/exceptions/handlers/el2/el2_low_a64_serror.o
 .debug_macro   0x0000000000000000       0x10 bin/obj/arm/exceptions/handlers/el2/el2_low_a64_serror.o
 .group         0x0000000000000000        0xc bin/obj/arm/exceptions/handlers/el2/el2_low_a64_sync.o
 .group         0x0000000000000000        0xc bin/obj/arm/exceptions/handlers/el2/el2_low_a64_sync.o
 .group         0x0000000000000000        0xc bin/obj/arm/exceptions/handlers/el2/el2_low_a64_sync.o
 .group         0x0000000000000000        0xc bin/obj/arm/exceptions/handlers/el2/el2_low_a64_sync.o
 .group         0x0000000000000000        0xc bin/obj/arm/exceptions/handlers/el2/el2_low_a64_sync.o
 .group         0x0000000000000000        0xc bin/obj/arm/exceptions/handlers/el2/el2_low_a64_sync.o
 .group         0x0000000000000000        0xc bin/obj/arm/exceptions/handlers/el2/el2_low_a64_sync.o
 .group         0x0000000000000000        0xc bin/obj/arm/exceptions/handlers/el2/el2_low_a64_sync.o
 .debug_macro   0x0000000000000000      0xad8 bin/obj/arm/exceptions/handlers/el2/el2_low_a64_sync.o
 .debug_macro   0x0000000000000000       0x1c bin/obj/arm/exceptions/handlers/el2/el2_low_a64_sync.o
 .debug_macro   0x0000000000000000       0x82 bin/obj/arm/exceptions/handlers/el2/el2_low_a64_sync.o
 .debug_macro   0x0000000000000000       0x10 bin/obj/arm/exceptions/handlers/el2/el2_low_a64_sync.o
 .debug_macro   0x0000000000000000       0x61 bin/obj/arm/exceptions/handlers/el2/el2_low_a64_sync.o
 .debug_macro   0x0000000000000000       0x1c bin/obj/arm/exceptions/handlers/el2/el2_low_a64_sync.o
 .debug_macro   0x0000000000000000       0x34 bin/obj/arm/exceptions/handlers/el2/el2_low_a64_sync.o
 .debug_macro   0x0000000000000000       0x10 bin/obj/arm/exceptions/handlers/el2/el2_low_a64_sync.o
 .group         0x0000000000000000        0xc bin/obj/arm/exceptions/handlers/el2/el2_cur_sp0_irq.o
 .group         0x0000000000000000        0xc bin/obj/arm/exceptions/handlers/el2/el2_cur_sp0_irq.o
 .group         0x0000000000000000        0xc bin/obj/arm/exceptions/handlers/el2/el2_cur_sp0_irq.o
 .group         0x0000000000000000        0xc bin/obj/arm/exceptions/handlers/el2/el2_cur_sp0_irq.o
 .group         0x0000000000000000        0xc bin/obj/arm/exceptions/handlers/el2/el2_cur_sp0_irq.o
 .group         0x0000000000000000        0xc bin/obj/arm/exceptions/handlers/el2/el2_cur_sp0_irq.o
 .group         0x0000000000000000        0xc bin/obj/arm/exceptions/handlers/el2/el2_cur_sp0_irq.o
 .group         0x0000000000000000        0xc bin/obj/arm/exceptions/handlers/el2/el2_cur_sp0_irq.o
 .debug_macro   0x0000000000000000      0xad8 bin/obj/arm/exceptions/handlers/el2/el2_cur_sp0_irq.o
 .debug_macro   0x0000000000000000       0x1c bin/obj/arm/exceptions/handlers/el2/el2_cur_sp0_irq.o
 .debug_macro   0x0000000000000000       0x82 bin/obj/arm/exceptions/handlers/el2/el2_cur_sp0_irq.o
 .debug_macro   0x0000000000000000       0x10 bin/obj/arm/exceptions/handlers/el2/el2_cur_sp0_irq.o
 .debug_macro   0x0000000000000000       0x61 bin/obj/arm/exceptions/handlers/el2/el2_cur_sp0_irq.o
 .debug_macro   0x0000000000000000       0x1c bin/obj/arm/exceptions/handlers/el2/el2_cur_sp0_irq.o
 .debug_macro   0x0000000000000000       0x34 bin/obj/arm/exceptions/handlers/el2/el2_cur_sp0_irq.o
 .debug_macro   0x0000000000000000       0x10 bin/obj/arm/exceptions/handlers/el2/el2_cur_sp0_irq.o
 .group         0x0000000000000000        0xc bin/obj/arm/exceptions/handlers/el2/el2_cur_sp0_serror.o
 .group         0x0000000000000000        0xc bin/obj/arm/exceptions/handlers/el2/el2_cur_sp0_serror.o
 .group         0x0000000000000000        0xc bin/obj/arm/exceptions/handlers/el2/el2_cur_sp0_serror.o
 .group         0x0000000000000000        0xc bin/obj/arm/exceptions/handlers/el2/el2_cur_sp0_serror.o
 .group         0x0000000000000000        0xc bin/obj/arm/exceptions/handlers/el2/el2_cur_sp0_serror.o
 .group         0x0000000000000000        0xc bin/obj/arm/exceptions/handlers/el2/el2_cur_sp0_serror.o
 .group         0x0000000000000000        0xc bin/obj/arm/exceptions/handlers/el2/el2_cur_sp0_serror.o
 .group         0x0000000000000000        0xc bin/obj/arm/exceptions/handlers/el2/el2_cur_sp0_serror.o
 .debug_macro   0x0000000000000000      0xad8 bin/obj/arm/exceptions/handlers/el2/el2_cur_sp0_serror.o
 .debug_macro   0x0000000000000000       0x1c bin/obj/arm/exceptions/handlers/el2/el2_cur_sp0_serror.o
 .debug_macro   0x0000000000000000       0x82 bin/obj/arm/exceptions/handlers/el2/el2_cur_sp0_serror.o
 .debug_macro   0x0000000000000000       0x10 bin/obj/arm/exceptions/handlers/el2/el2_cur_sp0_serror.o
 .debug_macro   0x0000000000000000       0x61 bin/obj/arm/exceptions/handlers/el2/el2_cur_sp0_serror.o
 .debug_macro   0x0000000000000000       0x1c bin/obj/arm/exceptions/handlers/el2/el2_cur_sp0_serror.o
 .debug_macro   0x0000000000000000       0x34 bin/obj/arm/exceptions/handlers/el2/el2_cur_sp0_serror.o
 .debug_macro   0x0000000000000000       0x10 bin/obj/arm/exceptions/handlers/el2/el2_cur_sp0_serror.o
 .group         0x0000000000000000        0xc bin/obj/arm/exceptions/handlers/el2/el2_low_a64_irq.o
 .group         0x0000000000000000        0xc bin/obj/arm/exceptions/handlers/el2/el2_low_a64_irq.o
 .group         0x0000000000000000        0xc bin/obj/arm/exceptions/handlers/el2/el2_low_a64_irq.o
 .group         0x0000000000000000        0xc bin/obj/arm/exceptions/handlers/el2/el2_low_a64_irq.o
 .group         0x0000000000000000        0xc bin/obj/arm/exceptions/handlers/el2/el2_low_a64_irq.o
 .group         0x0000000000000000        0xc bin/obj/arm/exceptions/handlers/el2/el2_low_a64_irq.o
 .group         0x0000000000000000        0xc bin/obj/arm/exceptions/handlers/el2/el2_low_a64_irq.o
 .group         0x0000000000000000        0xc bin/obj/arm/exceptions/handlers/el2/el2_low_a64_irq.o
 .debug_macro   0x0000000000000000      0xad8 bin/obj/arm/exceptions/handlers/el2/el2_low_a64_irq.o
 .debug_macro   0x0000000000000000       0x1c bin/obj/arm/exceptions/handlers/el2/el2_low_a64_irq.o
 .debug_macro   0x0000000000000000       0x82 bin/obj/arm/exceptions/handlers/el2/el2_low_a64_irq.o
 .debug_macro   0x0000000000000000       0x10 bin/obj/arm/exceptions/handlers/el2/el2_low_a64_irq.o
 .debug_macro   0x0000000000000000       0x61 bin/obj/arm/exceptions/handlers/el2/el2_low_a64_irq.o
 .debug_macro   0x0000000000000000       0x1c bin/obj/arm/exceptions/handlers/el2/el2_low_a64_irq.o
 .debug_macro   0x0000000000000000       0x34 bin/obj/arm/exceptions/handlers/el2/el2_low_a64_irq.o
 .debug_macro   0x0000000000000000       0x10 bin/obj/arm/exceptions/handlers/el2/el2_low_a64_irq.o
 .group         0x0000000000000000        0xc bin/obj/arm/exceptions/handlers/el2/el2_low_a64_fiq.o
 .group         0x0000000000000000        0xc bin/obj/arm/exceptions/handlers/el2/el2_low_a64_fiq.o
 .group         0x0000000000000000        0xc bin/obj/arm/exceptions/handlers/el2/el2_low_a64_fiq.o
 .group         0x0000000000000000        0xc bin/obj/arm/exceptions/handlers/el2/el2_low_a64_fiq.o
 .group         0x0000000000000000        0xc bin/obj/arm/exceptions/handlers/el2/el2_low_a64_fiq.o
 .group         0x0000000000000000        0xc bin/obj/arm/exceptions/handlers/el2/el2_low_a64_fiq.o
 .group         0x0000000000000000        0xc bin/obj/arm/exceptions/handlers/el2/el2_low_a64_fiq.o
 .group         0x0000000000000000        0xc bin/obj/arm/exceptions/handlers/el2/el2_low_a64_fiq.o
 .debug_macro   0x0000000000000000      0xad8 bin/obj/arm/exceptions/handlers/el2/el2_low_a64_fiq.o
 .debug_macro   0x0000000000000000       0x1c bin/obj/arm/exceptions/handlers/el2/el2_low_a64_fiq.o
 .debug_macro   0x0000000000000000       0x82 bin/obj/arm/exceptions/handlers/el2/el2_low_a64_fiq.o
 .debug_macro   0x0000000000000000       0x10 bin/obj/arm/exceptions/handlers/el2/el2_low_a64_fiq.o
 .debug_macro   0x0000000000000000       0x61 bin/obj/arm/exceptions/handlers/el2/el2_low_a64_fiq.o
 .debug_macro   0x0000000000000000       0x1c bin/obj/arm/exceptions/handlers/el2/el2_low_a64_fiq.o
 .debug_macro   0x0000000000000000       0x34 bin/obj/arm/exceptions/handlers/el2/el2_low_a64_fiq.o
 .debug_macro   0x0000000000000000       0x10 bin/obj/arm/exceptions/handlers/el2/el2_low_a64_fiq.o
 .group         0x0000000000000000        0xc bin/obj/arm/exceptions/handlers/el2/el2_cur_spx_fiq.o
 .group         0x0000000000000000        0xc bin/obj/arm/exceptions/handlers/el2/el2_cur_spx_fiq.o
 .group         0x0000000000000000        0xc bin/obj/arm/exceptions/handlers/el2/el2_cur_spx_fiq.o
 .group         0x0000000000000000        0xc bin/obj/arm/exceptions/handlers/el2/el2_cur_spx_fiq.o
 .group         0x0000000000000000        0xc bin/obj/arm/exceptions/handlers/el2/el2_cur_spx_fiq.o
 .group         0x0000000000000000        0xc bin/obj/arm/exceptions/handlers/el2/el2_cur_spx_fiq.o
 .group         0x0000000000000000        0xc bin/obj/arm/exceptions/handlers/el2/el2_cur_spx_fiq.o
 .group         0x0000000000000000        0xc bin/obj/arm/exceptions/handlers/el2/el2_cur_spx_fiq.o
 .debug_macro   0x0000000000000000      0xad8 bin/obj/arm/exceptions/handlers/el2/el2_cur_spx_fiq.o
 .debug_macro   0x0000000000000000       0x1c bin/obj/arm/exceptions/handlers/el2/el2_cur_spx_fiq.o
 .debug_macro   0x0000000000000000       0x82 bin/obj/arm/exceptions/handlers/el2/el2_cur_spx_fiq.o
 .debug_macro   0x0000000000000000       0x10 bin/obj/arm/exceptions/handlers/el2/el2_cur_spx_fiq.o
 .debug_macro   0x0000000000000000       0x61 bin/obj/arm/exceptions/handlers/el2/el2_cur_spx_fiq.o
 .debug_macro   0x0000000000000000       0x1c bin/obj/arm/exceptions/handlers/el2/el2_cur_spx_fiq.o
 .debug_macro   0x0000000000000000       0x34 bin/obj/arm/exceptions/handlers/el2/el2_cur_spx_fiq.o
 .debug_macro   0x0000000000000000       0x10 bin/obj/arm/exceptions/handlers/el2/el2_cur_spx_fiq.o
 .group         0x0000000000000000        0xc bin/obj/arm/exceptions/handlers/el2/el2_low_a32_irq.o
 .group         0x0000000000000000        0xc bin/obj/arm/exceptions/handlers/el2/el2_low_a32_irq.o
 .group         0x0000000000000000        0xc bin/obj/arm/exceptions/handlers/el2/el2_low_a32_irq.o
 .group         0x0000000000000000        0xc bin/obj/arm/exceptions/handlers/el2/el2_low_a32_irq.o
 .group         0x0000000000000000        0xc bin/obj/arm/exceptions/handlers/el2/el2_low_a32_irq.o
 .group         0x0000000000000000        0xc bin/obj/arm/exceptions/handlers/el2/el2_low_a32_irq.o
 .group         0x0000000000000000        0xc bin/obj/arm/exceptions/handlers/el2/el2_low_a32_irq.o
 .group         0x0000000000000000        0xc bin/obj/arm/exceptions/handlers/el2/el2_low_a32_irq.o
 .debug_macro   0x0000000000000000      0xad8 bin/obj/arm/exceptions/handlers/el2/el2_low_a32_irq.o
 .debug_macro   0x0000000000000000       0x1c bin/obj/arm/exceptions/handlers/el2/el2_low_a32_irq.o
 .debug_macro   0x0000000000000000       0x82 bin/obj/arm/exceptions/handlers/el2/el2_low_a32_irq.o
 .debug_macro   0x0000000000000000       0x10 bin/obj/arm/exceptions/handlers/el2/el2_low_a32_irq.o
 .debug_macro   0x0000000000000000       0x61 bin/obj/arm/exceptions/handlers/el2/el2_low_a32_irq.o
 .debug_macro   0x0000000000000000       0x1c bin/obj/arm/exceptions/handlers/el2/el2_low_a32_irq.o
 .debug_macro   0x0000000000000000       0x34 bin/obj/arm/exceptions/handlers/el2/el2_low_a32_irq.o
 .debug_macro   0x0000000000000000       0x10 bin/obj/arm/exceptions/handlers/el2/el2_low_a32_irq.o
 .group         0x0000000000000000        0xc bin/obj/arm/exceptions/handlers/el2/el2_cur_sp0_fiq.o
 .group         0x0000000000000000        0xc bin/obj/arm/exceptions/handlers/el2/el2_cur_sp0_fiq.o
 .group         0x0000000000000000        0xc bin/obj/arm/exceptions/handlers/el2/el2_cur_sp0_fiq.o
 .group         0x0000000000000000        0xc bin/obj/arm/exceptions/handlers/el2/el2_cur_sp0_fiq.o
 .group         0x0000000000000000        0xc bin/obj/arm/exceptions/handlers/el2/el2_cur_sp0_fiq.o
 .group         0x0000000000000000        0xc bin/obj/arm/exceptions/handlers/el2/el2_cur_sp0_fiq.o
 .group         0x0000000000000000        0xc bin/obj/arm/exceptions/handlers/el2/el2_cur_sp0_fiq.o
 .group         0x0000000000000000        0xc bin/obj/arm/exceptions/handlers/el2/el2_cur_sp0_fiq.o
 .debug_macro   0x0000000000000000      0xad8 bin/obj/arm/exceptions/handlers/el2/el2_cur_sp0_fiq.o
 .debug_macro   0x0000000000000000       0x1c bin/obj/arm/exceptions/handlers/el2/el2_cur_sp0_fiq.o
 .debug_macro   0x0000000000000000       0x82 bin/obj/arm/exceptions/handlers/el2/el2_cur_sp0_fiq.o
 .debug_macro   0x0000000000000000       0x10 bin/obj/arm/exceptions/handlers/el2/el2_cur_sp0_fiq.o
 .debug_macro   0x0000000000000000       0x61 bin/obj/arm/exceptions/handlers/el2/el2_cur_sp0_fiq.o
 .debug_macro   0x0000000000000000       0x1c bin/obj/arm/exceptions/handlers/el2/el2_cur_sp0_fiq.o
 .debug_macro   0x0000000000000000       0x34 bin/obj/arm/exceptions/handlers/el2/el2_cur_sp0_fiq.o
 .debug_macro   0x0000000000000000       0x10 bin/obj/arm/exceptions/handlers/el2/el2_cur_sp0_fiq.o
 .group         0x0000000000000000        0xc bin/obj/arm/exceptions/handlers/el2/el2_low_a32_fiq.o
 .group         0x0000000000000000        0xc bin/obj/arm/exceptions/handlers/el2/el2_low_a32_fiq.o
 .group         0x0000000000000000        0xc bin/obj/arm/exceptions/handlers/el2/el2_low_a32_fiq.o
 .group         0x0000000000000000        0xc bin/obj/arm/exceptions/handlers/el2/el2_low_a32_fiq.o
 .group         0x0000000000000000        0xc bin/obj/arm/exceptions/handlers/el2/el2_low_a32_fiq.o
 .group         0x0000000000000000        0xc bin/obj/arm/exceptions/handlers/el2/el2_low_a32_fiq.o
 .group         0x0000000000000000        0xc bin/obj/arm/exceptions/handlers/el2/el2_low_a32_fiq.o
 .group         0x0000000000000000        0xc bin/obj/arm/exceptions/handlers/el2/el2_low_a32_fiq.o
 .debug_macro   0x0000000000000000      0xad8 bin/obj/arm/exceptions/handlers/el2/el2_low_a32_fiq.o
 .debug_macro   0x0000000000000000       0x1c bin/obj/arm/exceptions/handlers/el2/el2_low_a32_fiq.o
 .debug_macro   0x0000000000000000       0x82 bin/obj/arm/exceptions/handlers/el2/el2_low_a32_fiq.o
 .debug_macro   0x0000000000000000       0x10 bin/obj/arm/exceptions/handlers/el2/el2_low_a32_fiq.o
 .debug_macro   0x0000000000000000       0x61 bin/obj/arm/exceptions/handlers/el2/el2_low_a32_fiq.o
 .debug_macro   0x0000000000000000       0x1c bin/obj/arm/exceptions/handlers/el2/el2_low_a32_fiq.o
 .debug_macro   0x0000000000000000       0x34 bin/obj/arm/exceptions/handlers/el2/el2_low_a32_fiq.o
 .debug_macro   0x0000000000000000       0x10 bin/obj/arm/exceptions/handlers/el2/el2_low_a32_fiq.o
 .group         0x0000000000000000        0xc bin/obj/arm/exceptions/handlers/el2/el2_cur_spx_sync.o
 .group         0x0000000000000000        0xc bin/obj/arm/exceptions/handlers/el2/el2_cur_spx_sync.o
 .group         0x0000000000000000        0xc bin/obj/arm/exceptions/handlers/el2/el2_cur_spx_sync.o
 .group         0x0000000000000000        0xc bin/obj/arm/exceptions/handlers/el2/el2_cur_spx_sync.o
 .group         0x0000000000000000        0xc bin/obj/arm/exceptions/handlers/el2/el2_cur_spx_sync.o
 .group         0x0000000000000000        0xc bin/obj/arm/exceptions/handlers/el2/el2_cur_spx_sync.o
 .group         0x0000000000000000        0xc bin/obj/arm/exceptions/handlers/el2/el2_cur_spx_sync.o
 .group         0x0000000000000000        0xc bin/obj/arm/exceptions/handlers/el2/el2_cur_spx_sync.o
 .debug_macro   0x0000000000000000      0xad8 bin/obj/arm/exceptions/handlers/el2/el2_cur_spx_sync.o
 .debug_macro   0x0000000000000000       0x1c bin/obj/arm/exceptions/handlers/el2/el2_cur_spx_sync.o
 .debug_macro   0x0000000000000000       0x82 bin/obj/arm/exceptions/handlers/el2/el2_cur_spx_sync.o
 .debug_macro   0x0000000000000000       0x10 bin/obj/arm/exceptions/handlers/el2/el2_cur_spx_sync.o
 .debug_macro   0x0000000000000000       0x61 bin/obj/arm/exceptions/handlers/el2/el2_cur_spx_sync.o
 .debug_macro   0x0000000000000000       0x1c bin/obj/arm/exceptions/handlers/el2/el2_cur_spx_sync.o
 .debug_macro   0x0000000000000000       0x34 bin/obj/arm/exceptions/handlers/el2/el2_cur_spx_sync.o
 .debug_macro   0x0000000000000000       0x10 bin/obj/arm/exceptions/handlers/el2/el2_cur_spx_sync.o
 .group         0x0000000000000000        0xc bin/obj/arm/exceptions/handlers/el2/el2_low_a32_sync.o
 .group         0x0000000000000000        0xc bin/obj/arm/exceptions/handlers/el2/el2_low_a32_sync.o
 .group         0x0000000000000000        0xc bin/obj/arm/exceptions/handlers/el2/el2_low_a32_sync.o
 .group         0x0000000000000000        0xc bin/obj/arm/exceptions/handlers/el2/el2_low_a32_sync.o
 .group         0x0000000000000000        0xc bin/obj/arm/exceptions/handlers/el2/el2_low_a32_sync.o
 .group         0x0000000000000000        0xc bin/obj/arm/exceptions/handlers/el2/el2_low_a32_sync.o
 .group         0x0000000000000000        0xc bin/obj/arm/exceptions/handlers/el2/el2_low_a32_sync.o
 .group         0x0000000000000000        0xc bin/obj/arm/exceptions/handlers/el2/el2_low_a32_sync.o
 .debug_macro   0x0000000000000000      0xad8 bin/obj/arm/exceptions/handlers/el2/el2_low_a32_sync.o
 .debug_macro   0x0000000000000000       0x1c bin/obj/arm/exceptions/handlers/el2/el2_low_a32_sync.o
 .debug_macro   0x0000000000000000       0x82 bin/obj/arm/exceptions/handlers/el2/el2_low_a32_sync.o
 .debug_macro   0x0000000000000000       0x10 bin/obj/arm/exceptions/handlers/el2/el2_low_a32_sync.o
 .debug_macro   0x0000000000000000       0x61 bin/obj/arm/exceptions/handlers/el2/el2_low_a32_sync.o
 .debug_macro   0x0000000000000000       0x1c bin/obj/arm/exceptions/handlers/el2/el2_low_a32_sync.o
 .debug_macro   0x0000000000000000       0x34 bin/obj/arm/exceptions/handlers/el2/el2_low_a32_sync.o
 .debug_macro   0x0000000000000000       0x10 bin/obj/arm/exceptions/handlers/el2/el2_low_a32_sync.o
 .group         0x0000000000000000        0xc bin/obj/arm/exceptions/handlers/el2/el2_cur_sp0_sync.o
 .group         0x0000000000000000        0xc bin/obj/arm/exceptions/handlers/el2/el2_cur_sp0_sync.o
 .group         0x0000000000000000        0xc bin/obj/arm/exceptions/handlers/el2/el2_cur_sp0_sync.o
 .group         0x0000000000000000        0xc bin/obj/arm/exceptions/handlers/el2/el2_cur_sp0_sync.o
 .group         0x0000000000000000        0xc bin/obj/arm/exceptions/handlers/el2/el2_cur_sp0_sync.o
 .group         0x0000000000000000        0xc bin/obj/arm/exceptions/handlers/el2/el2_cur_sp0_sync.o
 .group         0x0000000000000000        0xc bin/obj/arm/exceptions/handlers/el2/el2_cur_sp0_sync.o
 .group         0x0000000000000000        0xc bin/obj/arm/exceptions/handlers/el2/el2_cur_sp0_sync.o
 .debug_macro   0x0000000000000000      0xad8 bin/obj/arm/exceptions/handlers/el2/el2_cur_sp0_sync.o
 .debug_macro   0x0000000000000000       0x1c bin/obj/arm/exceptions/handlers/el2/el2_cur_sp0_sync.o
 .debug_macro   0x0000000000000000       0x82 bin/obj/arm/exceptions/handlers/el2/el2_cur_sp0_sync.o
 .debug_macro   0x0000000000000000       0x10 bin/obj/arm/exceptions/handlers/el2/el2_cur_sp0_sync.o
 .debug_macro   0x0000000000000000       0x61 bin/obj/arm/exceptions/handlers/el2/el2_cur_sp0_sync.o
 .debug_macro   0x0000000000000000       0x1c bin/obj/arm/exceptions/handlers/el2/el2_cur_sp0_sync.o
 .debug_macro   0x0000000000000000       0x34 bin/obj/arm/exceptions/handlers/el2/el2_cur_sp0_sync.o
 .debug_macro   0x0000000000000000       0x10 bin/obj/arm/exceptions/handlers/el2/el2_cur_sp0_sync.o
 .group         0x0000000000000000        0xc bin/obj/arm/exceptions/handlers/el2/el2_cur_spx_irq.o
 .group         0x0000000000000000        0xc bin/obj/arm/exceptions/handlers/el2/el2_cur_spx_irq.o
 .group         0x0000000000000000        0xc bin/obj/arm/exceptions/handlers/el2/el2_cur_spx_irq.o
 .group         0x0000000000000000        0xc bin/obj/arm/exceptions/handlers/el2/el2_cur_spx_irq.o
 .group         0x0000000000000000        0xc bin/obj/arm/exceptions/handlers/el2/el2_cur_spx_irq.o
 .group         0x0000000000000000        0xc bin/obj/arm/exceptions/handlers/el2/el2_cur_spx_irq.o
 .group         0x0000000000000000        0xc bin/obj/arm/exceptions/handlers/el2/el2_cur_spx_irq.o
 .group         0x0000000000000000        0xc bin/obj/arm/exceptions/handlers/el2/el2_cur_spx_irq.o
 .debug_macro   0x0000000000000000      0xad8 bin/obj/arm/exceptions/handlers/el2/el2_cur_spx_irq.o
 .debug_macro   0x0000000000000000       0x1c bin/obj/arm/exceptions/handlers/el2/el2_cur_spx_irq.o
 .debug_macro   0x0000000000000000       0x82 bin/obj/arm/exceptions/handlers/el2/el2_cur_spx_irq.o
 .debug_macro   0x0000000000000000       0x10 bin/obj/arm/exceptions/handlers/el2/el2_cur_spx_irq.o
 .debug_macro   0x0000000000000000       0x61 bin/obj/arm/exceptions/handlers/el2/el2_cur_spx_irq.o
 .debug_macro   0x0000000000000000       0x1c bin/obj/arm/exceptions/handlers/el2/el2_cur_spx_irq.o
 .debug_macro   0x0000000000000000       0x34 bin/obj/arm/exceptions/handlers/el2/el2_cur_spx_irq.o
 .debug_macro   0x0000000000000000       0x10 bin/obj/arm/exceptions/handlers/el2/el2_cur_spx_irq.o
 .group         0x0000000000000000        0xc bin/obj/arm/exceptions/handlers/exception_macros.o
 .group         0x0000000000000000        0xc bin/obj/arm/exceptions/handlers/exception_macros.o
 .group         0x0000000000000000        0xc bin/obj/arm/exceptions/handlers/exception_macros.o
 .group         0x0000000000000000        0xc bin/obj/arm/exceptions/handlers/exception_macros.o
 .group         0x0000000000000000        0xc bin/obj/arm/exceptions/handlers/exception_macros.o
 .group         0x0000000000000000        0xc bin/obj/arm/exceptions/handlers/exception_macros.o
 .group         0x0000000000000000        0xc bin/obj/arm/exceptions/handlers/exception_macros.o
 .group         0x0000000000000000        0xc bin/obj/arm/exceptions/handlers/exception_macros.o
 .debug_macro   0x0000000000000000      0xad8 bin/obj/arm/exceptions/handlers/exception_macros.o
 .debug_macro   0x0000000000000000       0x1c bin/obj/arm/exceptions/handlers/exception_macros.o
 .debug_macro   0x0000000000000000       0x82 bin/obj/arm/exceptions/handlers/exception_macros.o
 .debug_macro   0x0000000000000000       0x10 bin/obj/arm/exceptions/handlers/exception_macros.o
 .debug_macro   0x0000000000000000       0x61 bin/obj/arm/exceptions/handlers/exception_macros.o
 .debug_macro   0x0000000000000000       0x1c bin/obj/arm/exceptions/handlers/exception_macros.o
 .debug_macro   0x0000000000000000       0x34 bin/obj/arm/exceptions/handlers/exception_macros.o
 .debug_macro   0x0000000000000000       0x10 bin/obj/arm/exceptions/handlers/exception_macros.o
 .group         0x0000000000000000        0xc bin/obj/arm/exceptions/exceptions.o
 .group         0x0000000000000000        0xc bin/obj/arm/exceptions/exceptions.o
 .group         0x0000000000000000        0xc bin/obj/arm/exceptions/exceptions.o
 .group         0x0000000000000000        0xc bin/obj/arm/exceptions/exceptions.o
 .group         0x0000000000000000        0xc bin/obj/arm/exceptions/exceptions.o
 .debug_macro   0x0000000000000000      0xad8 bin/obj/arm/exceptions/exceptions.o
 .debug_macro   0x0000000000000000       0x1c bin/obj/arm/exceptions/exceptions.o
 .debug_macro   0x0000000000000000       0x82 bin/obj/arm/exceptions/exceptions.o
 .debug_macro   0x0000000000000000       0x10 bin/obj/arm/exceptions/exceptions.o
 .debug_macro   0x0000000000000000       0x61 bin/obj/arm/exceptions/exceptions.o
 .group         0x0000000000000000        0xc bin/obj/arm/mmu/regs/mmu_sysregs.o
 .group         0x0000000000000000        0xc bin/obj/arm/mmu/regs/mmu_sysregs.o
 .group         0x0000000000000000        0xc bin/obj/arm/mmu/regs/mmu_sysregs.o
 .group         0x0000000000000000        0xc bin/obj/arm/mmu/regs/mmu_sysregs.o
 .group         0x0000000000000000        0xc bin/obj/arm/mmu/regs/mmu_sysregs.o
 .group         0x0000000000000000        0xc bin/obj/arm/mmu/regs/mmu_sysregs.o
 .group         0x0000000000000000        0xc bin/obj/arm/mmu/regs/mmu_sysregs.o
 .group         0x0000000000000000        0xc bin/obj/arm/mmu/regs/mmu_sysregs.o
 .debug_macro   0x0000000000000000      0xad8 bin/obj/arm/mmu/regs/mmu_sysregs.o
 .debug_macro   0x0000000000000000       0x82 bin/obj/arm/mmu/regs/mmu_sysregs.o
 .debug_macro   0x0000000000000000       0x1c bin/obj/arm/mmu/regs/mmu_sysregs.o
 .debug_macro   0x0000000000000000       0x22 bin/obj/arm/mmu/regs/mmu_sysregs.o
 .debug_macro   0x0000000000000000       0x10 bin/obj/arm/mmu/regs/mmu_sysregs.o
 .debug_macro   0x0000000000000000       0x61 bin/obj/arm/mmu/regs/mmu_sysregs.o
 .debug_macro   0x0000000000000000       0x22 bin/obj/arm/mmu/regs/mmu_sysregs.o
 .debug_macro   0x0000000000000000       0x28 bin/obj/arm/mmu/regs/mmu_sysregs.o
 .group         0x0000000000000000        0xc bin/obj/arm/mmu/mmu_debugging.o
 .group         0x0000000000000000        0xc bin/obj/arm/mmu/mmu_debugging.o
 .group         0x0000000000000000        0xc bin/obj/arm/mmu/mmu_debugging.o
 .group         0x0000000000000000        0xc bin/obj/arm/mmu/mmu_debugging.o
 .group         0x0000000000000000        0xc bin/obj/arm/mmu/mmu_debugging.o
 .group         0x0000000000000000        0xc bin/obj/arm/mmu/mmu_debugging.o
 .group         0x0000000000000000        0xc bin/obj/arm/mmu/mmu_debugging.o
 .group         0x0000000000000000        0xc bin/obj/arm/mmu/mmu_debugging.o
 .group         0x0000000000000000        0xc bin/obj/arm/mmu/mmu_debugging.o
 .group         0x0000000000000000        0xc bin/obj/arm/mmu/mmu_debugging.o
 .group         0x0000000000000000        0xc bin/obj/arm/mmu/mmu_debugging.o
 .group         0x0000000000000000        0xc bin/obj/arm/mmu/mmu_debugging.o
 .group         0x0000000000000000        0xc bin/obj/arm/mmu/mmu_debugging.o
 .debug_macro   0x0000000000000000      0xad8 bin/obj/arm/mmu/mmu_debugging.o
 .debug_macro   0x0000000000000000       0x1c bin/obj/arm/mmu/mmu_debugging.o
 .debug_macro   0x0000000000000000       0x82 bin/obj/arm/mmu/mmu_debugging.o
 .debug_macro   0x0000000000000000       0x22 bin/obj/arm/mmu/mmu_debugging.o
 .debug_macro   0x0000000000000000       0x10 bin/obj/arm/mmu/mmu_debugging.o
 .debug_macro   0x0000000000000000       0x61 bin/obj/arm/mmu/mmu_debugging.o
 .debug_macro   0x0000000000000000       0x22 bin/obj/arm/mmu/mmu_debugging.o
 .debug_macro   0x0000000000000000       0x28 bin/obj/arm/mmu/mmu_debugging.o
 .debug_macro   0x0000000000000000       0x1c bin/obj/arm/mmu/mmu_debugging.o
 .debug_macro   0x0000000000000000       0x1c bin/obj/arm/mmu/mmu_debugging.o
 .debug_macro   0x0000000000000000       0x34 bin/obj/arm/mmu/mmu_debugging.o
 .debug_macro   0x0000000000000000       0x22 bin/obj/arm/mmu/mmu_debugging.o
 .group         0x0000000000000000        0xc bin/obj/arm/mmu/mmu.o
 .group         0x0000000000000000        0xc bin/obj/arm/mmu/mmu.o
 .group         0x0000000000000000        0xc bin/obj/arm/mmu/mmu.o
 .group         0x0000000000000000        0xc bin/obj/arm/mmu/mmu.o
 .group         0x0000000000000000        0xc bin/obj/arm/mmu/mmu.o
 .group         0x0000000000000000        0xc bin/obj/arm/mmu/mmu.o
 .group         0x0000000000000000        0xc bin/obj/arm/mmu/mmu.o
 .group         0x0000000000000000        0xc bin/obj/arm/mmu/mmu.o
 .group         0x0000000000000000        0xc bin/obj/arm/mmu/mmu.o
 .group         0x0000000000000000        0xc bin/obj/arm/mmu/mmu.o
 .group         0x0000000000000000        0xc bin/obj/arm/mmu/mmu.o
 .group         0x0000000000000000        0xc bin/obj/arm/mmu/mmu.o
 .group         0x0000000000000000        0xc bin/obj/arm/mmu/mmu.o
 .debug_macro   0x0000000000000000      0xad8 bin/obj/arm/mmu/mmu.o
 .debug_macro   0x0000000000000000       0x1c bin/obj/arm/mmu/mmu.o
 .debug_macro   0x0000000000000000       0x82 bin/obj/arm/mmu/mmu.o
 .debug_macro   0x0000000000000000       0x22 bin/obj/arm/mmu/mmu.o
 .debug_macro   0x0000000000000000       0x10 bin/obj/arm/mmu/mmu.o
 .debug_macro   0x0000000000000000       0x61 bin/obj/arm/mmu/mmu.o
 .debug_macro   0x0000000000000000       0x22 bin/obj/arm/mmu/mmu.o
 .debug_macro   0x0000000000000000       0x28 bin/obj/arm/mmu/mmu.o
 .debug_macro   0x0000000000000000       0x22 bin/obj/arm/mmu/mmu.o
 .debug_macro   0x0000000000000000       0x1c bin/obj/arm/mmu/mmu.o
 .debug_macro   0x0000000000000000       0x16 bin/obj/arm/mmu/mmu.o
 .debug_macro   0x0000000000000000       0x16 bin/obj/arm/mmu/mmu.o
 .debug_macro   0x0000000000000000       0x8e bin/obj/arm/mmu/mmu.o
 .group         0x0000000000000000        0xc bin/obj/lib/lock/corelock.o
 .group         0x0000000000000000        0xc bin/obj/lib/lock/corelock.o
 .group         0x0000000000000000        0xc bin/obj/lib/lock/corelock.o
 .group         0x0000000000000000        0xc bin/obj/lib/lock/corelock.o
 .group         0x0000000000000000        0xc bin/obj/lib/lock/corelock.o
 .debug_macro   0x0000000000000000       0x1c bin/obj/lib/lock/corelock.o
 .debug_macro   0x0000000000000000       0x82 bin/obj/lib/lock/corelock.o
 .debug_macro   0x0000000000000000       0x10 bin/obj/lib/lock/corelock.o
 .debug_macro   0x0000000000000000       0x61 bin/obj/lib/lock/corelock.o
 .group         0x0000000000000000        0xc bin/obj/lib/malloc/xalloc.o
 .group         0x0000000000000000        0xc bin/obj/lib/malloc/xalloc.o
 .group         0x0000000000000000        0xc bin/obj/lib/malloc/xalloc.o
 .group         0x0000000000000000        0xc bin/obj/lib/malloc/xalloc.o
 .group         0x0000000000000000        0xc bin/obj/lib/malloc/xalloc.o
 .group         0x0000000000000000        0xc bin/obj/lib/malloc/xalloc.o
 .debug_macro   0x0000000000000000      0xad8 bin/obj/lib/malloc/xalloc.o
 .debug_macro   0x0000000000000000       0x1c bin/obj/lib/malloc/xalloc.o
 .debug_macro   0x0000000000000000       0x82 bin/obj/lib/malloc/xalloc.o
 .debug_macro   0x0000000000000000       0x10 bin/obj/lib/malloc/xalloc.o
 .debug_macro   0x0000000000000000       0x61 bin/obj/lib/malloc/xalloc.o
 .debug_macro   0x0000000000000000       0x1c bin/obj/lib/malloc/xalloc.o
 .group         0x0000000000000000        0xc bin/obj/lib/string/string.o
 .group         0x0000000000000000        0xc bin/obj/lib/string/string.o
 .group         0x0000000000000000        0xc bin/obj/lib/string/string.o
 .group         0x0000000000000000        0xc bin/obj/lib/string/string.o
 .group         0x0000000000000000        0xc bin/obj/lib/string/string.o
 .group         0x0000000000000000        0xc bin/obj/lib/string/string.o
 .group         0x0000000000000000        0xc bin/obj/lib/string/string.o
 .debug_macro   0x0000000000000000      0xad8 bin/obj/lib/string/string.o
 .debug_macro   0x0000000000000000       0x1c bin/obj/lib/string/string.o
 .debug_macro   0x0000000000000000       0x82 bin/obj/lib/string/string.o
 .debug_macro   0x0000000000000000       0x10 bin/obj/lib/string/string.o
 .debug_macro   0x0000000000000000       0x61 bin/obj/lib/string/string.o
 .debug_macro   0x0000000000000000       0x1c bin/obj/lib/string/string.o
 .debug_macro   0x0000000000000000       0x34 bin/obj/lib/string/string.o
 .group         0x0000000000000000        0xc bin/obj/lib/string/fmt.o
 .group         0x0000000000000000        0xc bin/obj/lib/string/fmt.o
 .group         0x0000000000000000        0xc bin/obj/lib/string/fmt.o
 .group         0x0000000000000000        0xc bin/obj/lib/string/fmt.o
 .group         0x0000000000000000        0xc bin/obj/lib/string/fmt.o
 .group         0x0000000000000000        0xc bin/obj/lib/string/fmt.o
 .group         0x0000000000000000        0xc bin/obj/lib/string/fmt.o
 .debug_macro   0x0000000000000000      0xad8 bin/obj/lib/string/fmt.o
 .debug_macro   0x0000000000000000       0x1c bin/obj/lib/string/fmt.o
 .debug_macro   0x0000000000000000       0x82 bin/obj/lib/string/fmt.o
 .debug_macro   0x0000000000000000       0x10 bin/obj/lib/string/fmt.o
 .debug_macro   0x0000000000000000       0x61 bin/obj/lib/string/fmt.o
 .debug_macro   0x0000000000000000       0x1c bin/obj/lib/string/fmt.o
 .debug_macro   0x0000000000000000       0x34 bin/obj/lib/string/fmt.o
 .group         0x0000000000000000        0xc bin/obj/lib/mem/memcpy/memcpy.o
 .group         0x0000000000000000        0xc bin/obj/lib/mem/memcpy/memcpy.o
 .group         0x0000000000000000        0xc bin/obj/lib/mem/memcpy/memcpy.o
 .group         0x0000000000000000        0xc bin/obj/lib/mem/memcpy/memcpy.o
 .group         0x0000000000000000        0xc bin/obj/lib/mem/memcpy/memcpy.o
 .group         0x0000000000000000        0xc bin/obj/lib/mem/memcpy/memcpy.o
 .group         0x0000000000000000        0xc bin/obj/lib/mem/memcpy/memcpy.o
 .group         0x0000000000000000        0xc bin/obj/lib/mem/memcpy/memcpy.o
 .group         0x0000000000000000        0xc bin/obj/lib/mem/memcpy/memcpy.o
 .debug_macro   0x0000000000000000      0xad8 bin/obj/lib/mem/memcpy/memcpy.o
 .debug_macro   0x0000000000000000       0x1c bin/obj/lib/mem/memcpy/memcpy.o
 .debug_macro   0x0000000000000000       0x82 bin/obj/lib/mem/memcpy/memcpy.o
 .debug_macro   0x0000000000000000       0x10 bin/obj/lib/mem/memcpy/memcpy.o
 .debug_macro   0x0000000000000000       0x61 bin/obj/lib/mem/memcpy/memcpy.o
 .debug_macro   0x0000000000000000       0x22 bin/obj/lib/mem/memcpy/memcpy.o
 .debug_macro   0x0000000000000000       0x1c bin/obj/lib/mem/memcpy/memcpy.o
 .debug_macro   0x0000000000000000       0x34 bin/obj/lib/mem/memcpy/memcpy.o
 .debug_macro   0x0000000000000000       0x1c bin/obj/lib/mem/memcpy/memcpy.o
 .group         0x0000000000000000        0xc bin/obj/lib/mem/mem.o
 .group         0x0000000000000000        0xc bin/obj/lib/mem/mem.o
 .group         0x0000000000000000        0xc bin/obj/lib/mem/mem.o
 .group         0x0000000000000000        0xc bin/obj/lib/mem/mem.o
 .group         0x0000000000000000        0xc bin/obj/lib/mem/mem.o
 .group         0x0000000000000000        0xc bin/obj/lib/mem/mem.o
 .debug_macro   0x0000000000000000      0xad8 bin/obj/lib/mem/mem.o
 .debug_macro   0x0000000000000000       0x1c bin/obj/lib/mem/mem.o
 .debug_macro   0x0000000000000000       0x82 bin/obj/lib/mem/mem.o
 .debug_macro   0x0000000000000000       0x10 bin/obj/lib/mem/mem.o
 .debug_macro   0x0000000000000000       0x61 bin/obj/lib/mem/mem.o
 .debug_macro   0x0000000000000000       0x22 bin/obj/lib/mem/mem.o
 .group         0x0000000000000000        0xc bin/obj/drivers/arm_generic_timer/arm_generic_timer.o
 .group         0x0000000000000000        0xc bin/obj/drivers/arm_generic_timer/arm_generic_timer.o
 .group         0x0000000000000000        0xc bin/obj/drivers/arm_generic_timer/arm_generic_timer.o
 .group         0x0000000000000000        0xc bin/obj/drivers/arm_generic_timer/arm_generic_timer.o
 .group         0x0000000000000000        0xc bin/obj/drivers/arm_generic_timer/arm_generic_timer.o
 .group         0x0000000000000000        0xc bin/obj/drivers/arm_generic_timer/arm_generic_timer.o
 .debug_macro   0x0000000000000000       0x82 bin/obj/drivers/arm_generic_timer/arm_generic_timer.o
 .debug_macro   0x0000000000000000       0x1c bin/obj/drivers/arm_generic_timer/arm_generic_timer.o
 .debug_macro   0x0000000000000000       0x22 bin/obj/drivers/arm_generic_timer/arm_generic_timer.o
 .debug_macro   0x0000000000000000       0x16 bin/obj/drivers/arm_generic_timer/arm_generic_timer.o
 .debug_macro   0x0000000000000000       0x1c bin/obj/drivers/arm_generic_timer/arm_generic_timer.o
 .group         0x0000000000000000        0xc bin/obj/drivers/tmu/tmu.o
 .group         0x0000000000000000        0xc bin/obj/drivers/tmu/tmu.o
 .group         0x0000000000000000        0xc bin/obj/drivers/tmu/tmu.o
 .group         0x0000000000000000        0xc bin/obj/drivers/tmu/tmu.o
 .group         0x0000000000000000        0xc bin/obj/drivers/tmu/tmu.o
 .group         0x0000000000000000        0xc bin/obj/drivers/tmu/tmu.o
 .group         0x0000000000000000        0xc bin/obj/drivers/tmu/tmu.o
 .group         0x0000000000000000        0xc bin/obj/drivers/tmu/tmu.o
 .group         0x0000000000000000        0xc bin/obj/drivers/tmu/tmu.o
 .group         0x0000000000000000        0xc bin/obj/drivers/tmu/tmu.o
 .group         0x0000000000000000        0xc bin/obj/drivers/tmu/tmu.o
 .group         0x0000000000000000        0xc bin/obj/drivers/tmu/tmu.o
 .group         0x0000000000000000        0xc bin/obj/drivers/tmu/tmu.o
 .group         0x0000000000000000        0xc bin/obj/drivers/tmu/tmu.o
 .group         0x0000000000000000        0xc bin/obj/drivers/tmu/tmu.o
 .group         0x0000000000000000        0xc bin/obj/drivers/tmu/tmu.o
 .group         0x0000000000000000        0xc bin/obj/drivers/tmu/tmu.o
 .group         0x0000000000000000        0xc bin/obj/drivers/tmu/tmu.o
 .group         0x0000000000000000        0xc bin/obj/drivers/tmu/tmu.o
 .group         0x0000000000000000        0xc bin/obj/drivers/tmu/tmu.o
 .group         0x0000000000000000        0xc bin/obj/drivers/tmu/tmu.o
 .group         0x0000000000000000        0xc bin/obj/drivers/tmu/tmu.o
 .group         0x0000000000000000        0xc bin/obj/drivers/tmu/tmu.o
 .group         0x0000000000000000        0xc bin/obj/drivers/tmu/tmu.o
 .group         0x0000000000000000        0xc bin/obj/drivers/tmu/tmu.o
 .group         0x0000000000000000        0xc bin/obj/drivers/tmu/tmu.o
 .group         0x0000000000000000        0xc bin/obj/drivers/tmu/tmu.o
 .debug_macro   0x0000000000000000      0xad8 bin/obj/drivers/tmu/tmu.o
 .debug_macro   0x0000000000000000       0x82 bin/obj/drivers/tmu/tmu.o
 .debug_macro   0x0000000000000000       0x1c bin/obj/drivers/tmu/tmu.o
 .debug_macro   0x0000000000000000       0x22 bin/obj/drivers/tmu/tmu.o
 .debug_macro   0x0000000000000000       0x1c bin/obj/drivers/tmu/tmu.o
 .debug_macro   0x0000000000000000       0x2e bin/obj/drivers/tmu/tmu.o
 .debug_macro   0x0000000000000000       0x10 bin/obj/drivers/tmu/tmu.o
 .debug_macro   0x0000000000000000       0x61 bin/obj/drivers/tmu/tmu.o
 .debug_macro   0x0000000000000000       0x16 bin/obj/drivers/tmu/tmu.o
 .group         0x0000000000000000        0xc bin/obj/drivers/interrupts/gicv3/gicv3.o
 .group         0x0000000000000000        0xc bin/obj/drivers/interrupts/gicv3/gicv3.o
 .group         0x0000000000000000        0xc bin/obj/drivers/interrupts/gicv3/gicv3.o
 .group         0x0000000000000000        0xc bin/obj/drivers/interrupts/gicv3/gicv3.o
 .group         0x0000000000000000        0xc bin/obj/drivers/interrupts/gicv3/gicv3.o
 .group         0x0000000000000000        0xc bin/obj/drivers/interrupts/gicv3/gicv3.o
 .group         0x0000000000000000        0xc bin/obj/drivers/interrupts/gicv3/gicv3.o
 .group         0x0000000000000000        0xc bin/obj/drivers/interrupts/gicv3/gicv3.o
 .group         0x0000000000000000        0xc bin/obj/drivers/interrupts/gicv3/gicv3.o
 .group         0x0000000000000000        0xc bin/obj/drivers/interrupts/gicv3/gicv3.o
 .group         0x0000000000000000        0xc bin/obj/drivers/interrupts/gicv3/gicv3.o
 .group         0x0000000000000000        0xc bin/obj/drivers/interrupts/gicv3/gicv3.o
 .group         0x0000000000000000        0xc bin/obj/drivers/interrupts/gicv3/gicv3.o
 .group         0x0000000000000000        0xc bin/obj/drivers/interrupts/gicv3/gicv3.o
 .group         0x0000000000000000        0xc bin/obj/drivers/interrupts/gicv3/gicv3.o
 .group         0x0000000000000000        0xc bin/obj/drivers/interrupts/gicv3/gicv3.o
 .group         0x0000000000000000        0xc bin/obj/drivers/interrupts/gicv3/gicv3.o
 .group         0x0000000000000000        0xc bin/obj/drivers/interrupts/gicv3/gicv3.o
 .debug_macro   0x0000000000000000      0xad8 bin/obj/drivers/interrupts/gicv3/gicv3.o
 .debug_macro   0x0000000000000000       0x1c bin/obj/drivers/interrupts/gicv3/gicv3.o
 .debug_macro   0x0000000000000000       0x82 bin/obj/drivers/interrupts/gicv3/gicv3.o
 .debug_macro   0x0000000000000000       0x10 bin/obj/drivers/interrupts/gicv3/gicv3.o
 .debug_macro   0x0000000000000000       0x4c bin/obj/drivers/interrupts/gicv3/gicv3.o
 .debug_macro   0x0000000000000000       0x10 bin/obj/drivers/interrupts/gicv3/gicv3.o
 .debug_macro   0x0000000000000000       0x61 bin/obj/drivers/interrupts/gicv3/gicv3.o
 .group         0x0000000000000000        0xc bin/obj/drivers/uart/uart.o
 .group         0x0000000000000000        0xc bin/obj/drivers/uart/uart.o
 .group         0x0000000000000000        0xc bin/obj/drivers/uart/uart.o
 .group         0x0000000000000000        0xc bin/obj/drivers/uart/uart.o
 .group         0x0000000000000000        0xc bin/obj/drivers/uart/uart.o
 .group         0x0000000000000000        0xc bin/obj/drivers/uart/uart.o
 .group         0x0000000000000000        0xc bin/obj/drivers/uart/uart.o
 .group         0x0000000000000000        0xc bin/obj/drivers/uart/uart.o
 .group         0x0000000000000000        0xc bin/obj/drivers/uart/uart.o
 .group         0x0000000000000000        0xc bin/obj/drivers/uart/uart.o
 .group         0x0000000000000000        0xc bin/obj/drivers/uart/uart.o
 .group         0x0000000000000000        0xc bin/obj/drivers/uart/uart.o
 .group         0x0000000000000000        0xc bin/obj/drivers/uart/uart.o
 .group         0x0000000000000000        0xc bin/obj/drivers/uart/uart.o
 .group         0x0000000000000000        0xc bin/obj/drivers/uart/uart.o
 .group         0x0000000000000000        0xc bin/obj/drivers/uart/uart.o
 .group         0x0000000000000000        0xc bin/obj/drivers/uart/uart.o
 .group         0x0000000000000000        0xc bin/obj/drivers/uart/uart.o
 .group         0x0000000000000000        0xc bin/obj/drivers/uart/uart.o
 .group         0x0000000000000000        0xc bin/obj/drivers/uart/uart.o
 .group         0x0000000000000000        0xc bin/obj/drivers/uart/uart.o
 .group         0x0000000000000000        0xc bin/obj/drivers/uart/uart.o
 .group         0x0000000000000000        0xc bin/obj/drivers/uart/uart.o
 .group         0x0000000000000000        0xc bin/obj/drivers/uart/uart.o
 .group         0x0000000000000000        0xc bin/obj/drivers/uart/uart.o
 .group         0x0000000000000000        0xc bin/obj/drivers/uart/uart.o
 .group         0x0000000000000000        0xc bin/obj/drivers/uart/uart.o
 .group         0x0000000000000000        0xc bin/obj/drivers/uart/uart.o
 .group         0x0000000000000000        0xc bin/obj/drivers/uart/uart.o
 .group         0x0000000000000000        0xc bin/obj/drivers/uart/uart.o
 .debug_macro   0x0000000000000000      0xad8 bin/obj/drivers/uart/uart.o
 .debug_macro   0x0000000000000000       0x82 bin/obj/drivers/uart/uart.o
 .debug_macro   0x0000000000000000       0x1c bin/obj/drivers/uart/uart.o
 .debug_macro   0x0000000000000000       0x22 bin/obj/drivers/uart/uart.o
 .debug_macro   0x0000000000000000       0x10 bin/obj/drivers/uart/uart.o
 .debug_macro   0x0000000000000000       0x61 bin/obj/drivers/uart/uart.o
 .debug_macro   0x0000000000000000       0x22 bin/obj/drivers/uart/uart.o
 .debug_macro   0x0000000000000000       0x1c bin/obj/drivers/uart/uart.o
 .debug_macro   0x0000000000000000       0x2e bin/obj/drivers/uart/uart.o
 .debug_macro   0x0000000000000000       0x10 bin/obj/drivers/uart/uart.o
 .debug_macro   0x0000000000000000       0x4c bin/obj/drivers/uart/uart.o
 .debug_macro   0x0000000000000000       0x16 bin/obj/drivers/uart/uart.o
 .llvmbc        0x0000000000000000   0x141958 bin/obj/rslib.a(core-dca77d77b03929cc.core.bbd04c23a4fa3c72-cgu.0.rcgu.o)
 .llvmcmd       0x0000000000000000        0x0 bin/obj/rslib.a(core-dca77d77b03929cc.core.bbd04c23a4fa3c72-cgu.0.rcgu.o)
 .llvmbc        0x0000000000000000     0x10b8 bin/obj/rslib.a(compiler_builtins-fabd8ee97a026881.compiler_builtins.f286be164c3a919f-cgu.099.rcgu.o)
 .llvmcmd       0x0000000000000000        0x0 bin/obj/rslib.a(compiler_builtins-fabd8ee97a026881.compiler_builtins.f286be164c3a919f-cgu.099.rcgu.o)
 .llvmbc        0x0000000000000000      0xbf4 bin/obj/rslib.a(compiler_builtins-fabd8ee97a026881.compiler_builtins.f286be164c3a919f-cgu.173.rcgu.o)
 .llvmcmd       0x0000000000000000        0x0 bin/obj/rslib.a(compiler_builtins-fabd8ee97a026881.compiler_builtins.f286be164c3a919f-cgu.173.rcgu.o)
 .llvmbc        0x0000000000000000      0xc04 bin/obj/rslib.a(compiler_builtins-fabd8ee97a026881.compiler_builtins.f286be164c3a919f-cgu.242.rcgu.o)
 .llvmcmd       0x0000000000000000        0x0 bin/obj/rslib.a(compiler_builtins-fabd8ee97a026881.compiler_builtins.f286be164c3a919f-cgu.242.rcgu.o)
 .llvmbc        0x0000000000000000      0xbf4 bin/obj/rslib.a(compiler_builtins-fabd8ee97a026881.compiler_builtins.f286be164c3a919f-cgu.295.rcgu.o)
 .llvmcmd       0x0000000000000000        0x0 bin/obj/rslib.a(compiler_builtins-fabd8ee97a026881.compiler_builtins.f286be164c3a919f-cgu.295.rcgu.o)
 .llvmbc        0x0000000000000000     0x1ca4 bin/obj/rslib.a(compiler_builtins-fabd8ee97a026881.compiler_builtins.f286be164c3a919f-cgu.018.rcgu.o)
 .llvmcmd       0x0000000000000000        0x0 bin/obj/rslib.a(compiler_builtins-fabd8ee97a026881.compiler_builtins.f286be164c3a919f-cgu.018.rcgu.o)

Memory Configuration

Name             Origin             Length             Attributes
HI_VMEM          0xffff800000000000 0x0000800000000000 xrw
DDR_HI           0x0000000100000000 0x0000000140000000 xrw
DDR_LO           0x0000000040000000 0x00000000c0000000 xrw
DDR              0x0000000040000000 0x0000000200000000 xrw
DDR_KERNEL       0x0000000040200000 0x00000001ffe00000 xrw
RESERVED_3F      0x000000003f000000 0x0000000001000000 rw
RESERVED_3E      0x000000003e000000 0x0000000001000000 rw
DDRC_PHY_BCAST   0x000000003dc00000 0x0000000000400000 rw
DDRC_PERF_MON    0x000000003d800000 0x0000000000400000 rw
DDRC_CTL         0x000000003d400000 0x0000000000400000 rw
RESERVED_3D10    0x000000003d100000 0x0000000000300000 rw
DDRC_BLK_CTRL    0x000000003d000000 0x0000000000100000 rw
DDRC_PHY         0x000000003c000000 0x0000000001000000 rw
AUDIO_DSP        0x000000003b000000 0x0000000001000000 rw
GIC              0x0000000038800000 0x0000000000100000 rw
NPU              0x0000000038500000 0x0000000000200000 rw
VPU              0x0000000038340000 0x0000000000200000 rw
VPU_BLK_CTRL     0x0000000038330000 0x0000000000200000 rw
VPU_VC8000E      0x0000000038320000 0x0000000000200000 rw
VPU_G2           0x0000000038310000 0x0000000000200000 rw
VPU_G1           0x0000000038300000 0x0000000000200000 rw
USB2             0x0000000038200000 0x0000000000100000 rw
USB1             0x0000000038100000 0x0000000000100000 rw
GPU_3D           0x0000000038000000 0x0000000000008000 rw
GPU_2D           0x0000000038008000 0x0000000000008000 rw
QSPI_RX          0x0000000036000000 0x0000000002000000 rw
QSPI_RX_1        0x0000000034000000 0x0000000002000000 rw
QSPI_TX          0x0000000033008000 0x0000000000008000 rw
APBH_DMA         0x0000000033000000 0x0000000000008000 rw
AIPS_1           0x0000000030000000 0x0000000000400000 rw
AIPS_2           0x0000000030400000 0x0000000000400000 rw
AIPS_3           0x0000000030800000 0x0000000000400000 rw
AIPS_4           0x0000000032c00000 0x0000000000400000 rw
AIPS_5           0x0000000030c00000 0x0000000000400000 rw
PCIE_REG         0x0000000018000000 0x0000000008000000 rw
OCRAM            0x0000000000900000 0x0000000000090000 xrw
OCRAM_S          0x0000000000180000 0x0000000000009000 rw
OCRAM_S2         0x0000000000189000 0x0000000000007000 rw
CAAM_SEC_RAM     0x0000000000108000 0x0000000000008000 rw
BOOT_ROM         0x0000000000000000 0x000000000003f000 r
*default*        0x0000000000000000 0xffffffffffffffff

Linker script and memory map

                0x0000000000000004                __NUM_CORES = 0x4
                0x0000000000020000                __EL2_STACK_SIZE = 0x20000
                0x0000000000100000                __EL1_STACK_SIZE = 0x100000
                0x0000000000200000                __TFA_PROTECTED_SIZE = 0x200000
                0xffff800000000000                HI_VA_BASE = 0xffff800000000000
                0x0000800000000000                HI_VA_SIZE = 0x800000000000
                0x0000000040200000                KERNEL_PA_BASE = (ORIGIN (DDR) + __TFA_PROTECTED_SIZE)
                0xffff800040200000                KERNEL_VA_BASE = (KERNEL_PA_BASE + HI_VA_BASE)
                0xffff800040200000                . = KERNEL_VA_BASE

.text           0xffff800040200000    0x43000 load address 0x0000000040200000
                0xffff800040200000                __text_start = .
 *(.text.boot)
 .text.boot     0xffff800040200000       0xc0 bin/obj/__boot/boot.o
                0xffff800040200000                _start
 *(.text*)
 .text          0xffff8000402000c0       0x20 bin/obj/__kernel/mm/mm.o
                0xffff8000402000c0                _get_pc
                0xffff8000402000c8                _mm_kva_to_kpa
                0xffff8000402000d4                _mm_kpa_to_kva
 .text          0xffff8000402000e0       0x40 bin/obj/__kernel/mm/reloc/reloc.o
                0xffff8000402000e0                _jmp_to_with_offset
                0xffff8000402000e8                _reloc_cfg_end
                0xffff800040200114                _return_to_kernel_entry
 .text          0xffff800040200120       0x40 bin/obj/__arm/cache/cache.o
                0xffff800040200120                _cache_flush_range
 .text          0xffff800040200160       0x3c bin/obj/__arm/cache/icache.o
                0xffff800040200160                _icache_flush_range
 .text          0xffff80004020019c       0x3c bin/obj/__arm/cache/dcache.o
                0xffff80004020019c                _dcache_flush_range
 *fill*         0xffff8000402001d8        0x8 
 .text          0xffff8000402001e0       0x10 bin/obj/__arm/tfa/smccc.o
                0xffff8000402001e0                _smc_call
 .text          0xffff8000402001f0      0x114 bin/obj/__arm/sysregs/arm_generic_timer.o
                0xffff8000402001f0                _ARM_CNTFRQ_EL0_set
                0xffff8000402001fc                _ARM_CNTFRQ_EL0_get
                0xffff800040200204                _ARM_CNTPCT_EL0_get
                0xffff80004020020c                _ARM_CNTVCT_EL0_get
                0xffff800040200214                _ARM_CNTP_CTL_EL0_set
                0xffff800040200220                _ARM_CNTP_CTL_EL0_get
                0xffff800040200228                _ARM_CNTP_CVAL_EL0_set
                0xffff800040200234                _ARM_CNTP_CVAL_EL0_get
                0xffff80004020023c                _ARM_CNTP_TVAL_EL0_set
                0xffff800040200248                _ARM_CNTP_TVAL_EL0_get
                0xffff800040200250                _ARM_CNTV_CTL_EL0_set
                0xffff80004020025c                _ARM_CNTV_CTL_EL0_get
                0xffff800040200264                _ARM_CNTV_CVAL_EL0_set
                0xffff800040200270                _ARM_CNTV_CVAL_EL0_get
                0xffff800040200278                _ARM_CNTV_TVAL_EL0_set
                0xffff800040200284                _ARM_CNTV_TVAL_EL0_get
                0xffff80004020028c                _ARM_CNTKCTL_EL1_set
                0xffff800040200298                _ARM_CNTKCTL_EL1_get
                0xffff8000402002a0                _ARM_CNTHCTL_EL2_set
                0xffff8000402002ac                _ARM_CNTHCTL_EL2_get
                0xffff8000402002b4                _ARM_CNTVOFF_EL2_set
                0xffff8000402002c0                _ARM_CNTVOFF_EL2_get
                0xffff8000402002c8                _ARM_CNTPS_CTL_EL1_set
                0xffff8000402002d4                _ARM_CNTPS_CTL_EL1_get
                0xffff8000402002dc                _ARM_CNTPS_CVAL_EL1_set
                0xffff8000402002e8                _ARM_CNTPS_CVAL_EL1_get
                0xffff8000402002f0                _ARM_CNTPS_TVAL_EL1_set
                0xffff8000402002fc                _ARM_CNTPS_TVAL_EL1_get
 .text          0xffff800040200304       0x74 bin/obj/__arm/sysregs/sysregs.o
                0xffff800040200304                _ARM_currentEL
                0xffff800040200310                _ARM_MPIDR_EL1
                0xffff800040200318                _ARM_ICC_SRE_EL2
                0xffff800040200320                _ARM_HCR_EL2
                0xffff800040200328                _ARM_ESR_EL2
                0xffff800040200330                _ARM_ELR_EL2
                0xffff800040200338                _ARM_FAR_EL2
                0xffff800040200340                _ARM_SPSR_EL2
                0xffff800040200348                _ARM_ESR_EL1
                0xffff800040200350                _ARM_ELR_EL1
                0xffff800040200358                _ARM_FAR_EL1
                0xffff800040200360                _ARM_SPSR_EL1
                0xffff800040200368                _ARM_SCTLR_EL1
                0xffff800040200370                _ARM_SCTLR_EL2
 *fill*         0xffff800040200378      0x488 
 .text          0xffff800040200800     0x1100 bin/obj/__arm/exceptions/el2_vectors.o
                0xffff800040200800                _el2_init_vector
 .text          0xffff800040201900       0x68 bin/obj/__arm/exceptions/exceptions.o
                0xffff800040201900                _exceptions_get_DAIF
                0xffff800040201908                _fiq_exceptions_enable
                0xffff800040201914                _irq_exceptions_enable
                0xffff800040201920                _serror_exceptions_enable
                0xffff80004020192c                _debug_exceptions_enable
                0xffff800040201938                _fiq_exceptions_disable
                0xffff800040201944                _irq_exceptions_disable
                0xffff800040201950                _serror_exceptions_disable
                0xffff80004020195c                _debug_exceptions_disable
 *fill*         0xffff800040201968      0x698 
 .text          0xffff800040202000     0x1100 bin/obj/__arm/exceptions/el1_vectors.o
                0xffff800040202000                _el1_init_vector
 .text          0xffff800040203100        0x8 bin/obj/__arm/cpu.o
                0xffff800040203100                _ARM_get_sp
 *fill*         0xffff800040203108        0x8 
 .text          0xffff800040203110       0xa0 bin/obj/__arm/mmu/regs/mmu_sysregs.o
                0xffff800040203110                _mmu_get_MAIR_EL1
                0xffff800040203118                _mmu_set_MAIR_EL1
                0xffff800040203150                _mmu_get_SCTLR_EL1
                0xffff800040203158                _mmu_set_SCTLR_EL1
                0xffff800040203164                _mmu_get_TTBR0_EL1
                0xffff80004020316c                _mmu_set_TTBR0_EL1
                0xffff80004020317c                _mmu_get_TTBR1_EL1
                0xffff800040203184                _mmu_set_TTBR1_EL1
                0xffff800040203194                _mmu_get_TCR_EL1
                0xffff80004020319c                _mmu_set_TCR_EL1
                0xffff8000402031a8                _mmu_get_ID_AA64MMFR0_EL1
 .text          0xffff8000402031b0       0x3c bin/obj/__lib/lock/spinlock_irq.o
                0xffff8000402031b0                _spin_lock_irqsave
                0xffff8000402031cc                _spin_unlock_irqrestore
 *fill*         0xffff8000402031ec        0x4 
 .text          0xffff8000402031f0       0x6c bin/obj/__lib/lock/spinlock.o
                0xffff8000402031f0                _spin_try_lock
                0xffff800040203218                _spin_lock
                0xffff800040203238                _spin_unlock
 *fill*         0xffff80004020325c        0x4 
 .text          0xffff800040203260       0x14 bin/obj/__lib/lock/irqlock.o
                0xffff800040203260                _irq_lock
                0xffff80004020326c                _irq_unlock
 .text          0xffff800040203274       0xc0 bin/obj/__lib/lock/corelock.o
                0xffff800040203274                _core_lock
                0xffff8000402032b8                _core_unlock
                0xffff8000402032e8                _core_try_lock
 *fill*         0xffff800040203334        0xc 
 .text          0xffff800040203340      0x250 bin/obj/__lib/mem/memcpy/memcpy.o
                0xffff800040203340                _memcpy
                0xffff800040203450                _memcpy64
                0xffff800040203480                _memcpy32
                0xffff8000402034b0                _memcpy16
                0xffff8000402034e0                _memcpy8
                0xffff800040203510                _memcpy4
                0xffff800040203540                _memcpy2
                0xffff800040203570                _memcpy1
 .text          0xffff800040203590        0x0 bin/obj/__lib/mem/memzero/memzero.o
 .text          0xffff800040203590        0x8 bin/obj/__lib/mem/mem.o
                0xffff800040203590                _ID_AA64MMFR0_EL1_read
 .text          0xffff800040203598       0x60 bin/obj/__boot/clean_bss.o
                0xffff800040203598                _clean_bss
 .text          0xffff8000402035f8        0x0 bin/obj/__boot/boot.o
 *fill*         0xffff8000402035f8        0x8 
 .text          0xffff800040203600       0x8c bin/obj/__boot/el1.o
                0xffff800040203600                _switch_to_el1
                0xffff800040203660                _el1_entry
 *fill*         0xffff80004020368c        0x4 
 .text          0xffff800040203690       0x98 bin/obj/__boot/stacks.o
                0xffff800040203690                _setup_stack_el1
                0xffff8000402036c4                _reset_stack_el1
 *fill*         0xffff800040203728        0x8 
 .text          0xffff800040203730       0x68 bin/obj/__boot/secondary_entry.o
                0xffff800040203730                _secondary_entry
 .text          0xffff800040203798      0x108 bin/obj/__boot/gpr.o
                0xffff800040203798                _init_gpr
 .text          0xffff8000402038a0        0x8 bin/obj/__drivers/tmu/tmu_critical_default.o
                0xffff8000402038a0                _TMU_critical_hang
 *fill*         0xffff8000402038a8        0x8 
 .text          0xffff8000402038b0       0x3c bin/obj/__drivers/interrupts/gicv3/gicv3_arm_interface.o
                0xffff8000402038b0                _GICV3_ARM_ICC_SRE_EL1_write
                0xffff8000402038bc                _GICV3_ARM_ICC_PMR_EL1_write
                0xffff8000402038c8                _GICV3_ARM_ICC_PMR_EL1_read
                0xffff8000402038d0                _GICV3_ARM_ICC_IGRPEN1_EL1_write
                0xffff8000402038dc                _GICV3_ARM_ICC_IAR1_EL1_read
                0xffff8000402038e4                _GICV3_ARM_ICC_EOIR1_EL1_write
 .text          0xffff8000402038ec      0x22c bin/obj/kernel/irq/irq.o
                0xffff800040203acc                kernel_handle_irq
 .text          0xffff800040203b18        0x0 bin/obj/kernel/devices/drivers.o
 .text          0xffff800040203b18       0x4c bin/obj/kernel/init/early_init.o
                0xffff800040203b38                kernel_early_init
 .text          0xffff800040203b64      0x1c0 bin/obj/kernel/init/init_drivers.o
 .text          0xffff800040203d24      0x158 bin/obj/kernel/init/init.o
                0xffff800040203d44                kernel_init
 .text          0xffff800040203e7c       0xf8 bin/obj/kernel/lib/smp.o
                0xffff800040203e7c                get_core_id
                0xffff800040203f10                wake_core
 .text          0xffff800040203f74     0x1b68 bin/obj/kernel/mm/phys/page_allocator.o
                0xffff800040204e94                page_malloc
                0xffff800040205084                page_free
                0xffff8000402053b8                page_allocator_init
                0xffff800040205708                page_allocator_update_memregs
                0xffff800040205968                page_allocator_debug
 .text          0xffff800040205adc      0x5d8 bin/obj/kernel/mm/init/identity_mapping.o
                0xffff800040205d60                early_identity_mapping
 .text          0xffff8000402060b4      0x298 bin/obj/kernel/mm/init/init.o
                0xffff80004020626c                mm_early_init
                0xffff800040206334                mm_init
 .text          0xffff80004020634c     0x195c bin/obj/kernel/mm/init/mem_regions/early_kalloc.o
                0xffff800040206bb8                early_kalloc_init
                0xffff800040207688                early_kalloc
                0xffff80004020793c                early_kalloc_get_memregs
                0xffff800040207bac                early_kalloc_debug
 .text          0xffff800040207ca8        0x0 bin/obj/kernel/mm/init/mem_regions/mem_regions.o
 .text          0xffff800040207ca8      0x870 bin/obj/kernel/mm/mm_info.o
                0xffff800040207e74                mm_info_init
                0xffff8000402084b8                mm_info_ddr_size
                0xffff8000402084c8                mm_info_ddr_start
                0xffff8000402084d8                mm_info_ddr_end
                0xffff8000402084e8                mm_info_kernel_start
                0xffff8000402084f8                mm_info_page_count
                0xffff800040208508                mm_info_mm_addr_space
 .text          0xffff800040208518       0x64 bin/obj/kernel/mm/mm.o
                0xffff800040208518                mm_kernel_is_relocated
                0xffff800040208548                mm_dbg_print_mmu
 .text          0xffff80004020857c      0xdb0 bin/obj/kernel/mm/virt/containers/containers.o
                0xffff800040208bd4                vmalloc_init_containers
                0xffff800040208c90                get_new_fva_node
                0xffff800040208d44                get_new_rva_node
                0xffff800040208df8                free_fva_node
                0xffff800040209040                free_rva_node
 .text          0xffff80004020932c     0x2e60 bin/obj/kernel/mm/virt/vmalloc.o
                0xffff800040209ba0                vmalloc_init
                0xffff800040209c94                vmalloc_update_memregs
                0xffff80004020b030                vmalloc
                0xffff80004020b318                vmalloc_get_free_bytes
                0xffff80004020b3b0                vmalloc_get_reserved_bytes
                0xffff80004020b448                vmalloc_update_tag
                0xffff80004020b59c                vmalloc_get_addr_info
                0xffff80004020b79c                vmalloc_get_token
                0xffff80004020bab0                __vmalloc_token__vmalloc_get_mdt
                0xffff80004020badc                __voidptr__vmalloc_get_mdt
                0xffff80004020bb04                vmalloc_push_pa
                0xffff80004020bb4c                vmalloc_get_pa_count
                0xffff80004020bb7c                vmalloc_get_pa_info
                0xffff80004020bc54                __vmalloc_token__vfree
                0xffff80004020bcbc                __voidptr__vfree
                0xffff80004020bcec                vmalloc_debug_free
                0xffff80004020bee8                vmalloc_debug_reserved
 .text          0xffff80004020c18c     0x13dc bin/obj/kernel/mm/virt/mdt/mdt.o
                0xffff80004020c95c                vmalloc_pa_mdt_init
                0xffff80004020d010                vmalloc_pa_mdt_push
                0xffff80004020d298                vmalloc_pa_mdt_free
 .text          0xffff80004020d568      0x8a4 bin/obj/kernel/mm/malloc/reserve_malloc.o
                0xffff80004020d664                reserve_malloc_init
                0xffff80004020d8d0                reserve_malloc
                0xffff80004020db9c                reserve_malloc_fill
 .text          0xffff80004020de0c      0xf10 bin/obj/kernel/mm/malloc/raw_kmalloc.o
                0xffff80004020e6d0                raw_kmalloc_init
                0xffff80004020e6f0                raw_kmalloc
                0xffff80004020e91c                raw_kfree
 .text          0xffff80004020ed1c      0x16c bin/obj/kernel/mm/reloc/reloc.o
                0xffff80004020ed34                mm_reloc_kernel
                0xffff80004020edc8                reloc_cfg_end
 .text          0xffff80004020ee88      0x1fc bin/obj/kernel/kernel_entry.o
                0xffff80004020ee88                kernel_entry
 .text          0xffff80004020f084      0x420 bin/obj/kernel/io/term.o
                0xffff80004020f084                term_init_early
                0xffff80004020f0e0                term_init_full
                0xffff80004020f11c                term_add_output
                0xffff80004020f220                term_printc
                0xffff80004020f260                term_prints
                0xffff80004020f394                term_printf
 .text          0xffff80004020f4a4      0x428 bin/obj/kernel/panic/panic.o
                0xffff80004020f884                panic
                0xffff80004020f8a0                panicr
 .text          0xffff80004020f8cc       0xe8 bin/obj/kernel/panic/panic_puts.o
                0xffff80004020f92c                panic_puts
 .text          0xffff80004020f9b4      0x238 bin/obj/kernel/panic/panic_exception/panic_exception_handlers.o
                0xffff80004020fb10                handle_sync_panic
                0xffff80004020fb50                handle_irq_panic
                0xffff80004020fb84                handle_fiq_panic
                0xffff80004020fbb8                handle_serror_panic
 .text          0xffff80004020fbec      0x370 bin/obj/kernel/panic/panic_exception/esr/esr.o
                0xffff80004020fe14                print_esr
 .text          0xffff80004020ff5c      0x5d8 bin/obj/kernel/panic/panic_exception/esr/data_abort.o
                0xffff8000402102d0                print_data_abort_info
 .text          0xffff800040210534        0x0 bin/obj/arm/tfa/smccc.o
 .text          0xffff800040210534       0x58 bin/obj/arm/cpu.o
                0xffff800040210534                ARM_get_cpu_affinity
 .text          0xffff80004021058c       0x50 bin/obj/arm/exceptions/handlers/el1/el1_low_a32_serror.o
                0xffff80004021058c                el1_low_a32_serror_handler
 .text          0xffff8000402105dc       0x50 bin/obj/arm/exceptions/handlers/el1/el1_low_a32_fiq.o
                0xffff8000402105dc                el1_low_a32_fiq_handler
 .text          0xffff80004021062c       0x50 bin/obj/arm/exceptions/handlers/el1/el1_low_a64_sync.o
                0xffff80004021062c                el1_low_a64_sync_handler
 .text          0xffff80004021067c       0x50 bin/obj/arm/exceptions/handlers/el1/el1_cur_spx_fiq.o
                0xffff80004021067c                el1_cur_spx_fiq_handler
 .text          0xffff8000402106cc       0x2c bin/obj/arm/exceptions/handlers/el1/el1_cur_spx_irq.o
                0xffff8000402106cc                el1_cur_spx_irq_handler
 .text          0xffff8000402106f8       0x50 bin/obj/arm/exceptions/handlers/el1/el1_cur_spx_serror.o
                0xffff8000402106f8                el1_cur_spx_serror_handler
 .text          0xffff800040210748       0x50 bin/obj/arm/exceptions/handlers/el1/el1_low_a32_irq.o
                0xffff800040210748                el1_low_a32_irq_handler
 .text          0xffff800040210798       0x50 bin/obj/arm/exceptions/handlers/el1/el1_low_a64_fiq.o
                0xffff800040210798                el1_low_a64_fiq_handler
 .text          0xffff8000402107e8       0x50 bin/obj/arm/exceptions/handlers/el1/el1_low_a64_irq.o
                0xffff8000402107e8                el1_low_a64_irq_handler
 .text          0xffff800040210838       0x50 bin/obj/arm/exceptions/handlers/el1/el1_cur_sp0_sync.o
                0xffff800040210838                el1_cur_sp0_sync_handler
 .text          0xffff800040210888       0x50 bin/obj/arm/exceptions/handlers/el1/el1_low_a64_serror.o
                0xffff800040210888                el1_low_a64_serror_handler
 .text          0xffff8000402108d8       0x50 bin/obj/arm/exceptions/handlers/el1/el1_low_a32_sync.o
                0xffff8000402108d8                el1_low_a32_sync_handler
 .text          0xffff800040210928       0x50 bin/obj/arm/exceptions/handlers/el1/el1_cur_spx_sync.o
                0xffff800040210928                el1_cur_spx_sync_handler
 .text          0xffff800040210978       0x50 bin/obj/arm/exceptions/handlers/el1/el1_cur_sp0_fiq.o
                0xffff800040210978                el1_cur_sp0_fiq_handler
 .text          0xffff8000402109c8       0x50 bin/obj/arm/exceptions/handlers/el1/el1_cur_sp0_serror.o
                0xffff8000402109c8                el1_cur_sp0_serror_handler
 .text          0xffff800040210a18       0x50 bin/obj/arm/exceptions/handlers/el1/el1_cur_sp0_irq.o
                0xffff800040210a18                el1_cur_sp0_irq_handler
 .text          0xffff800040210a68       0x50 bin/obj/arm/exceptions/handlers/el2/el2_low_a32_serror.o
                0xffff800040210a68                el2_low_a32_serror_handler
 .text          0xffff800040210ab8       0x50 bin/obj/arm/exceptions/handlers/el2/el2_cur_spx_serror.o
                0xffff800040210ab8                el2_cur_spx_serror_handler
 .text          0xffff800040210b08       0x50 bin/obj/arm/exceptions/handlers/el2/el2_low_a64_serror.o
                0xffff800040210b08                el2_low_a64_serror_handler
 .text          0xffff800040210b58       0x50 bin/obj/arm/exceptions/handlers/el2/el2_low_a64_sync.o
                0xffff800040210b58                el2_low_a64_sync_handler
 .text          0xffff800040210ba8       0x50 bin/obj/arm/exceptions/handlers/el2/el2_cur_sp0_irq.o
                0xffff800040210ba8                el2_cur_sp0_irq_handler
 .text          0xffff800040210bf8       0x50 bin/obj/arm/exceptions/handlers/el2/el2_cur_sp0_serror.o
                0xffff800040210bf8                el2_cur_sp0_serror_handler
 .text          0xffff800040210c48       0x50 bin/obj/arm/exceptions/handlers/el2/el2_low_a64_irq.o
                0xffff800040210c48                el2_low_a64_irq_handler
 .text          0xffff800040210c98       0x50 bin/obj/arm/exceptions/handlers/el2/el2_low_a64_fiq.o
                0xffff800040210c98                el2_low_a64_fiq_handler
 .text          0xffff800040210ce8       0x50 bin/obj/arm/exceptions/handlers/el2/el2_cur_spx_fiq.o
                0xffff800040210ce8                el2_cur_spx_fiq_handler
 .text          0xffff800040210d38       0x50 bin/obj/arm/exceptions/handlers/el2/el2_low_a32_irq.o
                0xffff800040210d38                el2_low_a32_irq_handler
 .text          0xffff800040210d88       0x50 bin/obj/arm/exceptions/handlers/el2/el2_cur_sp0_fiq.o
                0xffff800040210d88                el2_cur_sp0_fiq_handler
 .text          0xffff800040210dd8       0x50 bin/obj/arm/exceptions/handlers/el2/el2_low_a32_fiq.o
                0xffff800040210dd8                el2_low_a32_fiq_handler
 .text          0xffff800040210e28       0x50 bin/obj/arm/exceptions/handlers/el2/el2_cur_spx_sync.o
                0xffff800040210e28                el2_cur_spx_sync_handler
 .text          0xffff800040210e78       0x50 bin/obj/arm/exceptions/handlers/el2/el2_low_a32_sync.o
                0xffff800040210e78                el2_low_a32_sync_handler
 .text          0xffff800040210ec8       0x50 bin/obj/arm/exceptions/handlers/el2/el2_cur_sp0_sync.o
                0xffff800040210ec8                el2_cur_sp0_sync_handler
 .text          0xffff800040210f18       0x50 bin/obj/arm/exceptions/handlers/el2/el2_cur_spx_irq.o
                0xffff800040210f18                el2_cur_spx_irq_handler
 .text          0xffff800040210f68      0x2ec bin/obj/arm/exceptions/handlers/exception_macros.o
                0xffff800040210f68                select_src_enum_
                0xffff8000402110c8                select_exception_type_enum_
                0xffff8000402111e4                exception_panic
 .text          0xffff800040211254      0x2c8 bin/obj/arm/exceptions/exceptions.o
                0xffff800040211254                arm_exceptions_get_status
                0xffff8000402112e8                arm_exceptions_set_status
                0xffff800040211420                arm_exceptions_enable
                0xffff800040211494                arm_exceptions_disable
                0xffff800040211508                arm_get_exception_level
 .text          0xffff80004021151c      0x5e8 bin/obj/arm/mmu/regs/mmu_sysregs.o
                0xffff8000402116ac                mmu_apply_cfg
 .text          0xffff800040211b04     0x1450 bin/obj/arm/mmu/mmu_debugging.o
                0xffff8000402123ec                mmu_debug_dump_tbl_
                0xffff8000402126fc                mmu_debug_dump
                0xffff800040212754                mmu_stress_test
 .text          0xffff800040212f54     0x3aac bin/obj/arm/mmu/mmu.o
                0xffff800040214a24                mmu_init
                0xffff800040214b28                mmu_get_physmap_offset
                0xffff800040214b40                mmu_activate
                0xffff800040214b80                mmu_deactivate
                0xffff800040214bc0                mmu_is_active
                0xffff800040214be4                mmu_hi_va_bits
                0xffff800040214c00                mmu_lo_va_bits
                0xffff800040214c1c                mmu_get_cfg
                0xffff800040214c74                mmu_reconfig_allocators
                0xffff800040214cd8                mmu_pg_cfg_new
                0xffff800040214d4c                mmu_cfg_new
                0xffff8000402156b8                mmu_map
                0xffff800040215750                UNLOCKED_unmap_
                0xffff800040215cd0                mmu_unmap
                0xffff800040215d58                mmu_peek
                0xffff800040216214                mmu_region_is_mapped
                0xffff8000402164cc                mmu_reloc
                0xffff800040216994                mmu_destroy
 .text          0xffff800040216a00      0x2bc bin/obj/lib/lock/corelock.o
                0xffff800040216a00                corelock_init
                0xffff800040216a28                core_lock
                0xffff800040216a60                core_unlock
                0xffff800040216c60                core_try_lock
 .text          0xffff800040216cbc      0xde4 bin/obj/lib/malloc/xalloc.o
                0xffff8000402175b4                xalloc_init
                0xffff8000402176b4                xalloc_get_block_size
                0xffff8000402176cc                xalloc_get_region_blocks
                0xffff800040217724                xalloc_get_region_id
                0xffff800040217774                xalloc_get_region_bytes
                0xffff8000402177a8                xalloc_alloc
                0xffff8000402179a0                xalloc_calloc
                0xffff800040217a30                xalloc_free
                0xffff800040217a68                xalloc_free_id
 .text          0xffff800040217aa0      0x1b0 bin/obj/lib/string/string.o
                0xffff800040217aa0                strcopy
                0xffff800040217b34                strcmp
 .text          0xffff800040217c50      0xcf4 bin/obj/lib/string/fmt.o
                0xffff800040217c50                uint8_to_ascii_char
                0xffff800040217cf4                stdint_to_ascii
                0xffff800040218474                str_fmt_print
 .text          0xffff800040218944      0x470 bin/obj/lib/mem/memcpy/memcpy.o
                0xffff800040218944                memcpy64_aligned
                0xffff800040218aec                memcpy64
                0xffff800040218ba4                test_memcpy
 .text          0xffff800040218db4      0x170 bin/obj/lib/mem/mem.o
                0xffff800040218db4                pa_supported_bits
 .text          0xffff800040218f24      0x790 bin/obj/drivers/arm_generic_timer/arm_generic_timer.o
                0xffff800040218f24                AGT_ns_to_cycles
                0xffff800040218fd0                AGT_us_to_cycles
                0xffff800040219070                AGT_cnt_cycles
                0xffff800040219084                AGT_cnt_freq
                0xffff800040219098                AGT_cnt_time_ns
                0xffff800040219100                AGT_cnt_time_us
                0xffff8000402191fc                AGT_timer_schedule_cycles
                0xffff8000402192ec                AGT_timer_schedule_delta
                0xffff8000402193fc                AGT_timer_is_armed
                0xffff800040219458                AGT_timer_has_fired
                0xffff8000402194ec                AGT_timer_cancel
                0xffff800040219548                AGT_handle_irq
                0xffff800040219644                AGT_init_stage0
 .text          0xffff8000402196b4     0x1fa8 bin/obj/drivers/tmu/tmu.o
                0xffff80004021a848                TMU_init_stage0
                0xffff80004021a99c                TMU_init_stage1
                0xffff80004021ad2c                TMU_handle_irq
                0xffff80004021adb8                TMU_set_warn_temp
                0xffff80004021afac                TMU_get_warnings_enabled
                0xffff80004021b0a4                TMU_enable_warnings
                0xffff80004021b110                TMU_disable_warnings
                0xffff80004021b17c                TMU_warn_pending
                0xffff80004021b1e8                TMU_set_critical_temp
                0xffff80004021b3dc                TMU_get_temp
 .text          0xffff80004021b65c     0x1294 bin/obj/drivers/interrupts/gicv3/gicv3.o
                0xffff80004021c190                GICV3_set_cpu_priority_threshold
                0xffff80004021c2ac                GICV3_set_spi_group1ns
                0xffff80004021c328                GICV3_route_spi_to_cpu
                0xffff80004021c3a8                GICV3_route_spi_to_self
                0xffff80004021c3d8                GICV3_enable_spi
                0xffff80004021c42c                GICV3_set_priority
                0xffff80004021c4a8                GICV3_set_edge_triggered
                0xffff80004021c520                GICV3_set_level_sensitive
                0xffff80004021c598                GICV3_wake_redistributor
                0xffff80004021c650                GICV3_init_distributor
                0xffff80004021c6a0                GICV3_init_cpu
                0xffff80004021c6cc                GICV3_init_irq
                0xffff80004021c7d4                GICV3_get_intid_el1
                0xffff80004021c7f0                GICV3_ack_intid_el1
                0xffff80004021c810                GICV3_enable_ppi
 .text          0xffff80004021c8f0     0x2bdc bin/obj/drivers/uart/uart.o
                0xffff80004021d918                uart_reset
                0xffff80004021daa4                uart_read
                0xffff80004021eae8                uart_handle_irq
                0xffff80004021eb90                uart_init_stage0
                0xffff80004021ee14                uart_init_stage1
                0xffff80004021eec4                uart_putc_sync
                0xffff80004021ef34                uart_puts_sync
                0xffff80004021f0cc                uart_putc
                0xffff80004021f13c                uart_puts
                0xffff80004021f1d8                uart_early_init
                0xffff80004021f410                uart_putc_early
                0xffff80004021f488                uart_puts_early
 .text          0xffff80004021f4cc        0x0 bin/obj/rslib.a(imx8mp_kernel-1a53598e06c50be6.imx8mp_kernel.241a9a11e0e6ae75-cgu.0.rcgu.o)
 .text._RNvCsiGVaDesi5rv_7___rustc17rust_begin_unwind
                0xffff80004021f4cc        0x4 bin/obj/rslib.a(imx8mp_kernel-1a53598e06c50be6.imx8mp_kernel.241a9a11e0e6ae75-cgu.0.rcgu.o)
                0xffff80004021f4cc                __rustc::rust_begin_unwind
 .text.pow2_ring_buffer_new
                0xffff80004021f4d0       0x70 bin/obj/rslib.a(imx8mp_kernel-1a53598e06c50be6.imx8mp_kernel.241a9a11e0e6ae75-cgu.0.rcgu.o)
                0xffff80004021f4d0                pow2_ring_buffer_new
 .text.pow2_ring_buffer_pop
                0xffff80004021f540       0x90 bin/obj/rslib.a(imx8mp_kernel-1a53598e06c50be6.imx8mp_kernel.241a9a11e0e6ae75-cgu.0.rcgu.o)
                0xffff80004021f540                pow2_ring_buffer_pop
 .text.pow2_ring_buffer_push
                0xffff80004021f5d0       0xbc bin/obj/rslib.a(imx8mp_kernel-1a53598e06c50be6.imx8mp_kernel.241a9a11e0e6ae75-cgu.0.rcgu.o)
                0xffff80004021f5d0                pow2_ring_buffer_push
 .text.rust_kernel_initcalls_stage0
                0xffff80004021f68c        0x4 bin/obj/rslib.a(imx8mp_kernel-1a53598e06c50be6.imx8mp_kernel.241a9a11e0e6ae75-cgu.0.rcgu.o)
                0xffff80004021f68c                rust_kernel_initcalls_stage1
                0xffff80004021f68c                rust_kernel_initcalls_stage2
                0xffff80004021f68c                rust_kernel_initcalls_stage0
 .text.unlikely.rust_test_panic
                0xffff80004021f690       0x2c bin/obj/rslib.a(imx8mp_kernel-1a53598e06c50be6.imx8mp_kernel.241a9a11e0e6ae75-cgu.0.rcgu.o)
                0xffff80004021f690                rust_test_panic
 .text.uart_rx_len
                0xffff80004021f6bc       0x18 bin/obj/rslib.a(imx8mp_kernel-1a53598e06c50be6.imx8mp_kernel.241a9a11e0e6ae75-cgu.0.rcgu.o)
                0xffff80004021f6bc                uart_rx_len
 .text.uart_rxbuf_pop
                0xffff80004021f6d4       0x58 bin/obj/rslib.a(imx8mp_kernel-1a53598e06c50be6.imx8mp_kernel.241a9a11e0e6ae75-cgu.0.rcgu.o)
                0xffff80004021f6d4                uart_rxbuf_pop
 .text.uart_rxbuf_push
                0xffff80004021f72c       0x6c bin/obj/rslib.a(imx8mp_kernel-1a53598e06c50be6.imx8mp_kernel.241a9a11e0e6ae75-cgu.0.rcgu.o)
                0xffff80004021f72c                uart_rxbuf_push
 .text.uart_tx_len
                0xffff80004021f798       0x18 bin/obj/rslib.a(imx8mp_kernel-1a53598e06c50be6.imx8mp_kernel.241a9a11e0e6ae75-cgu.0.rcgu.o)
                0xffff80004021f798                uart_tx_len
 .text.uart_txbuf_pop
                0xffff80004021f7b0       0x68 bin/obj/rslib.a(imx8mp_kernel-1a53598e06c50be6.imx8mp_kernel.241a9a11e0e6ae75-cgu.0.rcgu.o)
                0xffff80004021f7b0                uart_txbuf_pop
 .text.uart_txbuf_push
                0xffff80004021f818       0x60 bin/obj/rslib.a(imx8mp_kernel-1a53598e06c50be6.imx8mp_kernel.241a9a11e0e6ae75-cgu.0.rcgu.o)
                0xffff80004021f818                uart_txbuf_push
 .text          0xffff80004021f878        0x0 bin/obj/rslib.a(core-dca77d77b03929cc.core.bbd04c23a4fa3c72-cgu.0.rcgu.o)
 .text._ZN101_$LT$core..char..CaseMappingIter$u20$as$u20$core..iter..traits..double_ended..DoubleEndedIterator$GT$15advance_back_by17hf0d6f1ce58d3f07dE
                0xffff80004021f878       0x28 bin/obj/rslib.a(core-dca77d77b03929cc.core.bbd04c23a4fa3c72-cgu.0.rcgu.o)
                0xffff80004021f878                <core::char::CaseMappingIter as core::iter::traits::double_ended::DoubleEndedIterator>::advance_back_by
 .text._ZN101_$LT$core..char..CaseMappingIter$u20$as$u20$core..iter..traits..double_ended..DoubleEndedIterator$GT$9next_back17hc65cc64a3027a392E
                0xffff80004021f8a0       0x28 bin/obj/rslib.a(core-dca77d77b03929cc.core.bbd04c23a4fa3c72-cgu.0.rcgu.o)
                0xffff80004021f8a0                <core::char::CaseMappingIter as core::iter::traits::double_ended::DoubleEndedIterator>::next_back
 .text._ZN105_$LT$core..slice..ascii..EscapeAscii$u20$as$u20$core..iter..traits..double_ended..DoubleEndedIterator$GT$9next_back17h61446658ee893423E
                0xffff80004021f8c8      0x120 bin/obj/rslib.a(core-dca77d77b03929cc.core.bbd04c23a4fa3c72-cgu.0.rcgu.o)
                0xffff80004021f8c8                <core::slice::ascii::EscapeAscii as core::iter::traits::double_ended::DoubleEndedIterator>::next_back
 .text._ZN105_$LT$dyn$u20$core..any..Any$u2b$core..marker..Send$u2b$core..marker..Sync$u20$as$u20$core..fmt..Debug$GT$3fmt17hd0716b989b3da57dE
                0xffff80004021f9e8       0x60 bin/obj/rslib.a(core-dca77d77b03929cc.core.bbd04c23a4fa3c72-cgu.0.rcgu.o)
                0xffff80004021f9e8                <dyn core::any::Any as core::fmt::Debug>::fmt
                0xffff80004021f9e8                <dyn core::any::Any+core::marker::Send as core::fmt::Debug>::fmt
                0xffff80004021f9e8                <dyn core::any::Any+core::marker::Send+core::marker::Sync as core::fmt::Debug>::fmt
 .text._ZN110_$LT$$LT$core..wtf8..EncodeWide$u20$as$u20$core..fmt..Debug$GT$..fmt..CodeUnit$u20$as$u20$core..fmt..Debug$GT$3fmt17hda14d4f4daf3c5c9E
                0xffff80004021fa48       0xa0 bin/obj/rslib.a(core-dca77d77b03929cc.core.bbd04c23a4fa3c72-cgu.0.rcgu.o)
                0xffff80004021fa48                <<core::wtf8::EncodeWide as core::fmt::Debug>::fmt::CodeUnit as core::fmt::Debug>::fmt
 .text._ZN116_$LT$core..net..ip_addr..Ipv4Addr$u20$as$u20$core..ops..bit..BitOrAssign$LT$$RF$core..net..ip_addr..Ipv4Addr$GT$$GT$12bitor_assign17h2747ee25fbf1738bE
                0xffff80004021fae8       0x80 bin/obj/rslib.a(core-dca77d77b03929cc.core.bbd04c23a4fa3c72-cgu.0.rcgu.o)
                0xffff80004021fae8                <core::net::ip_addr::Ipv4Addr as core::ops::bit::BitOrAssign<&core::net::ip_addr::Ipv4Addr>>::bitor_assign
 .text._ZN116_$LT$core..net..ip_addr..Ipv6Addr$u20$as$u20$core..ops..bit..BitOrAssign$LT$$RF$core..net..ip_addr..Ipv6Addr$GT$$GT$12bitor_assign17hff885b6f68f5609cE
                0xffff80004021fb68      0x1d0 bin/obj/rslib.a(core-dca77d77b03929cc.core.bbd04c23a4fa3c72-cgu.0.rcgu.o)
                0xffff80004021fb68                <core::net::ip_addr::Ipv6Addr as core::ops::bit::BitOrAssign<&core::net::ip_addr::Ipv6Addr>>::bitor_assign
 .text._ZN117_$LT$core..net..ip_addr..Ipv4Addr$u20$as$u20$core..ops..bit..BitAndAssign$LT$$RF$core..net..ip_addr..Ipv4Addr$GT$$GT$13bitand_assign17hb3faa6ba9d6ecb06E
                0xffff80004021fd38       0x80 bin/obj/rslib.a(core-dca77d77b03929cc.core.bbd04c23a4fa3c72-cgu.0.rcgu.o)
                0xffff80004021fd38                <core::net::ip_addr::Ipv4Addr as core::ops::bit::BitAndAssign<&core::net::ip_addr::Ipv4Addr>>::bitand_assign
 .text._ZN117_$LT$core..net..ip_addr..Ipv6Addr$u20$as$u20$core..ops..bit..BitAndAssign$LT$$RF$core..net..ip_addr..Ipv6Addr$GT$$GT$13bitand_assign17hb1c67c235aa10d9dE
                0xffff80004021fdb8      0x1d0 bin/obj/rslib.a(core-dca77d77b03929cc.core.bbd04c23a4fa3c72-cgu.0.rcgu.o)
                0xffff80004021fdb8                <core::net::ip_addr::Ipv6Addr as core::ops::bit::BitAndAssign<&core::net::ip_addr::Ipv6Addr>>::bitand_assign
 .text._ZN40_$LT$str$u20$as$u20$core..fmt..Debug$GT$3fmt17h5f6f1bf3a0007201E
                0xffff80004021ff88      0x3b0 bin/obj/rslib.a(core-dca77d77b03929cc.core.bbd04c23a4fa3c72-cgu.0.rcgu.o)
                0xffff80004021ff88                <str as core::fmt::Debug>::fmt
 .text._ZN41_$LT$char$u20$as$u20$core..fmt..Debug$GT$3fmt17h05bf1d95c56e9d68E
                0xffff800040220338       0xe4 bin/obj/rslib.a(core-dca77d77b03929cc.core.bbd04c23a4fa3c72-cgu.0.rcgu.o)
                0xffff800040220338                <char as core::fmt::Debug>::fmt
 .text._ZN42_$LT$$RF$T$u20$as$u20$core..fmt..Debug$GT$3fmt17h2cdcb51347d218f7E
                0xffff80004022041c        0x8 bin/obj/rslib.a(core-dca77d77b03929cc.core.bbd04c23a4fa3c72-cgu.0.rcgu.o)
 .text._ZN42_$LT$$RF$T$u20$as$u20$core..fmt..Debug$GT$3fmt17h479b8efc69ca8267E
                0xffff800040220424        0x8 bin/obj/rslib.a(core-dca77d77b03929cc.core.bbd04c23a4fa3c72-cgu.0.rcgu.o)
 .text._ZN42_$LT$$RF$T$u20$as$u20$core..fmt..Debug$GT$3fmt17h5583193454f8b8d6E
                0xffff80004022042c      0x164 bin/obj/rslib.a(core-dca77d77b03929cc.core.bbd04c23a4fa3c72-cgu.0.rcgu.o)
 .text._ZN42_$LT$$RF$T$u20$as$u20$core..fmt..Debug$GT$3fmt17h56b7a391078316eaE
                0xffff800040220590        0xc bin/obj/rslib.a(core-dca77d77b03929cc.core.bbd04c23a4fa3c72-cgu.0.rcgu.o)
 .text._ZN42_$LT$$RF$T$u20$as$u20$core..fmt..Debug$GT$3fmt17h7040e3522c936441E
                0xffff80004022059c        0xc bin/obj/rslib.a(core-dca77d77b03929cc.core.bbd04c23a4fa3c72-cgu.0.rcgu.o)
 .text._ZN42_$LT$$RF$T$u20$as$u20$core..fmt..Debug$GT$3fmt17h73d6b45e08bc8e15E
                0xffff8000402205a8       0x14 bin/obj/rslib.a(core-dca77d77b03929cc.core.bbd04c23a4fa3c72-cgu.0.rcgu.o)
 .text._ZN42_$LT$$RF$T$u20$as$u20$core..fmt..Debug$GT$3fmt17ha642bfdd7996c379E
                0xffff8000402205bc       0x14 bin/obj/rslib.a(core-dca77d77b03929cc.core.bbd04c23a4fa3c72-cgu.0.rcgu.o)
 .text._ZN42_$LT$str$u20$as$u20$core..fmt..Display$GT$3fmt17hc0780a4df539a16aE
                0xffff8000402205d0       0x14 bin/obj/rslib.a(core-dca77d77b03929cc.core.bbd04c23a4fa3c72-cgu.0.rcgu.o)
                0xffff8000402205d0                <str as core::fmt::Display>::fmt
 .text._ZN43_$LT$bool$u20$as$u20$core..fmt..Display$GT$3fmt17h9806e9f5fa916ff1E
                0xffff8000402205e4       0x2c bin/obj/rslib.a(core-dca77d77b03929cc.core.bbd04c23a4fa3c72-cgu.0.rcgu.o)
                0xffff8000402205e4                <bool as core::fmt::Display>::fmt
 .text._ZN43_$LT$char$u20$as$u20$core..fmt..Display$GT$3fmt17h83f04f7b2308e64bE
                0xffff800040220610       0xf8 bin/obj/rslib.a(core-dca77d77b03929cc.core.bbd04c23a4fa3c72-cgu.0.rcgu.o)
                0xffff800040220610                <char as core::fmt::Display>::fmt
 .text._ZN44_$LT$$RF$T$u20$as$u20$core..fmt..Display$GT$3fmt17h703b070ad8b43283E
                0xffff800040220708        0x8 bin/obj/rslib.a(core-dca77d77b03929cc.core.bbd04c23a4fa3c72-cgu.0.rcgu.o)
 .text._ZN44_$LT$$RF$T$u20$as$u20$core..fmt..Display$GT$3fmt17h9bd2ce85ae1d3eddE
                0xffff800040220710      0x158 bin/obj/rslib.a(core-dca77d77b03929cc.core.bbd04c23a4fa3c72-cgu.0.rcgu.o)
 .text._ZN44_$LT$$RF$T$u20$as$u20$core..fmt..Display$GT$3fmt17hac20f0bb39cfdd9eE
                0xffff800040220868       0x10 bin/obj/rslib.a(core-dca77d77b03929cc.core.bbd04c23a4fa3c72-cgu.0.rcgu.o)
 .text._ZN44_$LT$$RF$T$u20$as$u20$core..fmt..Display$GT$3fmt17hfec459358b2b0a7cE
                0xffff800040220878        0x8 bin/obj/rslib.a(core-dca77d77b03929cc.core.bbd04c23a4fa3c72-cgu.0.rcgu.o)
 .text._ZN45_$LT$$RF$T$u20$as$u20$core..fmt..LowerHex$GT$3fmt17h05bd91b15c4ae0d9E
                0xffff800040220880       0x7c bin/obj/rslib.a(core-dca77d77b03929cc.core.bbd04c23a4fa3c72-cgu.0.rcgu.o)
 .text._ZN46_$LT$i8$u20$as$u20$core..pat..RangePattern$GT$7sub_one17h9a01a105c96fcbd5E
                0xffff8000402208fc       0x48 bin/obj/rslib.a(core-dca77d77b03929cc.core.bbd04c23a4fa3c72-cgu.0.rcgu.o)
                0xffff8000402208fc                <i8 as core::pat::RangePattern>::sub_one
 .text._ZN46_$LT$u8$u20$as$u20$core..pat..RangePattern$GT$7sub_one17h670240648e8e7fb4E
                0xffff800040220944       0x40 bin/obj/rslib.a(core-dca77d77b03929cc.core.bbd04c23a4fa3c72-cgu.0.rcgu.o)
                0xffff800040220944                <u8 as core::pat::RangePattern>::sub_one
 .text._ZN47_$LT$i16$u20$as$u20$core..pat..RangePattern$GT$7sub_one17h541e4bf249e12cddE
                0xffff800040220984       0x48 bin/obj/rslib.a(core-dca77d77b03929cc.core.bbd04c23a4fa3c72-cgu.0.rcgu.o)
                0xffff800040220984                <i16 as core::pat::RangePattern>::sub_one
 .text._ZN47_$LT$i32$u20$as$u20$core..pat..RangePattern$GT$7sub_one17h97b022b5d897e388E
                0xffff8000402209cc       0x3c bin/obj/rslib.a(core-dca77d77b03929cc.core.bbd04c23a4fa3c72-cgu.0.rcgu.o)
                0xffff8000402209cc                <i32 as core::pat::RangePattern>::sub_one
 .text._ZN47_$LT$i64$u20$as$u20$core..pat..RangePattern$GT$7sub_one17h0d4cbf88673eab66E
                0xffff800040220a08       0x3c bin/obj/rslib.a(core-dca77d77b03929cc.core.bbd04c23a4fa3c72-cgu.0.rcgu.o)
                0xffff800040220a08                <i64 as core::pat::RangePattern>::sub_one
                0xffff800040220a08                <isize as core::pat::RangePattern>::sub_one
 .text._ZN47_$LT$u16$u20$as$u20$core..pat..RangePattern$GT$7sub_one17hf1b3147e5737ed06E
                0xffff800040220a44       0x40 bin/obj/rslib.a(core-dca77d77b03929cc.core.bbd04c23a4fa3c72-cgu.0.rcgu.o)
                0xffff800040220a44                <u16 as core::pat::RangePattern>::sub_one
 .text._ZN47_$LT$u32$u20$as$u20$core..pat..RangePattern$GT$7sub_one17h5f94339af8ab10a1E
                0xffff800040220a84       0x3c bin/obj/rslib.a(core-dca77d77b03929cc.core.bbd04c23a4fa3c72-cgu.0.rcgu.o)
                0xffff800040220a84                <u32 as core::pat::RangePattern>::sub_one
 .text._ZN47_$LT$u64$u20$as$u20$core..pat..RangePattern$GT$7sub_one17h24c018f405b1f310E
                0xffff800040220ac0       0x3c bin/obj/rslib.a(core-dca77d77b03929cc.core.bbd04c23a4fa3c72-cgu.0.rcgu.o)
                0xffff800040220ac0                <usize as core::pat::RangePattern>::sub_one
                0xffff800040220ac0                <u64 as core::pat::RangePattern>::sub_one
 .text._ZN48_$LT$char$u20$as$u20$core..pat..RangePattern$GT$7sub_one17he70177f83f7ceafcE
                0xffff800040220afc       0x54 bin/obj/rslib.a(core-dca77d77b03929cc.core.bbd04c23a4fa3c72-cgu.0.rcgu.o)
                0xffff800040220afc                <char as core::pat::RangePattern>::sub_one
 .text._ZN48_$LT$i128$u20$as$u20$core..pat..RangePattern$GT$7sub_one17hcbc11fca96f2cd53E
                0xffff800040220b50       0x4c bin/obj/rslib.a(core-dca77d77b03929cc.core.bbd04c23a4fa3c72-cgu.0.rcgu.o)
                0xffff800040220b50                <i128 as core::pat::RangePattern>::sub_one
 .text._ZN48_$LT$u128$u20$as$u20$core..pat..RangePattern$GT$7sub_one17h082c3491375e9509E
                0xffff800040220b9c       0x4c bin/obj/rslib.a(core-dca77d77b03929cc.core.bbd04c23a4fa3c72-cgu.0.rcgu.o)
                0xffff800040220b9c                <u128 as core::pat::RangePattern>::sub_one
 .text._ZN49_$LT$u8$u20$as$u20$core..num..bignum..FullOps$GT$12full_div_rem17h6fed2e224afbc72dE
                0xffff800040220be8       0x38 bin/obj/rslib.a(core-dca77d77b03929cc.core.bbd04c23a4fa3c72-cgu.0.rcgu.o)
                0xffff800040220be8                <u8 as core::num::bignum::FullOps>::full_div_rem
 .text.unlikely._ZN4core3f3221_$LT$impl$u20$f32$GT$5clamp8do_panic7runtime17h36a43f140f64d661E
                0xffff800040220c20       0x50 bin/obj/rslib.a(core-dca77d77b03929cc.core.bbd04c23a4fa3c72-cgu.0.rcgu.o)
                0xffff800040220c20                core::f32::<impl f32>::clamp::do_panic::runtime
 .text.unlikely._ZN4core3f6421_$LT$impl$u20$f64$GT$5clamp8do_panic7runtime17h94d48098c87e850eE
                0xffff800040220c70       0x50 bin/obj/rslib.a(core-dca77d77b03929cc.core.bbd04c23a4fa3c72-cgu.0.rcgu.o)
                0xffff800040220c70                core::f64::<impl f64>::clamp::do_panic::runtime
 .text._ZN4core3ffi5c_str4CStr19from_bytes_with_nul17hf7126ca100a56b9eE
                0xffff800040220cc0       0xf0 bin/obj/rslib.a(core-dca77d77b03929cc.core.bbd04c23a4fa3c72-cgu.0.rcgu.o)
                0xffff800040220cc0                core::ffi::c_str::CStr::from_bytes_with_nul
 .text._ZN4core3ffi5c_str4CStr20from_bytes_until_nul17h4a4d4ec068c826baE
                0xffff800040220db0       0xdc bin/obj/rslib.a(core-dca77d77b03929cc.core.bbd04c23a4fa3c72-cgu.0.rcgu.o)
                0xffff800040220db0                core::ffi::c_str::CStr::from_bytes_until_nul
 .text._ZN4core3ffi5c_str4CStr6to_str17hf906734cbe15885eE
                0xffff800040220e8c        0x8 bin/obj/rslib.a(core-dca77d77b03929cc.core.bbd04c23a4fa3c72-cgu.0.rcgu.o)
                0xffff800040220e8c                core::ffi::c_str::CStr::to_str
 .text._ZN4core3fmt17FormattingOptions8get_fill17he0043a57724473c7E
                0xffff800040220e94        0xc bin/obj/rslib.a(core-dca77d77b03929cc.core.bbd04c23a4fa3c72-cgu.0.rcgu.o)
                0xffff800040220e94                core::fmt::FormattingOptions::get_fill
 .text._ZN4core3fmt17pointer_fmt_inner17h9512fbe23d32d8a3E
                0xffff800040220ea0       0xb8 bin/obj/rslib.a(core-dca77d77b03929cc.core.bbd04c23a4fa3c72-cgu.0.rcgu.o)
                0xffff800040220ea0                core::fmt::pointer_fmt_inner
 .text._ZN4core3fmt3num22_$LT$impl$u20$i128$GT$11format_into17h7da8cadabd24f583E
                0xffff800040220f58       0x74 bin/obj/rslib.a(core-dca77d77b03929cc.core.bbd04c23a4fa3c72-cgu.0.rcgu.o)
                0xffff800040220f58                core::fmt::num::<impl i128>::format_into
 .text._ZN4core3fmt3num22_$LT$impl$u20$u128$GT$10_fmt_inner17hf030a7152409751aE
                0xffff800040220fcc      0x578 bin/obj/rslib.a(core-dca77d77b03929cc.core.bbd04c23a4fa3c72-cgu.0.rcgu.o)
 .text._ZN4core3fmt3num22_$LT$impl$u20$u128$GT$11format_into17h5dee2ace129fe29cE
                0xffff800040221544       0x34 bin/obj/rslib.a(core-dca77d77b03929cc.core.bbd04c23a4fa3c72-cgu.0.rcgu.o)
                0xffff800040221544                core::fmt::num::<impl u128>::format_into
 .text._ZN4core3fmt3num22_$LT$impl$u20$u128$GT$4_fmt17ha65d27b87d338669E
                0xffff800040221578       0x2c bin/obj/rslib.a(core-dca77d77b03929cc.core.bbd04c23a4fa3c72-cgu.0.rcgu.o)
                0xffff800040221578                core::fmt::num::<impl u128>::_fmt
 .text._ZN4core3fmt3num3imp20_$LT$impl$u20$i8$GT$11format_into17hfa6336419ff83042E
                0xffff8000402215a4      0x134 bin/obj/rslib.a(core-dca77d77b03929cc.core.bbd04c23a4fa3c72-cgu.0.rcgu.o)
                0xffff8000402215a4                core::fmt::num::imp::<impl i8>::format_into
 .text._ZN4core3fmt3num3imp20_$LT$impl$u20$u8$GT$11format_into17h879b7eff6dae2147E
                0xffff8000402216d8       0xa0 bin/obj/rslib.a(core-dca77d77b03929cc.core.bbd04c23a4fa3c72-cgu.0.rcgu.o)
                0xffff8000402216d8                core::fmt::num::imp::<impl u8>::format_into
 .text._ZN4core3fmt3num3imp20_$LT$impl$u20$u8$GT$4_fmt17ha676af9982528506E
                0xffff800040221778       0x90 bin/obj/rslib.a(core-dca77d77b03929cc.core.bbd04c23a4fa3c72-cgu.0.rcgu.o)
                0xffff800040221778                core::fmt::num::imp::<impl u8>::_fmt
 .text._ZN4core3fmt3num3imp21_$LT$impl$u20$i16$GT$11format_into17h2f71a14c8f3a6320E
                0xffff800040221808      0x1ec bin/obj/rslib.a(core-dca77d77b03929cc.core.bbd04c23a4fa3c72-cgu.0.rcgu.o)
                0xffff800040221808                core::fmt::num::imp::<impl i16>::format_into
 .text._ZN4core3fmt3num3imp21_$LT$impl$u20$i32$GT$11format_into17hbc98fbdd3b5c6d6eE
                0xffff8000402219f4      0x274 bin/obj/rslib.a(core-dca77d77b03929cc.core.bbd04c23a4fa3c72-cgu.0.rcgu.o)
                0xffff8000402219f4                core::fmt::num::imp::<impl i32>::format_into
 .text._ZN4core3fmt3num3imp21_$LT$impl$u20$i64$GT$11format_into17he56d1a706514badaE
                0xffff800040221c68      0x27c bin/obj/rslib.a(core-dca77d77b03929cc.core.bbd04c23a4fa3c72-cgu.0.rcgu.o)
                0xffff800040221c68                core::fmt::num::imp::<impl isize>::format_into
                0xffff800040221c68                core::fmt::num::imp::<impl i64>::format_into
 .text._ZN4core3fmt3num3imp21_$LT$impl$u20$u16$GT$11format_into17hf5acce3bc060a7a4E
                0xffff800040221ee4       0xf8 bin/obj/rslib.a(core-dca77d77b03929cc.core.bbd04c23a4fa3c72-cgu.0.rcgu.o)
                0xffff800040221ee4                core::fmt::num::imp::<impl u16>::format_into
 .text._ZN4core3fmt3num3imp21_$LT$impl$u20$u16$GT$4_fmt17h9b16707f2c4d83c7E
                0xffff800040221fdc      0x108 bin/obj/rslib.a(core-dca77d77b03929cc.core.bbd04c23a4fa3c72-cgu.0.rcgu.o)
                0xffff800040221fdc                core::fmt::num::imp::<impl u16>::_fmt
 .text._ZN4core3fmt3num3imp21_$LT$impl$u20$u32$GT$11format_into17h699a29a216c381bfE
                0xffff8000402220e4      0x12c bin/obj/rslib.a(core-dca77d77b03929cc.core.bbd04c23a4fa3c72-cgu.0.rcgu.o)
                0xffff8000402220e4                core::fmt::num::imp::<impl u32>::format_into
 .text._ZN4core3fmt3num3imp21_$LT$impl$u20$u32$GT$4_fmt17hc5bdfc1c3dd3fd08E
                0xffff800040222210      0x130 bin/obj/rslib.a(core-dca77d77b03929cc.core.bbd04c23a4fa3c72-cgu.0.rcgu.o)
                0xffff800040222210                core::fmt::num::imp::<impl u32>::_fmt
 .text._ZN4core3fmt3num3imp21_$LT$impl$u20$u64$GT$11format_into17he2b4201a970f20d7E
                0xffff800040222340      0x130 bin/obj/rslib.a(core-dca77d77b03929cc.core.bbd04c23a4fa3c72-cgu.0.rcgu.o)
                0xffff800040222340                core::fmt::num::imp::<impl u64>::format_into
                0xffff800040222340                core::fmt::num::imp::<impl usize>::format_into
 .text._ZN4core3fmt3num3imp21_$LT$impl$u20$u64$GT$4_fmt17hf5cf8cc64887d18dE
                0xffff800040222470      0x134 bin/obj/rslib.a(core-dca77d77b03929cc.core.bbd04c23a4fa3c72-cgu.0.rcgu.o)
                0xffff800040222470                core::fmt::num::imp::<impl u64>::_fmt
                0xffff800040222470                core::fmt::num::imp::<impl usize>::_fmt
 .text._ZN4core3fmt3num3imp51_$LT$impl$u20$core..fmt..Display$u20$for$u20$i8$GT$3fmt17hcb39de988782ba27E
                0xffff8000402225a4       0xcc bin/obj/rslib.a(core-dca77d77b03929cc.core.bbd04c23a4fa3c72-cgu.0.rcgu.o)
                0xffff8000402225a4                core::fmt::num::imp::<impl core::fmt::Display for i8>::fmt
 .text._ZN4core3fmt3num3imp51_$LT$impl$u20$core..fmt..Display$u20$for$u20$u8$GT$3fmt17hf7d8c920e29b5333E
                0xffff800040222670       0xac bin/obj/rslib.a(core-dca77d77b03929cc.core.bbd04c23a4fa3c72-cgu.0.rcgu.o)
                0xffff800040222670                core::fmt::num::imp::<impl core::fmt::Display for u8>::fmt
 .text._ZN4core3fmt3num3imp52_$LT$impl$u20$core..fmt..Display$u20$for$u20$i16$GT$3fmt17h104a3911dccd2ff7E
                0xffff80004022271c      0x11c bin/obj/rslib.a(core-dca77d77b03929cc.core.bbd04c23a4fa3c72-cgu.0.rcgu.o)
                0xffff80004022271c                core::fmt::num::imp::<impl core::fmt::Display for i16>::fmt
 .text._ZN4core3fmt3num3imp52_$LT$impl$u20$core..fmt..Display$u20$for$u20$i32$GT$3fmt17h80bd409755b2ddaeE
                0xffff800040222838      0x158 bin/obj/rslib.a(core-dca77d77b03929cc.core.bbd04c23a4fa3c72-cgu.0.rcgu.o)
                0xffff800040222838                core::fmt::num::imp::<impl core::fmt::Display for i32>::fmt
 .text._ZN4core3fmt3num3imp52_$LT$impl$u20$core..fmt..Display$u20$for$u20$i64$GT$3fmt17h1e801d532e5ecaafE
                0xffff800040222990      0x15c bin/obj/rslib.a(core-dca77d77b03929cc.core.bbd04c23a4fa3c72-cgu.0.rcgu.o)
                0xffff800040222990                core::fmt::num::imp::<impl core::fmt::Display for isize>::fmt
                0xffff800040222990                core::fmt::num::imp::<impl core::fmt::Display for i64>::fmt
 .text._ZN4core3fmt3num3imp52_$LT$impl$u20$core..fmt..Display$u20$for$u20$u16$GT$3fmt17hdb2998ab968581d1E
                0xffff800040222aec      0x104 bin/obj/rslib.a(core-dca77d77b03929cc.core.bbd04c23a4fa3c72-cgu.0.rcgu.o)
                0xffff800040222aec                core::fmt::num::imp::<impl core::fmt::Display for u16>::fmt
 .text._ZN4core3fmt3num3imp52_$LT$impl$u20$core..fmt..Display$u20$for$u20$u32$GT$3fmt17h0b158e54c199f5dbE
                0xffff800040222bf0      0x14c bin/obj/rslib.a(core-dca77d77b03929cc.core.bbd04c23a4fa3c72-cgu.0.rcgu.o)
                0xffff800040222bf0                core::fmt::num::imp::<impl core::fmt::Display for u32>::fmt
 .text._ZN4core3fmt3num3imp52_$LT$impl$u20$core..fmt..Display$u20$for$u20$u64$GT$3fmt17h64f3911dafa6269fE
                0xffff800040222d3c      0x154 bin/obj/rslib.a(core-dca77d77b03929cc.core.bbd04c23a4fa3c72-cgu.0.rcgu.o)
                0xffff800040222d3c                core::fmt::num::imp::<impl core::fmt::Display for usize>::fmt
                0xffff800040222d3c                core::fmt::num::imp::<impl core::fmt::Display for u64>::fmt
 .text._ZN4core3fmt3num3imp52_$LT$impl$u20$core..fmt..LowerExp$u20$for$u20$i8$GT$3fmt17h58d82f5837eb5be0E
                0xffff800040222e90       0x24 bin/obj/rslib.a(core-dca77d77b03929cc.core.bbd04c23a4fa3c72-cgu.0.rcgu.o)
                0xffff800040222e90                core::fmt::num::imp::<impl core::fmt::LowerExp for i8>::fmt
 .text._ZN4core3fmt3num3imp52_$LT$impl$u20$core..fmt..LowerExp$u20$for$u20$u8$GT$3fmt17h501ecc2dbdd34467E
                0xffff800040222eb4       0x18 bin/obj/rslib.a(core-dca77d77b03929cc.core.bbd04c23a4fa3c72-cgu.0.rcgu.o)
                0xffff800040222eb4                core::fmt::num::imp::<impl core::fmt::LowerExp for u8>::fmt
 .text._ZN4core3fmt3num3imp52_$LT$impl$u20$core..fmt..UpperExp$u20$for$u20$i8$GT$3fmt17ha0f846b22050294aE
                0xffff800040222ecc       0x24 bin/obj/rslib.a(core-dca77d77b03929cc.core.bbd04c23a4fa3c72-cgu.0.rcgu.o)
                0xffff800040222ecc                core::fmt::num::imp::<impl core::fmt::UpperExp for i8>::fmt
 .text._ZN4core3fmt3num3imp52_$LT$impl$u20$core..fmt..UpperExp$u20$for$u20$u8$GT$3fmt17h010e9c1ce5bc6f83E
                0xffff800040222ef0       0x18 bin/obj/rslib.a(core-dca77d77b03929cc.core.bbd04c23a4fa3c72-cgu.0.rcgu.o)
                0xffff800040222ef0                core::fmt::num::imp::<impl core::fmt::UpperExp for u8>::fmt
 .text._ZN4core3fmt3num3imp53_$LT$impl$u20$core..fmt..LowerExp$u20$for$u20$i16$GT$3fmt17h0ef11d9cfa7db045E
                0xffff800040222f08       0x24 bin/obj/rslib.a(core-dca77d77b03929cc.core.bbd04c23a4fa3c72-cgu.0.rcgu.o)
                0xffff800040222f08                core::fmt::num::imp::<impl core::fmt::LowerExp for i16>::fmt
 .text._ZN4core3fmt3num3imp53_$LT$impl$u20$core..fmt..LowerExp$u20$for$u20$i32$GT$3fmt17h73a92d63361655e1E
                0xffff800040222f2c       0x24 bin/obj/rslib.a(core-dca77d77b03929cc.core.bbd04c23a4fa3c72-cgu.0.rcgu.o)
                0xffff800040222f2c                core::fmt::num::imp::<impl core::fmt::LowerExp for i32>::fmt
 .text._ZN4core3fmt3num3imp53_$LT$impl$u20$core..fmt..LowerExp$u20$for$u20$i64$GT$3fmt17he8eaeb98c7470710E
                0xffff800040222f50       0x24 bin/obj/rslib.a(core-dca77d77b03929cc.core.bbd04c23a4fa3c72-cgu.0.rcgu.o)
                0xffff800040222f50                core::fmt::num::imp::<impl core::fmt::LowerExp for isize>::fmt
                0xffff800040222f50                core::fmt::num::imp::<impl core::fmt::LowerExp for i64>::fmt
 .text._ZN4core3fmt3num3imp53_$LT$impl$u20$core..fmt..LowerExp$u20$for$u20$u16$GT$3fmt17h49c4e818814d45dbE
                0xffff800040222f74       0x18 bin/obj/rslib.a(core-dca77d77b03929cc.core.bbd04c23a4fa3c72-cgu.0.rcgu.o)
                0xffff800040222f74                core::fmt::num::imp::<impl core::fmt::LowerExp for u16>::fmt
 .text._ZN4core3fmt3num3imp53_$LT$impl$u20$core..fmt..LowerExp$u20$for$u20$u32$GT$3fmt17h158f35b2865c949eE
                0xffff800040222f8c       0x18 bin/obj/rslib.a(core-dca77d77b03929cc.core.bbd04c23a4fa3c72-cgu.0.rcgu.o)
                0xffff800040222f8c                core::fmt::num::imp::<impl core::fmt::LowerExp for u32>::fmt
 .text._ZN4core3fmt3num3imp53_$LT$impl$u20$core..fmt..LowerExp$u20$for$u20$u64$GT$3fmt17hd02b9c2dab05dc10E
                0xffff800040222fa4       0x18 bin/obj/rslib.a(core-dca77d77b03929cc.core.bbd04c23a4fa3c72-cgu.0.rcgu.o)
                0xffff800040222fa4                core::fmt::num::imp::<impl core::fmt::LowerExp for usize>::fmt
                0xffff800040222fa4                core::fmt::num::imp::<impl core::fmt::LowerExp for u64>::fmt
 .text._ZN4core3fmt3num3imp53_$LT$impl$u20$core..fmt..UpperExp$u20$for$u20$i16$GT$3fmt17h3fab035472132d68E
                0xffff800040222fbc       0x24 bin/obj/rslib.a(core-dca77d77b03929cc.core.bbd04c23a4fa3c72-cgu.0.rcgu.o)
                0xffff800040222fbc                core::fmt::num::imp::<impl core::fmt::UpperExp for i16>::fmt
 .text._ZN4core3fmt3num3imp53_$LT$impl$u20$core..fmt..UpperExp$u20$for$u20$i32$GT$3fmt17hc873c09afcd74914E
                0xffff800040222fe0       0x24 bin/obj/rslib.a(core-dca77d77b03929cc.core.bbd04c23a4fa3c72-cgu.0.rcgu.o)
                0xffff800040222fe0                core::fmt::num::imp::<impl core::fmt::UpperExp for i32>::fmt
 .text._ZN4core3fmt3num3imp53_$LT$impl$u20$core..fmt..UpperExp$u20$for$u20$i64$GT$3fmt17he2f6e251da279662E
                0xffff800040223004       0x24 bin/obj/rslib.a(core-dca77d77b03929cc.core.bbd04c23a4fa3c72-cgu.0.rcgu.o)
                0xffff800040223004                core::fmt::num::imp::<impl core::fmt::UpperExp for isize>::fmt
                0xffff800040223004                core::fmt::num::imp::<impl core::fmt::UpperExp for i64>::fmt
 .text._ZN4core3fmt3num3imp53_$LT$impl$u20$core..fmt..UpperExp$u20$for$u20$u16$GT$3fmt17h2e49b62056d088d3E
                0xffff800040223028       0x18 bin/obj/rslib.a(core-dca77d77b03929cc.core.bbd04c23a4fa3c72-cgu.0.rcgu.o)
                0xffff800040223028                core::fmt::num::imp::<impl core::fmt::UpperExp for u16>::fmt
 .text._ZN4core3fmt3num3imp53_$LT$impl$u20$core..fmt..UpperExp$u20$for$u20$u32$GT$3fmt17h67f329f6a561b042E
                0xffff800040223040       0x18 bin/obj/rslib.a(core-dca77d77b03929cc.core.bbd04c23a4fa3c72-cgu.0.rcgu.o)
                0xffff800040223040                core::fmt::num::imp::<impl core::fmt::UpperExp for u32>::fmt
 .text._ZN4core3fmt3num3imp53_$LT$impl$u20$core..fmt..UpperExp$u20$for$u20$u64$GT$3fmt17h089d5041d0086602E
                0xffff800040223058       0x18 bin/obj/rslib.a(core-dca77d77b03929cc.core.bbd04c23a4fa3c72-cgu.0.rcgu.o)
                0xffff800040223058                core::fmt::num::imp::<impl core::fmt::UpperExp for usize>::fmt
                0xffff800040223058                core::fmt::num::imp::<impl core::fmt::UpperExp for u64>::fmt
 .text._ZN4core3fmt3num3imp7exp_u6417hcfe3e43662793de3E
                0xffff800040223070      0x540 bin/obj/rslib.a(core-dca77d77b03929cc.core.bbd04c23a4fa3c72-cgu.0.rcgu.o)
 .text._ZN4core3fmt3num49_$LT$impl$u20$core..fmt..Debug$u20$for$u20$i8$GT$3fmt17h827ef15b7c2cc75eE
                0xffff8000402235b0      0x18c bin/obj/rslib.a(core-dca77d77b03929cc.core.bbd04c23a4fa3c72-cgu.0.rcgu.o)
 .text._ZN4core3fmt3num49_$LT$impl$u20$core..fmt..Debug$u20$for$u20$u8$GT$3fmt17hbfcfc52b811f831eE
                0xffff80004022373c      0x170 bin/obj/rslib.a(core-dca77d77b03929cc.core.bbd04c23a4fa3c72-cgu.0.rcgu.o)
 .text._ZN4core3fmt3num49_$LT$impl$u20$core..fmt..Octal$u20$for$u20$i8$GT$3fmt17h938552005bb66eb0E
                0xffff8000402238ac       0x78 bin/obj/rslib.a(core-dca77d77b03929cc.core.bbd04c23a4fa3c72-cgu.0.rcgu.o)
                0xffff8000402238ac                core::fmt::num::<impl core::fmt::Octal for i8>::fmt
 .text._ZN4core3fmt3num49_$LT$impl$u20$core..fmt..Octal$u20$for$u20$u8$GT$3fmt17hf4ab8ae14edcc341E
                0xffff800040223924       0x78 bin/obj/rslib.a(core-dca77d77b03929cc.core.bbd04c23a4fa3c72-cgu.0.rcgu.o)
                0xffff800040223924                core::fmt::num::<impl core::fmt::Octal for u8>::fmt
 .text._ZN4core3fmt3num50_$LT$impl$u20$core..fmt..Binary$u20$for$u20$i8$GT$3fmt17h364fc7cada5f95ebE
                0xffff80004022399c       0x78 bin/obj/rslib.a(core-dca77d77b03929cc.core.bbd04c23a4fa3c72-cgu.0.rcgu.o)
                0xffff80004022399c                core::fmt::num::<impl core::fmt::Binary for i8>::fmt
 .text._ZN4core3fmt3num50_$LT$impl$u20$core..fmt..Binary$u20$for$u20$u8$GT$3fmt17he2c0567fc6506356E
                0xffff800040223a14       0x78 bin/obj/rslib.a(core-dca77d77b03929cc.core.bbd04c23a4fa3c72-cgu.0.rcgu.o)
                0xffff800040223a14                core::fmt::num::<impl core::fmt::Binary for u8>::fmt
 .text._ZN4core3fmt3num50_$LT$impl$u20$core..fmt..Debug$u20$for$u20$i16$GT$3fmt17hd85915d27365f48cE
                0xffff800040223a8c      0x1dc bin/obj/rslib.a(core-dca77d77b03929cc.core.bbd04c23a4fa3c72-cgu.0.rcgu.o)
 .text._ZN4core3fmt3num50_$LT$impl$u20$core..fmt..Debug$u20$for$u20$u16$GT$3fmt17h02c79a3af51ec021E
                0xffff800040223c68      0x1c8 bin/obj/rslib.a(core-dca77d77b03929cc.core.bbd04c23a4fa3c72-cgu.0.rcgu.o)
 .text._ZN4core3fmt3num50_$LT$impl$u20$core..fmt..Debug$u20$for$u20$u32$GT$3fmt17hdcaa54ae5b814f37E
                0xffff800040223e30      0x200 bin/obj/rslib.a(core-dca77d77b03929cc.core.bbd04c23a4fa3c72-cgu.0.rcgu.o)
 .text._ZN4core3fmt3num50_$LT$impl$u20$core..fmt..Debug$u20$for$u20$u64$GT$3fmt17h6612a6d4aeffcfe3E
                0xffff800040224030      0x1fc bin/obj/rslib.a(core-dca77d77b03929cc.core.bbd04c23a4fa3c72-cgu.0.rcgu.o)
 .text._ZN4core3fmt3num50_$LT$impl$u20$core..fmt..Octal$u20$for$u20$i16$GT$3fmt17hb30f0eff41b795d7E
                0xffff80004022422c       0x78 bin/obj/rslib.a(core-dca77d77b03929cc.core.bbd04c23a4fa3c72-cgu.0.rcgu.o)
                0xffff80004022422c                core::fmt::num::<impl core::fmt::Octal for i16>::fmt
 .text._ZN4core3fmt3num50_$LT$impl$u20$core..fmt..Octal$u20$for$u20$i32$GT$3fmt17h96bda70b13d869cfE
                0xffff8000402242a4       0x78 bin/obj/rslib.a(core-dca77d77b03929cc.core.bbd04c23a4fa3c72-cgu.0.rcgu.o)
                0xffff8000402242a4                core::fmt::num::<impl core::fmt::Octal for i32>::fmt
 .text._ZN4core3fmt3num50_$LT$impl$u20$core..fmt..Octal$u20$for$u20$i64$GT$3fmt17hbca0bdf49b956695E
                0xffff80004022431c       0x78 bin/obj/rslib.a(core-dca77d77b03929cc.core.bbd04c23a4fa3c72-cgu.0.rcgu.o)
                0xffff80004022431c                core::fmt::num::<impl core::fmt::Octal for i64>::fmt
                0xffff80004022431c                core::fmt::num::<impl core::fmt::Octal for isize>::fmt
 .text._ZN4core3fmt3num50_$LT$impl$u20$core..fmt..Octal$u20$for$u20$u16$GT$3fmt17haa5505935580f60eE
                0xffff800040224394       0x78 bin/obj/rslib.a(core-dca77d77b03929cc.core.bbd04c23a4fa3c72-cgu.0.rcgu.o)
                0xffff800040224394                core::fmt::num::<impl core::fmt::Octal for u16>::fmt
 .text._ZN4core3fmt3num50_$LT$impl$u20$core..fmt..Octal$u20$for$u20$u32$GT$3fmt17h4a01e2886ae035d3E
                0xffff80004022440c       0x78 bin/obj/rslib.a(core-dca77d77b03929cc.core.bbd04c23a4fa3c72-cgu.0.rcgu.o)
                0xffff80004022440c                core::fmt::num::<impl core::fmt::Octal for u32>::fmt
 .text._ZN4core3fmt3num50_$LT$impl$u20$core..fmt..Octal$u20$for$u20$u64$GT$3fmt17hf6bc247530776172E
                0xffff800040224484       0x78 bin/obj/rslib.a(core-dca77d77b03929cc.core.bbd04c23a4fa3c72-cgu.0.rcgu.o)
                0xffff800040224484                core::fmt::num::<impl core::fmt::Octal for usize>::fmt
                0xffff800040224484                core::fmt::num::<impl core::fmt::Octal for u64>::fmt
 .text._ZN4core3fmt3num51_$LT$impl$u20$core..fmt..Binary$u20$for$u20$i16$GT$3fmt17h57858060feef142cE
                0xffff8000402244fc       0x78 bin/obj/rslib.a(core-dca77d77b03929cc.core.bbd04c23a4fa3c72-cgu.0.rcgu.o)
                0xffff8000402244fc                core::fmt::num::<impl core::fmt::Binary for i16>::fmt
 .text._ZN4core3fmt3num51_$LT$impl$u20$core..fmt..Binary$u20$for$u20$i32$GT$3fmt17h0b19d692da06108dE
                0xffff800040224574       0x78 bin/obj/rslib.a(core-dca77d77b03929cc.core.bbd04c23a4fa3c72-cgu.0.rcgu.o)
                0xffff800040224574                core::fmt::num::<impl core::fmt::Binary for i32>::fmt
 .text._ZN4core3fmt3num51_$LT$impl$u20$core..fmt..Binary$u20$for$u20$i64$GT$3fmt17haeba80af4dc4e17eE
                0xffff8000402245ec       0x78 bin/obj/rslib.a(core-dca77d77b03929cc.core.bbd04c23a4fa3c72-cgu.0.rcgu.o)
                0xffff8000402245ec                core::fmt::num::<impl core::fmt::Binary for isize>::fmt
                0xffff8000402245ec                core::fmt::num::<impl core::fmt::Binary for i64>::fmt
 .text._ZN4core3fmt3num51_$LT$impl$u20$core..fmt..Binary$u20$for$u20$u16$GT$3fmt17h994032199faeaac8E
                0xffff800040224664       0x78 bin/obj/rslib.a(core-dca77d77b03929cc.core.bbd04c23a4fa3c72-cgu.0.rcgu.o)
                0xffff800040224664                core::fmt::num::<impl core::fmt::Binary for u16>::fmt
 .text._ZN4core3fmt3num51_$LT$impl$u20$core..fmt..Binary$u20$for$u20$u32$GT$3fmt17h97ec4d142d6b0a75E
                0xffff8000402246dc       0x78 bin/obj/rslib.a(core-dca77d77b03929cc.core.bbd04c23a4fa3c72-cgu.0.rcgu.o)
                0xffff8000402246dc                core::fmt::num::<impl core::fmt::Binary for u32>::fmt
 .text._ZN4core3fmt3num51_$LT$impl$u20$core..fmt..Binary$u20$for$u20$u64$GT$3fmt17h88494fdefc0ff8d9E
                0xffff800040224754       0x78 bin/obj/rslib.a(core-dca77d77b03929cc.core.bbd04c23a4fa3c72-cgu.0.rcgu.o)
                0xffff800040224754                core::fmt::num::<impl core::fmt::Binary for u64>::fmt
                0xffff800040224754                core::fmt::num::<impl core::fmt::Binary for usize>::fmt
 .text._ZN4core3fmt3num51_$LT$impl$u20$core..fmt..Debug$u20$for$u20$i128$GT$3fmt17h02f9e17982837adcE
                0xffff8000402247cc      0x148 bin/obj/rslib.a(core-dca77d77b03929cc.core.bbd04c23a4fa3c72-cgu.0.rcgu.o)
 .text._ZN4core3fmt3num51_$LT$impl$u20$core..fmt..Debug$u20$for$u20$u128$GT$3fmt17hacbd24b09e2e612dE
                0xffff800040224914      0x128 bin/obj/rslib.a(core-dca77d77b03929cc.core.bbd04c23a4fa3c72-cgu.0.rcgu.o)
 .text._ZN4core3fmt3num51_$LT$impl$u20$core..fmt..Octal$u20$for$u20$i128$GT$3fmt17h30a46ebffb686345E
                0xffff800040224a3c       0x84 bin/obj/rslib.a(core-dca77d77b03929cc.core.bbd04c23a4fa3c72-cgu.0.rcgu.o)
                0xffff800040224a3c                core::fmt::num::<impl core::fmt::Octal for i128>::fmt
 .text._ZN4core3fmt3num51_$LT$impl$u20$core..fmt..Octal$u20$for$u20$u128$GT$3fmt17he9c20ead1f4ddb45E
                0xffff800040224ac0       0x84 bin/obj/rslib.a(core-dca77d77b03929cc.core.bbd04c23a4fa3c72-cgu.0.rcgu.o)
                0xffff800040224ac0                core::fmt::num::<impl core::fmt::Octal for u128>::fmt
 .text._ZN4core3fmt3num52_$LT$impl$u20$core..fmt..Binary$u20$for$u20$i128$GT$3fmt17h5ddc35715bb3478dE
                0xffff800040224b44       0x84 bin/obj/rslib.a(core-dca77d77b03929cc.core.bbd04c23a4fa3c72-cgu.0.rcgu.o)
                0xffff800040224b44                core::fmt::num::<impl core::fmt::Binary for i128>::fmt
 .text._ZN4core3fmt3num52_$LT$impl$u20$core..fmt..Binary$u20$for$u20$u128$GT$3fmt17h7c0ba53f984ef09eE
                0xffff800040224bc8       0x84 bin/obj/rslib.a(core-dca77d77b03929cc.core.bbd04c23a4fa3c72-cgu.0.rcgu.o)
                0xffff800040224bc8                core::fmt::num::<impl core::fmt::Binary for u128>::fmt
 .text._ZN4core3fmt3num52_$LT$impl$u20$core..fmt..Debug$u20$for$u20$usize$GT$3fmt17h43b30080ace008ecE
                0xffff800040224c4c      0x208 bin/obj/rslib.a(core-dca77d77b03929cc.core.bbd04c23a4fa3c72-cgu.0.rcgu.o)
 .text._ZN4core3fmt3num52_$LT$impl$u20$core..fmt..LowerHex$u20$for$u20$i8$GT$3fmt17hf695129635c083b3E
                0xffff800040224e54       0x78 bin/obj/rslib.a(core-dca77d77b03929cc.core.bbd04c23a4fa3c72-cgu.0.rcgu.o)
                0xffff800040224e54                core::fmt::num::<impl core::fmt::LowerHex for i8>::fmt
 .text._ZN4core3fmt3num52_$LT$impl$u20$core..fmt..LowerHex$u20$for$u20$u8$GT$3fmt17h41223f6c79c82479E
                0xffff800040224ecc       0x78 bin/obj/rslib.a(core-dca77d77b03929cc.core.bbd04c23a4fa3c72-cgu.0.rcgu.o)
                0xffff800040224ecc                core::fmt::num::<impl core::fmt::LowerHex for u8>::fmt
 .text._ZN4core3fmt3num52_$LT$impl$u20$core..fmt..UpperHex$u20$for$u20$i8$GT$3fmt17h407840cf8f4701b9E
                0xffff800040224f44       0x78 bin/obj/rslib.a(core-dca77d77b03929cc.core.bbd04c23a4fa3c72-cgu.0.rcgu.o)
                0xffff800040224f44                core::fmt::num::<impl core::fmt::UpperHex for i8>::fmt
 .text._ZN4core3fmt3num52_$LT$impl$u20$core..fmt..UpperHex$u20$for$u20$u8$GT$3fmt17h1c056f3c85dae395E
                0xffff800040224fbc       0x78 bin/obj/rslib.a(core-dca77d77b03929cc.core.bbd04c23a4fa3c72-cgu.0.rcgu.o)
                0xffff800040224fbc                core::fmt::num::<impl core::fmt::UpperHex for u8>::fmt
 .text._ZN4core3fmt3num53_$LT$impl$u20$core..fmt..Display$u20$for$u20$i128$GT$3fmt17h143e7e69baa593e3E
                0xffff800040225034       0x78 bin/obj/rslib.a(core-dca77d77b03929cc.core.bbd04c23a4fa3c72-cgu.0.rcgu.o)
                0xffff800040225034                core::fmt::num::<impl core::fmt::Display for i128>::fmt
 .text._ZN4core3fmt3num53_$LT$impl$u20$core..fmt..Display$u20$for$u20$u128$GT$3fmt17h93d3e8374317a9ebE
                0xffff8000402250ac       0x64 bin/obj/rslib.a(core-dca77d77b03929cc.core.bbd04c23a4fa3c72-cgu.0.rcgu.o)
                0xffff8000402250ac                core::fmt::num::<impl core::fmt::Display for u128>::fmt
 .text._ZN4core3fmt3num53_$LT$impl$u20$core..fmt..LowerHex$u20$for$u20$i16$GT$3fmt17h5b03a43fe071e9d2E
                0xffff800040225110       0x78 bin/obj/rslib.a(core-dca77d77b03929cc.core.bbd04c23a4fa3c72-cgu.0.rcgu.o)
                0xffff800040225110                core::fmt::num::<impl core::fmt::LowerHex for i16>::fmt
 .text._ZN4core3fmt3num53_$LT$impl$u20$core..fmt..LowerHex$u20$for$u20$i32$GT$3fmt17hc95ab94a833a1d52E
                0xffff800040225188       0x78 bin/obj/rslib.a(core-dca77d77b03929cc.core.bbd04c23a4fa3c72-cgu.0.rcgu.o)
                0xffff800040225188                core::fmt::num::<impl core::fmt::LowerHex for i32>::fmt
 .text._ZN4core3fmt3num53_$LT$impl$u20$core..fmt..LowerHex$u20$for$u20$i64$GT$3fmt17h78bab8b90a4593cfE
                0xffff800040225200       0x78 bin/obj/rslib.a(core-dca77d77b03929cc.core.bbd04c23a4fa3c72-cgu.0.rcgu.o)
                0xffff800040225200                core::fmt::num::<impl core::fmt::LowerHex for i64>::fmt
                0xffff800040225200                core::fmt::num::<impl core::fmt::LowerHex for isize>::fmt
 .text._ZN4core3fmt3num53_$LT$impl$u20$core..fmt..LowerHex$u20$for$u20$u16$GT$3fmt17h763f8ccc440b53a1E
                0xffff800040225278       0x78 bin/obj/rslib.a(core-dca77d77b03929cc.core.bbd04c23a4fa3c72-cgu.0.rcgu.o)
                0xffff800040225278                core::fmt::num::<impl core::fmt::LowerHex for u16>::fmt
 .text._ZN4core3fmt3num53_$LT$impl$u20$core..fmt..LowerHex$u20$for$u20$u32$GT$3fmt17h549c5dc88a23e071E
                0xffff8000402252f0       0x78 bin/obj/rslib.a(core-dca77d77b03929cc.core.bbd04c23a4fa3c72-cgu.0.rcgu.o)
                0xffff8000402252f0                core::fmt::num::<impl core::fmt::LowerHex for u32>::fmt
 .text._ZN4core3fmt3num53_$LT$impl$u20$core..fmt..LowerHex$u20$for$u20$u64$GT$3fmt17hdaccb1a7b83ad970E
                0xffff800040225368       0x78 bin/obj/rslib.a(core-dca77d77b03929cc.core.bbd04c23a4fa3c72-cgu.0.rcgu.o)
                0xffff800040225368                core::fmt::num::<impl core::fmt::LowerHex for usize>::fmt
                0xffff800040225368                core::fmt::num::<impl core::fmt::LowerHex for u64>::fmt
 .text._ZN4core3fmt3num53_$LT$impl$u20$core..fmt..UpperHex$u20$for$u20$i16$GT$3fmt17hdc971805de989b2aE
                0xffff8000402253e0       0x78 bin/obj/rslib.a(core-dca77d77b03929cc.core.bbd04c23a4fa3c72-cgu.0.rcgu.o)
                0xffff8000402253e0                core::fmt::num::<impl core::fmt::UpperHex for i16>::fmt
 .text._ZN4core3fmt3num53_$LT$impl$u20$core..fmt..UpperHex$u20$for$u20$i32$GT$3fmt17h7f105a3b4f757369E
                0xffff800040225458       0x78 bin/obj/rslib.a(core-dca77d77b03929cc.core.bbd04c23a4fa3c72-cgu.0.rcgu.o)
                0xffff800040225458                core::fmt::num::<impl core::fmt::UpperHex for i32>::fmt
 .text._ZN4core3fmt3num53_$LT$impl$u20$core..fmt..UpperHex$u20$for$u20$i64$GT$3fmt17h9e197d4c17bda1a5E
                0xffff8000402254d0       0x78 bin/obj/rslib.a(core-dca77d77b03929cc.core.bbd04c23a4fa3c72-cgu.0.rcgu.o)
                0xffff8000402254d0                core::fmt::num::<impl core::fmt::UpperHex for isize>::fmt
                0xffff8000402254d0                core::fmt::num::<impl core::fmt::UpperHex for i64>::fmt
 .text._ZN4core3fmt3num53_$LT$impl$u20$core..fmt..UpperHex$u20$for$u20$u16$GT$3fmt17h4d373f4e1b192db5E
                0xffff800040225548       0x78 bin/obj/rslib.a(core-dca77d77b03929cc.core.bbd04c23a4fa3c72-cgu.0.rcgu.o)
                0xffff800040225548                core::fmt::num::<impl core::fmt::UpperHex for u16>::fmt
 .text._ZN4core3fmt3num53_$LT$impl$u20$core..fmt..UpperHex$u20$for$u20$u32$GT$3fmt17hfe57b8c17b9bbf1aE
                0xffff8000402255c0       0x78 bin/obj/rslib.a(core-dca77d77b03929cc.core.bbd04c23a4fa3c72-cgu.0.rcgu.o)
                0xffff8000402255c0                core::fmt::num::<impl core::fmt::UpperHex for u32>::fmt
 .text._ZN4core3fmt3num53_$LT$impl$u20$core..fmt..UpperHex$u20$for$u20$u64$GT$3fmt17h995153f9b3a5bfe9E
                0xffff800040225638       0x78 bin/obj/rslib.a(core-dca77d77b03929cc.core.bbd04c23a4fa3c72-cgu.0.rcgu.o)
                0xffff800040225638                core::fmt::num::<impl core::fmt::UpperHex for usize>::fmt
                0xffff800040225638                core::fmt::num::<impl core::fmt::UpperHex for u64>::fmt
 .text._ZN4core3fmt3num54_$LT$impl$u20$core..fmt..LowerExp$u20$for$u20$i128$GT$3fmt17h30434f360a41b4c4E
                0xffff8000402256b0       0x2c bin/obj/rslib.a(core-dca77d77b03929cc.core.bbd04c23a4fa3c72-cgu.0.rcgu.o)
                0xffff8000402256b0                core::fmt::num::<impl core::fmt::LowerExp for i128>::fmt
 .text._ZN4core3fmt3num54_$LT$impl$u20$core..fmt..LowerExp$u20$for$u20$u128$GT$3fmt17ha11197f8c52dd830E
                0xffff8000402256dc       0x14 bin/obj/rslib.a(core-dca77d77b03929cc.core.bbd04c23a4fa3c72-cgu.0.rcgu.o)
                0xffff8000402256dc                core::fmt::num::<impl core::fmt::LowerExp for u128>::fmt
 .text._ZN4core3fmt3num54_$LT$impl$u20$core..fmt..LowerHex$u20$for$u20$i128$GT$3fmt17hb7c2328b2927a7e4E
                0xffff8000402256f0       0x84 bin/obj/rslib.a(core-dca77d77b03929cc.core.bbd04c23a4fa3c72-cgu.0.rcgu.o)
                0xffff8000402256f0                core::fmt::num::<impl core::fmt::LowerHex for i128>::fmt
 .text._ZN4core3fmt3num54_$LT$impl$u20$core..fmt..LowerHex$u20$for$u20$u128$GT$3fmt17hb4c13cc4839c5400E
                0xffff800040225774       0x84 bin/obj/rslib.a(core-dca77d77b03929cc.core.bbd04c23a4fa3c72-cgu.0.rcgu.o)
                0xffff800040225774                core::fmt::num::<impl core::fmt::LowerHex for u128>::fmt
 .text._ZN4core3fmt3num54_$LT$impl$u20$core..fmt..UpperExp$u20$for$u20$i128$GT$3fmt17h5f34c241245c987fE
                0xffff8000402257f8       0x2c bin/obj/rslib.a(core-dca77d77b03929cc.core.bbd04c23a4fa3c72-cgu.0.rcgu.o)
                0xffff8000402257f8                core::fmt::num::<impl core::fmt::UpperExp for i128>::fmt
 .text._ZN4core3fmt3num54_$LT$impl$u20$core..fmt..UpperExp$u20$for$u20$u128$GT$3fmt17h6e59dbb5e808480cE
                0xffff800040225824       0x14 bin/obj/rslib.a(core-dca77d77b03929cc.core.bbd04c23a4fa3c72-cgu.0.rcgu.o)
                0xffff800040225824                core::fmt::num::<impl core::fmt::UpperExp for u128>::fmt
 .text._ZN4core3fmt3num54_$LT$impl$u20$core..fmt..UpperHex$u20$for$u20$i128$GT$3fmt17h37959fbc370fc230E
                0xffff800040225838       0x84 bin/obj/rslib.a(core-dca77d77b03929cc.core.bbd04c23a4fa3c72-cgu.0.rcgu.o)
                0xffff800040225838                core::fmt::num::<impl core::fmt::UpperHex for i128>::fmt
 .text._ZN4core3fmt3num54_$LT$impl$u20$core..fmt..UpperHex$u20$for$u20$u128$GT$3fmt17h631d1b7b37eac1b1E
                0xffff8000402258bc       0x84 bin/obj/rslib.a(core-dca77d77b03929cc.core.bbd04c23a4fa3c72-cgu.0.rcgu.o)
                0xffff8000402258bc                core::fmt::num::<impl core::fmt::UpperHex for u128>::fmt
 .text._ZN4core3fmt3num8exp_u12817h1e087a08c7e7821cE
                0xffff800040225940      0x908 bin/obj/rslib.a(core-dca77d77b03929cc.core.bbd04c23a4fa3c72-cgu.0.rcgu.o)
 .text._ZN4core3fmt5Write10write_char17h6c9f62c53d255419E
                0xffff800040226248      0x110 bin/obj/rslib.a(core-dca77d77b03929cc.core.bbd04c23a4fa3c72-cgu.0.rcgu.o)
 .text._ZN4core3fmt5Write10write_char17hab3113e5f50b8d55E
                0xffff800040226358      0x110 bin/obj/rslib.a(core-dca77d77b03929cc.core.bbd04c23a4fa3c72-cgu.0.rcgu.o)
 .text._ZN4core3fmt5Write10write_char17hafd2cc98f3cc0f9eE
                0xffff800040226468      0x110 bin/obj/rslib.a(core-dca77d77b03929cc.core.bbd04c23a4fa3c72-cgu.0.rcgu.o)
 .text._ZN4core3fmt5Write10write_char17hafeca256d596fff5E
                0xffff800040226578      0x110 bin/obj/rslib.a(core-dca77d77b03929cc.core.bbd04c23a4fa3c72-cgu.0.rcgu.o)
 .text._ZN4core3fmt5Write9write_fmt17h520d20e91ea5545dE
                0xffff800040226688       0x10 bin/obj/rslib.a(core-dca77d77b03929cc.core.bbd04c23a4fa3c72-cgu.0.rcgu.o)
 .text._ZN4core3fmt5Write9write_fmt17h7c092140abd88642E
                0xffff800040226698       0x10 bin/obj/rslib.a(core-dca77d77b03929cc.core.bbd04c23a4fa3c72-cgu.0.rcgu.o)
 .text._ZN4core3fmt5Write9write_fmt17h95b21c1cd5581451E
                0xffff8000402266a8       0x10 bin/obj/rslib.a(core-dca77d77b03929cc.core.bbd04c23a4fa3c72-cgu.0.rcgu.o)
 .text._ZN4core3fmt5Write9write_fmt17h9e49c072d75e96bdE
                0xffff8000402266b8       0x10 bin/obj/rslib.a(core-dca77d77b03929cc.core.bbd04c23a4fa3c72-cgu.0.rcgu.o)
 .text._ZN4core3fmt5Write9write_fmt17hb1a75934f62025f1E
                0xffff8000402266c8       0x10 bin/obj/rslib.a(core-dca77d77b03929cc.core.bbd04c23a4fa3c72-cgu.0.rcgu.o)
 .text._ZN4core3fmt5float29float_to_decimal_common_exact17h0e50918e8fa3ee13E
                0xffff8000402266d8      0x330 bin/obj/rslib.a(core-dca77d77b03929cc.core.bbd04c23a4fa3c72-cgu.0.rcgu.o)
 .text._ZN4core3fmt5float29float_to_decimal_common_exact17hb9a2c5d04883627eE
                0xffff800040226a08      0x32c bin/obj/rslib.a(core-dca77d77b03929cc.core.bbd04c23a4fa3c72-cgu.0.rcgu.o)
 .text._ZN4core3fmt5float29float_to_decimal_common_exact17hca083ab3e7c8879bE
                0xffff800040226d34      0x330 bin/obj/rslib.a(core-dca77d77b03929cc.core.bbd04c23a4fa3c72-cgu.0.rcgu.o)
 .text._ZN4core3fmt5float32float_to_decimal_common_shortest17h0ceec187bec91d8aE
                0xffff800040227064      0x274 bin/obj/rslib.a(core-dca77d77b03929cc.core.bbd04c23a4fa3c72-cgu.0.rcgu.o)
 .text._ZN4core3fmt5float32float_to_decimal_common_shortest17hccc6e50c18412f99E
                0xffff8000402272d8      0x270 bin/obj/rslib.a(core-dca77d77b03929cc.core.bbd04c23a4fa3c72-cgu.0.rcgu.o)
 .text._ZN4core3fmt5float32float_to_decimal_common_shortest17he31e808fe2c6de51E
                0xffff800040227548      0x274 bin/obj/rslib.a(core-dca77d77b03929cc.core.bbd04c23a4fa3c72-cgu.0.rcgu.o)
 .text._ZN4core3fmt5float33float_to_exponential_common_exact17h139f809f18339707E
                0xffff8000402277bc      0x364 bin/obj/rslib.a(core-dca77d77b03929cc.core.bbd04c23a4fa3c72-cgu.0.rcgu.o)
 .text._ZN4core3fmt5float33float_to_exponential_common_exact17h3b54b606a5e93c9aE
                0xffff800040227b20      0x360 bin/obj/rslib.a(core-dca77d77b03929cc.core.bbd04c23a4fa3c72-cgu.0.rcgu.o)
 .text._ZN4core3fmt5float33float_to_exponential_common_exact17h72232f886c9338e7E
                0xffff800040227e80      0x364 bin/obj/rslib.a(core-dca77d77b03929cc.core.bbd04c23a4fa3c72-cgu.0.rcgu.o)
 .text._ZN4core3fmt5float36float_to_exponential_common_shortest17hd613faf6d122fffdE
                0xffff8000402281e4      0x324 bin/obj/rslib.a(core-dca77d77b03929cc.core.bbd04c23a4fa3c72-cgu.0.rcgu.o)
 .text._ZN4core3fmt5float36float_to_exponential_common_shortest17hd81e605b83b8c904E
                0xffff800040228508      0x324 bin/obj/rslib.a(core-dca77d77b03929cc.core.bbd04c23a4fa3c72-cgu.0.rcgu.o)
 .text._ZN4core3fmt5float36float_to_exponential_common_shortest17hf01e77856c0611c9E
                0xffff80004022882c      0x320 bin/obj/rslib.a(core-dca77d77b03929cc.core.bbd04c23a4fa3c72-cgu.0.rcgu.o)
 .text._ZN4core3fmt5float50_$LT$impl$u20$core..fmt..Debug$u20$for$u20$f16$GT$3fmt17h98073eaa521987d1E
                0xffff800040228b4c       0x84 bin/obj/rslib.a(core-dca77d77b03929cc.core.bbd04c23a4fa3c72-cgu.0.rcgu.o)
                0xffff800040228b4c                core::fmt::float::<impl core::fmt::Debug for f16>::fmt
 .text._ZN4core3fmt5float50_$LT$impl$u20$core..fmt..Debug$u20$for$u20$f32$GT$3fmt17h356a0d769d6699d8E
                0xffff800040228bd0       0x78 bin/obj/rslib.a(core-dca77d77b03929cc.core.bbd04c23a4fa3c72-cgu.0.rcgu.o)
                0xffff800040228bd0                core::fmt::float::<impl core::fmt::Debug for f32>::fmt
 .text._ZN4core3fmt5float50_$LT$impl$u20$core..fmt..Debug$u20$for$u20$f64$GT$3fmt17hf05e6bf68a96b818E
                0xffff800040228c48       0x70 bin/obj/rslib.a(core-dca77d77b03929cc.core.bbd04c23a4fa3c72-cgu.0.rcgu.o)
                0xffff800040228c48                core::fmt::float::<impl core::fmt::Debug for f64>::fmt
 .text._ZN4core3fmt5float52_$LT$impl$u20$core..fmt..Display$u20$for$u20$f16$GT$3fmt17h99e2214d9239d00dE
                0xffff800040228cb8       0x2c bin/obj/rslib.a(core-dca77d77b03929cc.core.bbd04c23a4fa3c72-cgu.0.rcgu.o)
                0xffff800040228cb8                core::fmt::float::<impl core::fmt::Display for f16>::fmt
 .text._ZN4core3fmt5float52_$LT$impl$u20$core..fmt..Display$u20$for$u20$f32$GT$3fmt17h65e0a609525384cfE
                0xffff800040228ce4       0x2c bin/obj/rslib.a(core-dca77d77b03929cc.core.bbd04c23a4fa3c72-cgu.0.rcgu.o)
                0xffff800040228ce4                core::fmt::float::<impl core::fmt::Display for f32>::fmt
 .text._ZN4core3fmt5float52_$LT$impl$u20$core..fmt..Display$u20$for$u20$f64$GT$3fmt17he0314ea48bfe4fd0E
                0xffff800040228d10       0x2c bin/obj/rslib.a(core-dca77d77b03929cc.core.bbd04c23a4fa3c72-cgu.0.rcgu.o)
                0xffff800040228d10                core::fmt::float::<impl core::fmt::Display for f64>::fmt
 .text._ZN4core3fmt5float53_$LT$impl$u20$core..fmt..LowerExp$u20$for$u20$f16$GT$3fmt17h32eae0d8e61a65e8E
                0xffff800040228d3c       0x38 bin/obj/rslib.a(core-dca77d77b03929cc.core.bbd04c23a4fa3c72-cgu.0.rcgu.o)
                0xffff800040228d3c                core::fmt::float::<impl core::fmt::LowerExp for f16>::fmt
 .text._ZN4core3fmt5float53_$LT$impl$u20$core..fmt..LowerExp$u20$for$u20$f32$GT$3fmt17h48c202800b407b9eE
                0xffff800040228d74       0x38 bin/obj/rslib.a(core-dca77d77b03929cc.core.bbd04c23a4fa3c72-cgu.0.rcgu.o)
                0xffff800040228d74                core::fmt::float::<impl core::fmt::LowerExp for f32>::fmt
 .text._ZN4core3fmt5float53_$LT$impl$u20$core..fmt..LowerExp$u20$for$u20$f64$GT$3fmt17h12fcc30f7b05009fE
                0xffff800040228dac       0x38 bin/obj/rslib.a(core-dca77d77b03929cc.core.bbd04c23a4fa3c72-cgu.0.rcgu.o)
                0xffff800040228dac                core::fmt::float::<impl core::fmt::LowerExp for f64>::fmt
 .text._ZN4core3fmt5float53_$LT$impl$u20$core..fmt..UpperExp$u20$for$u20$f16$GT$3fmt17h83654050f23ca0ecE
                0xffff800040228de4       0x38 bin/obj/rslib.a(core-dca77d77b03929cc.core.bbd04c23a4fa3c72-cgu.0.rcgu.o)
                0xffff800040228de4                core::fmt::float::<impl core::fmt::UpperExp for f16>::fmt
 .text._ZN4core3fmt5float53_$LT$impl$u20$core..fmt..UpperExp$u20$for$u20$f32$GT$3fmt17haac13dd2190c86bbE
                0xffff800040228e1c       0x38 bin/obj/rslib.a(core-dca77d77b03929cc.core.bbd04c23a4fa3c72-cgu.0.rcgu.o)
                0xffff800040228e1c                core::fmt::float::<impl core::fmt::UpperExp for f32>::fmt
 .text._ZN4core3fmt5float53_$LT$impl$u20$core..fmt..UpperExp$u20$for$u20$f64$GT$3fmt17hb5db0cd4a81cbe98E
                0xffff800040228e54       0x38 bin/obj/rslib.a(core-dca77d77b03929cc.core.bbd04c23a4fa3c72-cgu.0.rcgu.o)
                0xffff800040228e54                core::fmt::float::<impl core::fmt::UpperExp for f64>::fmt
 .text._ZN4core3fmt5write17h698d48d1740424bfE
                0xffff800040228e8c      0x1fc bin/obj/rslib.a(core-dca77d77b03929cc.core.bbd04c23a4fa3c72-cgu.0.rcgu.o)
                0xffff800040228e8c                core::fmt::write
 .text._ZN4core3fmt8builders10DebugTuple21finish_non_exhaustive17hd2c31e03f38e3753E
                0xffff800040229088       0xd8 bin/obj/rslib.a(core-dca77d77b03929cc.core.bbd04c23a4fa3c72-cgu.0.rcgu.o)
                0xffff800040229088                core::fmt::builders::DebugTuple::finish_non_exhaustive
 .text._ZN4core3fmt8builders10DebugTuple5field17h0c3dc53d82f7d67cE
                0xffff800040229160      0x148 bin/obj/rslib.a(core-dca77d77b03929cc.core.bbd04c23a4fa3c72-cgu.0.rcgu.o)
                0xffff800040229160                core::fmt::builders::DebugTuple::field
 .text._ZN4core3fmt8builders10DebugTuple6finish17he2f6749e23997c91E
                0xffff8000402292a8       0xb4 bin/obj/rslib.a(core-dca77d77b03929cc.core.bbd04c23a4fa3c72-cgu.0.rcgu.o)
                0xffff8000402292a8                core::fmt::builders::DebugTuple::finish
 .text._ZN4core3fmt8builders10PadAdapter4wrap17h0aa4106c3af43afeE
                0xffff80004022935c       0x4c bin/obj/rslib.a(core-dca77d77b03929cc.core.bbd04c23a4fa3c72-cgu.0.rcgu.o)
                0xffff80004022935c                core::fmt::builders::PadAdapter::wrap
 .text._ZN4core3fmt8builders11DebugStruct21finish_non_exhaustive17h9d430e37bcaaaa21E
                0xffff8000402293a8       0xdc bin/obj/rslib.a(core-dca77d77b03929cc.core.bbd04c23a4fa3c72-cgu.0.rcgu.o)
                0xffff8000402293a8                core::fmt::builders::DebugStruct::finish_non_exhaustive
 .text._ZN4core3fmt8builders11DebugStruct5field17hdd0b0d168b5ab83eE
                0xffff800040229484      0x1bc bin/obj/rslib.a(core-dca77d77b03929cc.core.bbd04c23a4fa3c72-cgu.0.rcgu.o)
                0xffff800040229484                core::fmt::builders::DebugStruct::field
 .text._ZN4core3fmt8builders11DebugStruct6finish17h3c820a47c4c345e7E
                0xffff800040229640       0x78 bin/obj/rslib.a(core-dca77d77b03929cc.core.bbd04c23a4fa3c72-cgu.0.rcgu.o)
                0xffff800040229640                core::fmt::builders::DebugStruct::finish
 .text._ZN4core3fmt8builders8DebugMap21finish_non_exhaustive17hc6fb43df59fedc4eE
                0xffff8000402296b8      0x110 bin/obj/rslib.a(core-dca77d77b03929cc.core.bbd04c23a4fa3c72-cgu.0.rcgu.o)
                0xffff8000402296b8                core::fmt::builders::DebugMap::finish_non_exhaustive
 .text._ZN4core3fmt8builders8DebugMap3key17h8e51fdb022aefab0E
                0xffff8000402297c8      0x1a4 bin/obj/rslib.a(core-dca77d77b03929cc.core.bbd04c23a4fa3c72-cgu.0.rcgu.o)
                0xffff8000402297c8                core::fmt::builders::DebugMap::key
 .text._ZN4core3fmt8builders8DebugMap5entry17he1feed0c379d3c1cE
                0xffff80004022996c      0x120 bin/obj/rslib.a(core-dca77d77b03929cc.core.bbd04c23a4fa3c72-cgu.0.rcgu.o)
                0xffff80004022996c                core::fmt::builders::DebugMap::entry
 .text._ZN4core3fmt8builders8DebugMap5value17h88128e8e16e24ffbE
                0xffff800040229a8c      0x110 bin/obj/rslib.a(core-dca77d77b03929cc.core.bbd04c23a4fa3c72-cgu.0.rcgu.o)
                0xffff800040229a8c                core::fmt::builders::DebugMap::value
 .text._ZN4core3fmt8builders8DebugMap6finish17he33286f7a29097f0E
                0xffff800040229b9c       0x98 bin/obj/rslib.a(core-dca77d77b03929cc.core.bbd04c23a4fa3c72-cgu.0.rcgu.o)
                0xffff800040229b9c                core::fmt::builders::DebugMap::finish
 .text._ZN4core3fmt8builders8DebugSet21finish_non_exhaustive17h77a51a6c8f58b960E
                0xffff800040229c34       0xdc bin/obj/rslib.a(core-dca77d77b03929cc.core.bbd04c23a4fa3c72-cgu.0.rcgu.o)
                0xffff800040229c34                core::fmt::builders::DebugSet::finish_non_exhaustive
 .text._ZN4core3fmt8builders8DebugSet5entry17hbdd9c66ace52c39bE
                0xffff800040229d10      0x144 bin/obj/rslib.a(core-dca77d77b03929cc.core.bbd04c23a4fa3c72-cgu.0.rcgu.o)
                0xffff800040229d10                core::fmt::builders::DebugList::entry
                0xffff800040229d10                core::fmt::builders::DebugSet::entry
 .text._ZN4core3fmt8builders8DebugSet6finish17hfa9ca6d659acc04eE
                0xffff800040229e54       0x58 bin/obj/rslib.a(core-dca77d77b03929cc.core.bbd04c23a4fa3c72-cgu.0.rcgu.o)
                0xffff800040229e54                core::fmt::builders::DebugSet::finish
 .text._ZN4core3fmt8builders9DebugList21finish_non_exhaustive17hcf32429ba4066729E
                0xffff800040229eac      0x104 bin/obj/rslib.a(core-dca77d77b03929cc.core.bbd04c23a4fa3c72-cgu.0.rcgu.o)
                0xffff800040229eac                core::fmt::builders::DebugList::finish_non_exhaustive
 .text._ZN4core3fmt8builders9DebugList6finish17h28c375beadc9f2e6E
                0xffff800040229fb0       0x58 bin/obj/rslib.a(core-dca77d77b03929cc.core.bbd04c23a4fa3c72-cgu.0.rcgu.o)
                0xffff800040229fb0                core::fmt::builders::DebugList::finish
 .text._ZN4core3fmt9Formatter10debug_list17h922c86ffd02232baE
                0xffff80004022a008       0x44 bin/obj/rslib.a(core-dca77d77b03929cc.core.bbd04c23a4fa3c72-cgu.0.rcgu.o)
                0xffff80004022a008                core::fmt::Formatter::debug_list
 .text._ZN4core3fmt9Formatter11debug_tuple17h2e2a7ba79609056eE
                0xffff80004022a04c       0x4c bin/obj/rslib.a(core-dca77d77b03929cc.core.bbd04c23a4fa3c72-cgu.0.rcgu.o)
                0xffff80004022a04c                core::fmt::Formatter::debug_tuple
 .text._ZN4core3fmt9Formatter12debug_struct17hdbd72ad4649c9f7bE
                0xffff80004022a098       0x38 bin/obj/rslib.a(core-dca77d77b03929cc.core.bbd04c23a4fa3c72-cgu.0.rcgu.o)
                0xffff80004022a098                core::fmt::Formatter::debug_struct
 .text._ZN4core3fmt9Formatter12pad_integral12write_prefix17h569d1cc329869993E
                0xffff80004022a0d0       0x88 bin/obj/rslib.a(core-dca77d77b03929cc.core.bbd04c23a4fa3c72-cgu.0.rcgu.o)
 .text._ZN4core3fmt9Formatter12pad_integral17h28f403dc3cbb6acbE
                0xffff80004022a158      0x49c bin/obj/rslib.a(core-dca77d77b03929cc.core.bbd04c23a4fa3c72-cgu.0.rcgu.o)
                0xffff80004022a158                core::fmt::Formatter::pad_integral
 .text._ZN4core3fmt9Formatter19pad_formatted_parts17h96499d19d5990aafE
                0xffff80004022a5f4      0x250 bin/obj/rslib.a(core-dca77d77b03929cc.core.bbd04c23a4fa3c72-cgu.0.rcgu.o)
 .text._ZN4core3fmt9Formatter21write_formatted_parts17hee9cfe33ec2a9653E
                0xffff80004022a844      0x210 bin/obj/rslib.a(core-dca77d77b03929cc.core.bbd04c23a4fa3c72-cgu.0.rcgu.o)
 .text._ZN4core3fmt9Formatter25debug_tuple_field1_finish17he4e9ba36a234a2f9E
                0xffff80004022aa54      0x160 bin/obj/rslib.a(core-dca77d77b03929cc.core.bbd04c23a4fa3c72-cgu.0.rcgu.o)
                0xffff80004022aa54                core::fmt::Formatter::debug_tuple_field1_finish
 .text._ZN4core3fmt9Formatter25debug_tuple_field2_finish17habc8be0986eba553E
                0xffff80004022abb4      0x1f8 bin/obj/rslib.a(core-dca77d77b03929cc.core.bbd04c23a4fa3c72-cgu.0.rcgu.o)
                0xffff80004022abb4                core::fmt::Formatter::debug_tuple_field2_finish
 .text._ZN4core3fmt9Formatter25debug_tuple_field3_finish17h4762807e2b53284eE
                0xffff80004022adac      0x2ac bin/obj/rslib.a(core-dca77d77b03929cc.core.bbd04c23a4fa3c72-cgu.0.rcgu.o)
                0xffff80004022adac                core::fmt::Formatter::debug_tuple_field3_finish
 .text._ZN4core3fmt9Formatter25debug_tuple_field4_finish17hc976f9a215e887dfE
                0xffff80004022b058      0x35c bin/obj/rslib.a(core-dca77d77b03929cc.core.bbd04c23a4fa3c72-cgu.0.rcgu.o)
                0xffff80004022b058                core::fmt::Formatter::debug_tuple_field4_finish
 .text._ZN4core3fmt9Formatter25debug_tuple_field5_finish17h2b760394f14de004E
                0xffff80004022b3b4      0x40c bin/obj/rslib.a(core-dca77d77b03929cc.core.bbd04c23a4fa3c72-cgu.0.rcgu.o)
                0xffff80004022b3b4                core::fmt::Formatter::debug_tuple_field5_finish
 .text._ZN4core3fmt9Formatter25debug_tuple_fields_finish17h52d38fd0790b5216E
                0xffff80004022b7c0      0x290 bin/obj/rslib.a(core-dca77d77b03929cc.core.bbd04c23a4fa3c72-cgu.0.rcgu.o)
                0xffff80004022b7c0                core::fmt::Formatter::debug_tuple_fields_finish
 .text._ZN4core3fmt9Formatter26debug_struct_field1_finish17ha222e10f7e4885b3E
                0xffff80004022ba50       0xc8 bin/obj/rslib.a(core-dca77d77b03929cc.core.bbd04c23a4fa3c72-cgu.0.rcgu.o)
                0xffff80004022ba50                core::fmt::Formatter::debug_struct_field1_finish
 .text._ZN4core3fmt9Formatter26debug_struct_field2_finish17h8d9ba6dd7a0207ecE
                0xffff80004022bb18       0xfc bin/obj/rslib.a(core-dca77d77b03929cc.core.bbd04c23a4fa3c72-cgu.0.rcgu.o)
                0xffff80004022bb18                core::fmt::Formatter::debug_struct_field2_finish
 .text._ZN4core3fmt9Formatter26debug_struct_field3_finish17h602bea5862078d42E
                0xffff80004022bc14      0x120 bin/obj/rslib.a(core-dca77d77b03929cc.core.bbd04c23a4fa3c72-cgu.0.rcgu.o)
                0xffff80004022bc14                core::fmt::Formatter::debug_struct_field3_finish
 .text._ZN4core3fmt9Formatter26debug_struct_field4_finish17hf1e9262b3c20e508E
                0xffff80004022bd34      0x140 bin/obj/rslib.a(core-dca77d77b03929cc.core.bbd04c23a4fa3c72-cgu.0.rcgu.o)
                0xffff80004022bd34                core::fmt::Formatter::debug_struct_field4_finish
 .text._ZN4core3fmt9Formatter26debug_struct_field5_finish17h1ab8e70ff3a2c5d6E
                0xffff80004022be74      0x164 bin/obj/rslib.a(core-dca77d77b03929cc.core.bbd04c23a4fa3c72-cgu.0.rcgu.o)
                0xffff80004022be74                core::fmt::Formatter::debug_struct_field5_finish
 .text._ZN4core3fmt9Formatter26debug_struct_fields_finish17h06a4241c331ab08fE
                0xffff80004022bfd8      0x104 bin/obj/rslib.a(core-dca77d77b03929cc.core.bbd04c23a4fa3c72-cgu.0.rcgu.o)
                0xffff80004022bfd8                core::fmt::Formatter::debug_struct_fields_finish
 .text._ZN4core3fmt9Formatter3pad17h51d0bfca220bbd48E
                0xffff80004022c0dc      0x3ec bin/obj/rslib.a(core-dca77d77b03929cc.core.bbd04c23a4fa3c72-cgu.0.rcgu.o)
                0xffff80004022c0dc                core::fmt::Formatter::pad
 .text._ZN4core3fmt9Formatter4fill17he456f266cf96235cE
                0xffff80004022c4c8        0xc bin/obj/rslib.a(core-dca77d77b03929cc.core.bbd04c23a4fa3c72-cgu.0.rcgu.o)
                0xffff80004022c4c8                core::fmt::Formatter::fill
 .text._ZN4core3fmt9Formatter9debug_map17hf105814dde56f830E
                0xffff80004022c4d4       0x4c bin/obj/rslib.a(core-dca77d77b03929cc.core.bbd04c23a4fa3c72-cgu.0.rcgu.o)
                0xffff80004022c4d4                core::fmt::Formatter::debug_map
 .text._ZN4core3fmt9Formatter9debug_set17h94f8ce656713e22fE
                0xffff80004022c520       0x44 bin/obj/rslib.a(core-dca77d77b03929cc.core.bbd04c23a4fa3c72-cgu.0.rcgu.o)
                0xffff80004022c520                core::fmt::Formatter::debug_set
 .text._ZN4core3fmt9Formatter9write_str17hc6782760e8b9a4b0E
                0xffff80004022c564        0xc bin/obj/rslib.a(core-dca77d77b03929cc.core.bbd04c23a4fa3c72-cgu.0.rcgu.o)
                0xffff80004022c564                <core::fmt::Formatter as core::fmt::Write>::write_str
                0xffff80004022c564                core::fmt::Formatter::write_str
 .text.unlikely._ZN4core3mem11conjure_zst8do_panic7runtime17h72dddb692cee0024E
                0xffff80004022c570       0x4c bin/obj/rslib.a(core-dca77d77b03929cc.core.bbd04c23a4fa3c72-cgu.0.rcgu.o)
                0xffff80004022c570                core::mem::conjure_zst::do_panic::runtime
 .text._ZN4core3net6parser44_$LT$impl$u20$core..net..ip_addr..IpAddr$GT$11parse_ascii17hc252695d83f05876E
                0xffff80004022c5bc      0x164 bin/obj/rslib.a(core-dca77d77b03929cc.core.bbd04c23a4fa3c72-cgu.0.rcgu.o)
                0xffff80004022c5bc                core::net::parser::<impl core::net::ip_addr::IpAddr>::parse_ascii
 .text._ZN4core3net6parser46_$LT$impl$u20$core..net..ip_addr..Ipv4Addr$GT$11parse_ascii17h4798ab0f7355bc81E
                0xffff80004022c720       0x74 bin/obj/rslib.a(core-dca77d77b03929cc.core.bbd04c23a4fa3c72-cgu.0.rcgu.o)
                0xffff80004022c720                core::net::parser::<impl core::net::ip_addr::Ipv4Addr>::parse_ascii
 .text._ZN4core3net6parser46_$LT$impl$u20$core..net..ip_addr..Ipv6Addr$GT$11parse_ascii17h48c3b40536adbdbaE
                0xffff80004022c794       0x9c bin/obj/rslib.a(core-dca77d77b03929cc.core.bbd04c23a4fa3c72-cgu.0.rcgu.o)
                0xffff80004022c794                core::net::parser::<impl core::net::ip_addr::Ipv6Addr>::parse_ascii
 .text._ZN4core3net6parser52_$LT$impl$u20$core..net..socket_addr..SocketAddr$GT$11parse_ascii17hf988a201dabebd8eE
                0xffff80004022c830      0x1b8 bin/obj/rslib.a(core-dca77d77b03929cc.core.bbd04c23a4fa3c72-cgu.0.rcgu.o)
                0xffff80004022c830                core::net::parser::<impl core::net::socket_addr::SocketAddr>::parse_ascii
 .text._ZN4core3net6parser54_$LT$impl$u20$core..net..socket_addr..SocketAddrV4$GT$11parse_ascii17h858beef7becf0e14E
                0xffff80004022c9e8       0xf8 bin/obj/rslib.a(core-dca77d77b03929cc.core.bbd04c23a4fa3c72-cgu.0.rcgu.o)
                0xffff80004022c9e8                core::net::parser::<impl core::net::socket_addr::SocketAddrV4>::parse_ascii
 .text._ZN4core3net6parser54_$LT$impl$u20$core..net..socket_addr..SocketAddrV6$GT$11parse_ascii17h0b9adf6cc6a7c0aeE
                0xffff80004022cae0       0x7c bin/obj/rslib.a(core-dca77d77b03929cc.core.bbd04c23a4fa3c72-cgu.0.rcgu.o)
                0xffff80004022cae0                core::net::parser::<impl core::net::socket_addr::SocketAddrV6>::parse_ascii
 .text._ZN4core3net6parser6Parser11read_number28_$u7b$$u7b$closure$u7d$$u7d$17h78fa6efe6e829d80E
                0xffff80004022cb5c      0x2a4 bin/obj/rslib.a(core-dca77d77b03929cc.core.bbd04c23a4fa3c72-cgu.0.rcgu.o)
 .text._ZN4core3net6parser6Parser14read_ipv4_addr17h3d0640c723de0461E
                0xffff80004022ce00      0x2c8 bin/obj/rslib.a(core-dca77d77b03929cc.core.bbd04c23a4fa3c72-cgu.0.rcgu.o)
 .text._ZN4core3net6parser6Parser14read_ipv6_addr11read_groups17h4a4091507a7e7621E
                0xffff80004022d0c8      0x208 bin/obj/rslib.a(core-dca77d77b03929cc.core.bbd04c23a4fa3c72-cgu.0.rcgu.o)
 .text._ZN4core3net6parser6Parser14read_ipv6_addr17hf0315fb5cf234710E
                0xffff80004022d2d0      0x204 bin/obj/rslib.a(core-dca77d77b03929cc.core.bbd04c23a4fa3c72-cgu.0.rcgu.o)
 .text._ZN4core3net6parser6Parser19read_socket_addr_v617ha89bd51b74deb145E
                0xffff80004022d4d4      0x264 bin/obj/rslib.a(core-dca77d77b03929cc.core.bbd04c23a4fa3c72-cgu.0.rcgu.o)
 .text._ZN4core3net6parser83_$LT$impl$u20$core..str..traits..FromStr$u20$for$u20$core..net..ip_addr..IpAddr$GT$8from_str17hc0ec102a3d71410fE
                0xffff80004022d738      0x164 bin/obj/rslib.a(core-dca77d77b03929cc.core.bbd04c23a4fa3c72-cgu.0.rcgu.o)
                0xffff80004022d738                core::net::parser::<impl core::str::traits::FromStr for core::net::ip_addr::IpAddr>::from_str
 .text._ZN4core3net6parser85_$LT$impl$u20$core..str..traits..FromStr$u20$for$u20$core..net..ip_addr..Ipv4Addr$GT$8from_str17hec062c7b19c0fe18E
                0xffff80004022d89c       0x74 bin/obj/rslib.a(core-dca77d77b03929cc.core.bbd04c23a4fa3c72-cgu.0.rcgu.o)
                0xffff80004022d89c                core::net::parser::<impl core::str::traits::FromStr for core::net::ip_addr::Ipv4Addr>::from_str
 .text._ZN4core3net6parser85_$LT$impl$u20$core..str..traits..FromStr$u20$for$u20$core..net..ip_addr..Ipv6Addr$GT$8from_str17h5a3d749b7e50180dE
                0xffff80004022d910       0x9c bin/obj/rslib.a(core-dca77d77b03929cc.core.bbd04c23a4fa3c72-cgu.0.rcgu.o)
                0xffff80004022d910                core::net::parser::<impl core::str::traits::FromStr for core::net::ip_addr::Ipv6Addr>::from_str
 .text._ZN4core3net6parser91_$LT$impl$u20$core..str..traits..FromStr$u20$for$u20$core..net..socket_addr..SocketAddr$GT$8from_str17hc426e7ddbe8aea6bE
                0xffff80004022d9ac        0x4 bin/obj/rslib.a(core-dca77d77b03929cc.core.bbd04c23a4fa3c72-cgu.0.rcgu.o)
                0xffff80004022d9ac                core::net::parser::<impl core::str::traits::FromStr for core::net::socket_addr::SocketAddr>::from_str
 .text._ZN4core3net6parser93_$LT$impl$u20$core..str..traits..FromStr$u20$for$u20$core..net..socket_addr..SocketAddrV4$GT$8from_str17h36962be403606b9bE
                0xffff80004022d9b0       0xe8 bin/obj/rslib.a(core-dca77d77b03929cc.core.bbd04c23a4fa3c72-cgu.0.rcgu.o)
                0xffff80004022d9b0                core::net::parser::<impl core::str::traits::FromStr for core::net::socket_addr::SocketAddrV4>::from_str
 .text._ZN4core3net6parser93_$LT$impl$u20$core..str..traits..FromStr$u20$for$u20$core..net..socket_addr..SocketAddrV6$GT$8from_str17ha8e8d55d9c761471E
                0xffff80004022da98       0x7c bin/obj/rslib.a(core-dca77d77b03929cc.core.bbd04c23a4fa3c72-cgu.0.rcgu.o)
                0xffff80004022da98                core::net::parser::<impl core::str::traits::FromStr for core::net::socket_addr::SocketAddrV6>::from_str
 .text.unlikely._ZN4core3num14overflow_panic3add17h5410f6567620b172E
                0xffff80004022db14       0x34 bin/obj/rslib.a(core-dca77d77b03929cc.core.bbd04c23a4fa3c72-cgu.0.rcgu.o)
                0xffff80004022db14                core::num::overflow_panic::add
 .text.unlikely._ZN4core3num14overflow_panic3div17h2268d6f0b7d5d231E
                0xffff80004022db48       0x34 bin/obj/rslib.a(core-dca77d77b03929cc.core.bbd04c23a4fa3c72-cgu.0.rcgu.o)
                0xffff80004022db48                core::num::overflow_panic::div
 .text.unlikely._ZN4core3num14overflow_panic3mul17hfc3d54877def1c4eE
                0xffff80004022db7c       0x34 bin/obj/rslib.a(core-dca77d77b03929cc.core.bbd04c23a4fa3c72-cgu.0.rcgu.o)
                0xffff80004022db7c                core::num::overflow_panic::mul
 .text.unlikely._ZN4core3num14overflow_panic3neg17h03d0ec61d2796cb6E
                0xffff80004022dbb0       0x34 bin/obj/rslib.a(core-dca77d77b03929cc.core.bbd04c23a4fa3c72-cgu.0.rcgu.o)
                0xffff80004022dbb0                core::num::overflow_panic::neg
 .text.unlikely._ZN4core3num14overflow_panic3rem17ha868917ab9956372E
                0xffff80004022dbe4       0x34 bin/obj/rslib.a(core-dca77d77b03929cc.core.bbd04c23a4fa3c72-cgu.0.rcgu.o)
                0xffff80004022dbe4                core::num::overflow_panic::rem
 .text.unlikely._ZN4core3num14overflow_panic3shl17h7cb24b3d213f8254E
                0xffff80004022dc18       0x34 bin/obj/rslib.a(core-dca77d77b03929cc.core.bbd04c23a4fa3c72-cgu.0.rcgu.o)
                0xffff80004022dc18                core::num::overflow_panic::shl
 .text.unlikely._ZN4core3num14overflow_panic3shr17h9e0ab7dcd18610b3E
                0xffff80004022dc4c       0x34 bin/obj/rslib.a(core-dca77d77b03929cc.core.bbd04c23a4fa3c72-cgu.0.rcgu.o)
                0xffff80004022dc4c                core::num::overflow_panic::shr
 .text.unlikely._ZN4core3num14overflow_panic3sub17h323f183954b0c380E
                0xffff80004022dc80       0x34 bin/obj/rslib.a(core-dca77d77b03929cc.core.bbd04c23a4fa3c72-cgu.0.rcgu.o)
                0xffff80004022dc80                core::num::overflow_panic::sub
 .text.unlikely._ZN4core3num22from_ascii_radix_panic17hb40744d8591454c1E
                0xffff80004022dcb4        0xc bin/obj/rslib.a(core-dca77d77b03929cc.core.bbd04c23a4fa3c72-cgu.0.rcgu.o)
                0xffff80004022dcb4                core::num::from_ascii_radix_panic
 .text.unlikely._ZN4core3num22from_ascii_radix_panic8do_panic7runtime17ha8c19c59ce7013dbE
                0xffff80004022dcc0       0x44 bin/obj/rslib.a(core-dca77d77b03929cc.core.bbd04c23a4fa3c72-cgu.0.rcgu.o)
                0xffff80004022dcc0                core::num::from_ascii_radix_panic::do_panic::runtime
 .text._ZN4core3num3fmt4Part5write17hf0d845b4e26f84f9E
                0xffff80004022dd04      0x188 bin/obj/rslib.a(core-dca77d77b03929cc.core.bbd04c23a4fa3c72-cgu.0.rcgu.o)
                0xffff80004022dd04                core::num::fmt::Part::write
 .text._ZN4core3num3fmt9Formatted3len17hf4093cc2a1cb6bebE
                0xffff80004022de8c       0xa8 bin/obj/rslib.a(core-dca77d77b03929cc.core.bbd04c23a4fa3c72-cgu.0.rcgu.o)
                0xffff80004022de8c                core::num::fmt::Formatted::len
 .text._ZN4core3num3fmt9Formatted5write17h8579e6f8deed03b7E
                0xffff80004022df34       0xc0 bin/obj/rslib.a(core-dca77d77b03929cc.core.bbd04c23a4fa3c72-cgu.0.rcgu.o)
                0xffff80004022df34                core::num::fmt::Formatted::write
 .text._ZN4core3num6bignum5tests6Big8x310bit_length17haa79a72ff0bef12fE
                0xffff80004022dff4       0xc4 bin/obj/rslib.a(core-dca77d77b03929cc.core.bbd04c23a4fa3c72-cgu.0.rcgu.o)
                0xffff80004022dff4                core::num::bignum::tests::Big8x3::bit_length
 .text._ZN4core3num6bignum5tests6Big8x310mul_digits17hb6e25ba7dffbc79eE
                0xffff80004022e0b8      0x370 bin/obj/rslib.a(core-dca77d77b03929cc.core.bbd04c23a4fa3c72-cgu.0.rcgu.o)
                0xffff80004022e0b8                core::num::bignum::tests::Big8x3::mul_digits
 .text._ZN4core3num6bignum5tests6Big8x313div_rem_small17hc5696436d8c797a2E
                0xffff80004022e428       0xcc bin/obj/rslib.a(core-dca77d77b03929cc.core.bbd04c23a4fa3c72-cgu.0.rcgu.o)
                0xffff80004022e428                core::num::bignum::tests::Big8x3::div_rem_small
 .text._ZN4core3num6bignum5tests6Big8x33add17he649fbe69f290707E
                0xffff80004022e4f4       0xb4 bin/obj/rslib.a(core-dca77d77b03929cc.core.bbd04c23a4fa3c72-cgu.0.rcgu.o)
                0xffff80004022e4f4                core::num::bignum::tests::Big8x3::add
 .text._ZN4core3num6bignum5tests6Big8x33sub17hb970f1f23ccbaedeE
                0xffff80004022e5a8       0xa8 bin/obj/rslib.a(core-dca77d77b03929cc.core.bbd04c23a4fa3c72-cgu.0.rcgu.o)
                0xffff80004022e5a8                core::num::bignum::tests::Big8x3::sub
 .text._ZN4core3num6bignum5tests6Big8x36digits17h11d8af2ca95785d8E
                0xffff80004022e650       0x2c bin/obj/rslib.a(core-dca77d77b03929cc.core.bbd04c23a4fa3c72-cgu.0.rcgu.o)
                0xffff80004022e650                core::num::bignum::tests::Big8x3::digits
 .text._ZN4core3num6bignum5tests6Big8x37get_bit17hcdb47ed76699ac52E
                0xffff80004022e67c       0x40 bin/obj/rslib.a(core-dca77d77b03929cc.core.bbd04c23a4fa3c72-cgu.0.rcgu.o)
                0xffff80004022e67c                core::num::bignum::tests::Big8x3::get_bit
 .text._ZN4core3num6bignum5tests6Big8x37is_zero17h442a4f584cdfb033E
                0xffff80004022e6bc       0x78 bin/obj/rslib.a(core-dca77d77b03929cc.core.bbd04c23a4fa3c72-cgu.0.rcgu.o)
                0xffff80004022e6bc                core::num::bignum::tests::Big8x3::is_zero
 .text._ZN4core3num6bignum5tests6Big8x38from_u6417h8560f34e965cf982E
                0xffff80004022e734       0xb0 bin/obj/rslib.a(core-dca77d77b03929cc.core.bbd04c23a4fa3c72-cgu.0.rcgu.o)
                0xffff80004022e734                core::num::bignum::tests::Big8x3::from_u64
 .text._ZN4core3num6bignum5tests6Big8x38mul_pow217h3ecb407d01dc2a43E
                0xffff80004022e7e4      0x6a0 bin/obj/rslib.a(core-dca77d77b03929cc.core.bbd04c23a4fa3c72-cgu.0.rcgu.o)
                0xffff80004022e7e4                core::num::bignum::tests::Big8x3::mul_pow2
 .text._ZN4core3num6bignum5tests6Big8x38mul_pow517ha94c529efd7d52a1E
                0xffff80004022ee84      0x1a8 bin/obj/rslib.a(core-dca77d77b03929cc.core.bbd04c23a4fa3c72-cgu.0.rcgu.o)
                0xffff80004022ee84                core::num::bignum::tests::Big8x3::mul_pow5
 .text._ZN4core3num6bignum5tests6Big8x39add_small17h912bb3682794db7eE
                0xffff80004022f02c       0x8c bin/obj/rslib.a(core-dca77d77b03929cc.core.bbd04c23a4fa3c72-cgu.0.rcgu.o)
                0xffff80004022f02c                core::num::bignum::tests::Big8x3::add_small
 .text._ZN4core3num6bignum5tests6Big8x39mul_small17hd2de5d25e9b2c25eE
                0xffff80004022f0b8       0xac bin/obj/rslib.a(core-dca77d77b03929cc.core.bbd04c23a4fa3c72-cgu.0.rcgu.o)
                0xffff80004022f0b8                core::num::bignum::tests::Big8x3::mul_small
 .text._ZN4core3num6bignum8Big32x4010bit_length17h5c89a586bdd907dcE
                0xffff80004022f164       0x84 bin/obj/rslib.a(core-dca77d77b03929cc.core.bbd04c23a4fa3c72-cgu.0.rcgu.o)
                0xffff80004022f164                core::num::bignum::Big32x40::bit_length
 .text._ZN4core3num6bignum8Big32x4010mul_digits17hc1f248f26d932738E
                0xffff80004022f1e8      0x2b0 bin/obj/rslib.a(core-dca77d77b03929cc.core.bbd04c23a4fa3c72-cgu.0.rcgu.o)
                0xffff80004022f1e8                core::num::bignum::Big32x40::mul_digits
 .text._ZN4core3num6bignum8Big32x4013div_rem_small17h71f09ad19d01391eE
                0xffff80004022f498       0x90 bin/obj/rslib.a(core-dca77d77b03929cc.core.bbd04c23a4fa3c72-cgu.0.rcgu.o)
                0xffff80004022f498                core::num::bignum::Big32x40::div_rem_small
 .text._ZN4core3num6bignum8Big32x403add17h8e14960d6dc1fa61E
                0xffff80004022f528       0xa0 bin/obj/rslib.a(core-dca77d77b03929cc.core.bbd04c23a4fa3c72-cgu.0.rcgu.o)
                0xffff80004022f528                core::num::bignum::Big32x40::add
 .text._ZN4core3num6bignum8Big32x403sub17hcc26ee574542a10aE
                0xffff80004022f5c8       0x98 bin/obj/rslib.a(core-dca77d77b03929cc.core.bbd04c23a4fa3c72-cgu.0.rcgu.o)
                0xffff80004022f5c8                core::num::bignum::Big32x40::sub
 .text._ZN4core3num6bignum8Big32x406digits17h28ba5ee8564c9576E
                0xffff80004022f660       0x2c bin/obj/rslib.a(core-dca77d77b03929cc.core.bbd04c23a4fa3c72-cgu.0.rcgu.o)
                0xffff80004022f660                core::num::bignum::Big32x40::digits
 .text._ZN4core3num6bignum8Big32x407get_bit17he9c782ebaf464074E
                0xffff80004022f68c       0x38 bin/obj/rslib.a(core-dca77d77b03929cc.core.bbd04c23a4fa3c72-cgu.0.rcgu.o)
                0xffff80004022f68c                core::num::bignum::Big32x40::get_bit
 .text._ZN4core3num6bignum8Big32x407is_zero17h966be28cb2fa879bE
                0xffff80004022f6c4       0x50 bin/obj/rslib.a(core-dca77d77b03929cc.core.bbd04c23a4fa3c72-cgu.0.rcgu.o)
                0xffff80004022f6c4                core::num::bignum::Big32x40::is_zero
 .text._ZN4core3num6bignum8Big32x408from_u6417ha6bac5905690d359E
                0xffff80004022f714       0x44 bin/obj/rslib.a(core-dca77d77b03929cc.core.bbd04c23a4fa3c72-cgu.0.rcgu.o)
                0xffff80004022f714                core::num::bignum::Big32x40::from_u64
 .text._ZN4core3num6bignum8Big32x408mul_pow217h33d36dc2f957bcb3E
                0xffff80004022f758      0x294 bin/obj/rslib.a(core-dca77d77b03929cc.core.bbd04c23a4fa3c72-cgu.0.rcgu.o)
                0xffff80004022f758                core::num::bignum::Big32x40::mul_pow2
 .text._ZN4core3num6bignum8Big32x408mul_pow517h0f5707fe6c6cda7fE
                0xffff80004022f9ec      0x1b4 bin/obj/rslib.a(core-dca77d77b03929cc.core.bbd04c23a4fa3c72-cgu.0.rcgu.o)
                0xffff80004022f9ec                core::num::bignum::Big32x40::mul_pow5
 .text._ZN4core3num6bignum8Big32x409add_small17hb4a0aebc60f64621E
                0xffff80004022fba0      0x3ec bin/obj/rslib.a(core-dca77d77b03929cc.core.bbd04c23a4fa3c72-cgu.0.rcgu.o)
                0xffff80004022fba0                core::num::bignum::Big32x40::add_small
 .text._ZN4core3num6bignum8Big32x409mul_small17h462397094e170397E
                0xffff80004022ff8c       0x8c bin/obj/rslib.a(core-dca77d77b03929cc.core.bbd04c23a4fa3c72-cgu.0.rcgu.o)
                0xffff80004022ff8c                core::num::bignum::Big32x40::mul_small
 .text._ZN4core3num7dec2flt11decimal_seq10DecimalSeq10left_shift17h701c26b17013561cE
                0xffff800040230018      0x214 bin/obj/rslib.a(core-dca77d77b03929cc.core.bbd04c23a4fa3c72-cgu.0.rcgu.o)
                0xffff800040230018                core::num::dec2flt::decimal_seq::DecimalSeq::left_shift
 .text._ZN4core3num7dec2flt11decimal_seq10DecimalSeq11right_shift17h49c3480ee085193cE
                0xffff80004023022c      0x1c0 bin/obj/rslib.a(core-dca77d77b03929cc.core.bbd04c23a4fa3c72-cgu.0.rcgu.o)
                0xffff80004023022c                core::num::dec2flt::decimal_seq::DecimalSeq::right_shift
 .text._ZN4core3num7dec2flt11decimal_seq10DecimalSeq4trim17hf1834547a4342d1fE
                0xffff8000402303ec       0x50 bin/obj/rslib.a(core-dca77d77b03929cc.core.bbd04c23a4fa3c72-cgu.0.rcgu.o)
                0xffff8000402303ec                core::num::dec2flt::decimal_seq::DecimalSeq::trim
 .text._ZN4core3num7dec2flt11decimal_seq10DecimalSeq5round17h293dc2da9f26dcd2E
                0xffff80004023043c       0xb4 bin/obj/rslib.a(core-dca77d77b03929cc.core.bbd04c23a4fa3c72-cgu.0.rcgu.o)
                0xffff80004023043c                core::num::dec2flt::decimal_seq::DecimalSeq::round
 .text._ZN4core3num7dec2flt11decimal_seq17parse_decimal_seq17h7365abecc72dfe72E
                0xffff8000402304f0      0x458 bin/obj/rslib.a(core-dca77d77b03929cc.core.bbd04c23a4fa3c72-cgu.0.rcgu.o)
                0xffff8000402304f0                core::num::dec2flt::decimal_seq::parse_decimal_seq
 .text._ZN4core3num7dec2flt5parse12parse_number17h90a2ce8dc52fcc8dE
                0xffff800040230948      0x4f0 bin/obj/rslib.a(core-dca77d77b03929cc.core.bbd04c23a4fa3c72-cgu.0.rcgu.o)
                0xffff800040230948                core::num::dec2flt::parse::parse_number
 .text._ZN4core3num7dec2flt60_$LT$impl$u20$core..str..traits..FromStr$u20$for$u20$f16$GT$8from_str17hbdbce320d9ba8ad7E
                0xffff800040230e38      0x504 bin/obj/rslib.a(core-dca77d77b03929cc.core.bbd04c23a4fa3c72-cgu.0.rcgu.o)
                0xffff800040230e38                core::num::dec2flt::<impl core::str::traits::FromStr for f16>::from_str
 .text._ZN4core3num7dec2flt60_$LT$impl$u20$core..str..traits..FromStr$u20$for$u20$f32$GT$8from_str17hcea29ac1dd886483E
                0xffff80004023133c      0x4e8 bin/obj/rslib.a(core-dca77d77b03929cc.core.bbd04c23a4fa3c72-cgu.0.rcgu.o)
                0xffff80004023133c                core::num::dec2flt::<impl core::str::traits::FromStr for f32>::from_str
 .text._ZN4core3num7dec2flt60_$LT$impl$u20$core..str..traits..FromStr$u20$for$u20$f64$GT$8from_str17h4ec83531f3b51968E
                0xffff800040231824      0x4b8 bin/obj/rslib.a(core-dca77d77b03929cc.core.bbd04c23a4fa3c72-cgu.0.rcgu.o)
                0xffff800040231824                core::num::dec2flt::<impl core::str::traits::FromStr for f64>::from_str
 .text._ZN4core3num7dec2flt6lemire13compute_float17h97837084178462edE
                0xffff800040231cdc      0x14c bin/obj/rslib.a(core-dca77d77b03929cc.core.bbd04c23a4fa3c72-cgu.0.rcgu.o)
 .text._ZN4core3num7dec2flt6lemire13compute_float17haa1b9706a504dea2E
                0xffff800040231e28      0x12c bin/obj/rslib.a(core-dca77d77b03929cc.core.bbd04c23a4fa3c72-cgu.0.rcgu.o)
 .text._ZN4core3num7dec2flt6lemire13compute_float17hd97703f866dcd952E
                0xffff800040231f54      0x150 bin/obj/rslib.a(core-dca77d77b03929cc.core.bbd04c23a4fa3c72-cgu.0.rcgu.o)
 .text._ZN4core3num7dec2flt6lemire22compute_product_approx17h99f55d84c9b1123bE
                0xffff8000402320a4       0x6c bin/obj/rslib.a(core-dca77d77b03929cc.core.bbd04c23a4fa3c72-cgu.0.rcgu.o)
                0xffff8000402320a4                core::num::dec2flt::lemire::compute_product_approx
 .text._ZN4core3num7flt2dec17digits_to_dec_str17h603844246b79fe94E
                0xffff800040232110      0x164 bin/obj/rslib.a(core-dca77d77b03929cc.core.bbd04c23a4fa3c72-cgu.0.rcgu.o)
                0xffff800040232110                core::num::flt2dec::digits_to_dec_str
 .text._ZN4core3num7flt2dec17digits_to_exp_str17hb9be12e07db8f6eaE
                0xffff800040232274      0x168 bin/obj/rslib.a(core-dca77d77b03929cc.core.bbd04c23a4fa3c72-cgu.0.rcgu.o)
                0xffff800040232274                core::num::flt2dec::digits_to_exp_str
 .text._ZN4core3num7flt2dec8round_up17h255825e7acf2c1f8E
                0xffff8000402323dc       0xbc bin/obj/rslib.a(core-dca77d77b03929cc.core.bbd04c23a4fa3c72-cgu.0.rcgu.o)
                0xffff8000402323dc                core::num::flt2dec::round_up
 .text._ZN4core3num7flt2dec8strategy5grisu12cached_power17h264b7fef9ff6dcc8E
                0xffff800040232498       0x74 bin/obj/rslib.a(core-dca77d77b03929cc.core.bbd04c23a4fa3c72-cgu.0.rcgu.o)
                0xffff800040232498                core::num::flt2dec::strategy::grisu::cached_power
 .text._ZN4core3num7flt2dec8strategy5grisu12format_exact17h3031cc90cbc6556cE
                0xffff80004023250c       0x90 bin/obj/rslib.a(core-dca77d77b03929cc.core.bbd04c23a4fa3c72-cgu.0.rcgu.o)
                0xffff80004023250c                core::num::flt2dec::strategy::grisu::format_exact
 .text._ZN4core3num7flt2dec8strategy5grisu15format_shortest17h9ac3bdd8dece0129E
                0xffff80004023259c       0x7c bin/obj/rslib.a(core-dca77d77b03929cc.core.bbd04c23a4fa3c72-cgu.0.rcgu.o)
                0xffff80004023259c                core::num::flt2dec::strategy::grisu::format_shortest
 .text._ZN4core3num7flt2dec8strategy5grisu16format_exact_opt14possibly_round17h70bdfbad4a1abf10E
                0xffff800040232618      0x228 bin/obj/rslib.a(core-dca77d77b03929cc.core.bbd04c23a4fa3c72-cgu.0.rcgu.o)
 .text._ZN4core3num7flt2dec8strategy5grisu16format_exact_opt17h06f3a25a68884b5fE
                0xffff800040232840      0x384 bin/obj/rslib.a(core-dca77d77b03929cc.core.bbd04c23a4fa3c72-cgu.0.rcgu.o)
                0xffff800040232840                core::num::flt2dec::strategy::grisu::format_exact_opt
 .text._ZN4core3num7flt2dec8strategy5grisu19format_shortest_opt17h95eed90a074fabc8E
                0xffff800040232bc4      0x5e0 bin/obj/rslib.a(core-dca77d77b03929cc.core.bbd04c23a4fa3c72-cgu.0.rcgu.o)
                0xffff800040232bc4                core::num::flt2dec::strategy::grisu::format_shortest_opt
 .text._ZN4core3num7flt2dec8strategy6dragon12format_exact17h2d86c5bd5ee2dfdcE
                0xffff8000402331a4      0xa04 bin/obj/rslib.a(core-dca77d77b03929cc.core.bbd04c23a4fa3c72-cgu.0.rcgu.o)
                0xffff8000402331a4                core::num::flt2dec::strategy::dragon::format_exact
 .text._ZN4core3num7flt2dec8strategy6dragon15format_shortest17hbf9e63cd6c7f3351E
                0xffff800040233ba8      0xb9c bin/obj/rslib.a(core-dca77d77b03929cc.core.bbd04c23a4fa3c72-cgu.0.rcgu.o)
                0xffff800040233ba8                core::num::flt2dec::strategy::dragon::format_shortest
 .text._ZN4core3num7flt2dec8strategy6dragon9mul_pow1017h1db9a6422b51289cE
                0xffff800040234744      0x1e8 bin/obj/rslib.a(core-dca77d77b03929cc.core.bbd04c23a4fa3c72-cgu.0.rcgu.o)
                0xffff800040234744                core::num::flt2dec::strategy::dragon::mul_pow10
 .text.unlikely._ZN4core3num8int_sqrt27panic_for_negative_argument17h33a7e504fa9f917aE
                0xffff80004023492c       0x34 bin/obj/rslib.a(core-dca77d77b03929cc.core.bbd04c23a4fa3c72-cgu.0.rcgu.o)
                0xffff80004023492c                core::num::int_sqrt::panic_for_negative_argument
 .text._ZN4core3num9diy_float2Fp12normalize_to17he84959c4fb326ec8E
                0xffff800040234960       0x80 bin/obj/rslib.a(core-dca77d77b03929cc.core.bbd04c23a4fa3c72-cgu.0.rcgu.o)
                0xffff800040234960                core::num::diy_float::Fp::normalize_to
 .text.unlikely._ZN4core3num9int_log1030panic_for_nonpositive_argument17hda7ee47326df54a2E
                0xffff8000402349e0       0x34 bin/obj/rslib.a(core-dca77d77b03929cc.core.bbd04c23a4fa3c72-cgu.0.rcgu.o)
                0xffff8000402349e0                core::num::int_log10::panic_for_nonpositive_argument
 .text.unlikely._ZN4core3str16slice_error_fail17h0dfe4860dd14f266E
                0xffff800040234a14        0xc bin/obj/rslib.a(core-dca77d77b03929cc.core.bbd04c23a4fa3c72-cgu.0.rcgu.o)
                0xffff800040234a14                core::str::slice_error_fail
 .text.unlikely._ZN4core3str19slice_error_fail_ct17h6cde612da549c351E
                0xffff800040234a20       0x34 bin/obj/rslib.a(core-dca77d77b03929cc.core.bbd04c23a4fa3c72-cgu.0.rcgu.o)
                0xffff800040234a20                core::str::slice_error_fail_ct
 .text._ZN4core3str19slice_error_fail_rt17hdef2de376b37c97fE
                0xffff800040234a54      0x26c bin/obj/rslib.a(core-dca77d77b03929cc.core.bbd04c23a4fa3c72-cgu.0.rcgu.o)
                0xffff800040234a54                core::str::slice_error_fail_rt
 .text._ZN4core3str21_$LT$impl$u20$str$GT$12escape_debug17h4b12088bc35e1e19E
                0xffff800040234cc0       0xec bin/obj/rslib.a(core-dca77d77b03929cc.core.bbd04c23a4fa3c72-cgu.0.rcgu.o)
                0xffff800040234cc0                core::str::<impl str>::escape_debug
 .text._ZN4core3str21_$LT$impl$u20$str$GT$12substr_range17h0f1ef55950cbd311E
                0xffff800040234dac       0x2c bin/obj/rslib.a(core-dca77d77b03929cc.core.bbd04c23a4fa3c72-cgu.0.rcgu.o)
                0xffff800040234dac                core::str::<impl str>::substr_range
 .text._ZN4core3str21_$LT$impl$u20$str$GT$13from_utf8_mut17h59813a929d4e92ecE
                0xffff800040234dd8        0x4 bin/obj/rslib.a(core-dca77d77b03929cc.core.bbd04c23a4fa3c72-cgu.0.rcgu.o)
                0xffff800040234dd8                core::str::<impl str>::from_utf8_mut
 .text._ZN4core3str21_$LT$impl$u20$str$GT$22split_at_mut_unchecked17h7cb148149252da29E
                0xffff800040234ddc       0x14 bin/obj/rslib.a(core-dca77d77b03929cc.core.bbd04c23a4fa3c72-cgu.0.rcgu.o)
                0xffff800040234ddc                core::str::<impl str>::split_at_mut_unchecked
 .text._ZN4core3str21_$LT$impl$u20$str$GT$9from_utf817he4f9d5634b42488bE
                0xffff800040234df0        0x4 bin/obj/rslib.a(core-dca77d77b03929cc.core.bbd04c23a4fa3c72-cgu.0.rcgu.o)
                0xffff800040234df0                core::str::<impl str>::from_utf8
 .text._ZN4core3str5count14do_count_chars17h2b1523ba69ced03dE
                0xffff800040234df4      0x7b4 bin/obj/rslib.a(core-dca77d77b03929cc.core.bbd04c23a4fa3c72-cgu.0.rcgu.o)
                0xffff800040234df4                core::str::count::do_count_chars
 .text._ZN4core3str5count23char_count_general_case17hdb77dd78adbb4252E
                0xffff8000402355a8      0x440 bin/obj/rslib.a(core-dca77d77b03929cc.core.bbd04c23a4fa3c72-cgu.0.rcgu.o)
                0xffff8000402355a8                core::str::count::char_count_general_case
 .text.unlikely._ZN4core3str6traits23str_index_overflow_fail17h19cce56c90edc887E
                0xffff8000402359e8       0x34 bin/obj/rslib.a(core-dca77d77b03929cc.core.bbd04c23a4fa3c72-cgu.0.rcgu.o)
                0xffff8000402359e8                core::str::traits::str_index_overflow_fail
 .text._ZN4core3str7pattern11StrSearcher3new17h9981ab61138c7f6aE
                0xffff800040235a1c      0xb7c bin/obj/rslib.a(core-dca77d77b03929cc.core.bbd04c23a4fa3c72-cgu.0.rcgu.o)
                0xffff800040235a1c                core::str::pattern::StrSearcher::new
 .text._ZN4core3str8converts13from_utf8_mut17h629da4420c594d4dE
                0xffff800040236598      0x270 bin/obj/rslib.a(core-dca77d77b03929cc.core.bbd04c23a4fa3c72-cgu.0.rcgu.o)
                0xffff800040236598                core::str::converts::from_utf8_mut
 .text._ZN4core3str8converts9from_utf817h67b10b1eb55d1416E
                0xffff800040236808      0x270 bin/obj/rslib.a(core-dca77d77b03929cc.core.bbd04c23a4fa3c72-cgu.0.rcgu.o)
                0xffff800040236808                core::str::converts::from_utf8
 .text.unlikely._ZN4core4cell22panic_already_borrowed17h29b04afb5f27b777E
                0xffff800040236a78        0xc bin/obj/rslib.a(core-dca77d77b03929cc.core.bbd04c23a4fa3c72-cgu.0.rcgu.o)
                0xffff800040236a78                core::cell::panic_already_borrowed
 .text.unlikely._ZN4core4cell22panic_already_borrowed8do_panic7runtime17h16c9265e5353d45dE
                0xffff800040236a84       0x44 bin/obj/rslib.a(core-dca77d77b03929cc.core.bbd04c23a4fa3c72-cgu.0.rcgu.o)
                0xffff800040236a84                core::cell::panic_already_borrowed::do_panic::runtime
 .text.unlikely._ZN4core4cell30panic_already_mutably_borrowed17h60f3fd62f8e25c0cE
                0xffff800040236ac8        0xc bin/obj/rslib.a(core-dca77d77b03929cc.core.bbd04c23a4fa3c72-cgu.0.rcgu.o)
                0xffff800040236ac8                core::cell::panic_already_mutably_borrowed
 .text.unlikely._ZN4core4cell30panic_already_mutably_borrowed8do_panic7runtime17h3e972106a6e11420E
                0xffff800040236ad4       0x44 bin/obj/rslib.a(core-dca77d77b03929cc.core.bbd04c23a4fa3c72-cgu.0.rcgu.o)
                0xffff800040236ad4                core::cell::panic_already_mutably_borrowed::do_panic::runtime
 .text.unlikely._ZN4core4cell4lazy14panic_poisoned17heee5ca312b9ab2b4E
                0xffff800040236b18       0x38 bin/obj/rslib.a(core-dca77d77b03929cc.core.bbd04c23a4fa3c72-cgu.0.rcgu.o)
                0xffff800040236b18                core::cell::lazy::panic_poisoned
 .text.unlikely._ZN4core4char7methods15encode_utf8_raw8do_panic7runtime17h3126a7097291abceE
                0xffff800040236b50       0x6c bin/obj/rslib.a(core-dca77d77b03929cc.core.bbd04c23a4fa3c72-cgu.0.rcgu.o)
                0xffff800040236b50                core::char::methods::encode_utf8_raw::do_panic::runtime
 .text.unlikely._ZN4core4char7methods16encode_utf16_raw8do_panic7runtime17h252e37441bc3de94E
                0xffff800040236bbc       0x6c bin/obj/rslib.a(core-dca77d77b03929cc.core.bbd04c23a4fa3c72-cgu.0.rcgu.o)
                0xffff800040236bbc                core::char::methods::encode_utf16_raw::do_panic::runtime
 .text._ZN4core4char7methods22_$LT$impl$u20$char$GT$16escape_debug_ext17h2712871fe97bdf6fE
                0xffff800040236c28      0x2d0 bin/obj/rslib.a(core-dca77d77b03929cc.core.bbd04c23a4fa3c72-cgu.0.rcgu.o)
 .text.unlikely._ZN4core4wtf816slice_error_fail17hdcd1a3e6c85c3b59E
                0xffff800040236ef8       0x8c bin/obj/rslib.a(core-dca77d77b03929cc.core.bbd04c23a4fa3c72-cgu.0.rcgu.o)
                0xffff800040236ef8                core::wtf8::slice_error_fail
 .text._ZN4core5alloc6layout6Layout19is_size_align_valid17hacbce6d9b2b9d4f0E
                0xffff800040236f84       0x20 bin/obj/rslib.a(core-dca77d77b03929cc.core.bbd04c23a4fa3c72-cgu.0.rcgu.o)
                0xffff800040236f84                core::alloc::layout::Layout::is_size_align_valid
 .text._ZN4core5ascii14escape_default17h9c57be41f66be496E
                0xffff800040236fa4       0x74 bin/obj/rslib.a(core-dca77d77b03929cc.core.bbd04c23a4fa3c72-cgu.0.rcgu.o)
                0xffff800040236fa4                core::ascii::escape_default
 .text.unlikely._ZN4core5slice29_$LT$impl$u20$$u5b$T$u5d$$GT$15copy_from_slice17len_mismatch_fail17h9544aa5fd13c64d5E
                0xffff800040237018       0x18 bin/obj/rslib.a(core-dca77d77b03929cc.core.bbd04c23a4fa3c72-cgu.0.rcgu.o)
                0xffff800040237018                core::slice::<impl [T]>::copy_from_slice::len_mismatch_fail
 .text.unlikely._ZN4core5slice29_$LT$impl$u20$$u5b$T$u5d$$GT$15copy_from_slice17len_mismatch_fail8do_panic7runtime17h824bd876139b05e6E
                0xffff800040237030       0x54 bin/obj/rslib.a(core-dca77d77b03929cc.core.bbd04c23a4fa3c72-cgu.0.rcgu.o)
                0xffff800040237030                core::slice::<impl [T]>::copy_from_slice::len_mismatch_fail::do_panic::runtime
 .text._ZN4core5slice29_$LT$impl$u20$$u5b$T$u5d$$GT$16align_to_offsets3gcd17h22a27be419f37cc3E
                0xffff800040237084       0x24 bin/obj/rslib.a(core-dca77d77b03929cc.core.bbd04c23a4fa3c72-cgu.0.rcgu.o)
                0xffff800040237084                core::slice::<impl [T]>::align_to_offsets::gcd
 .text.unlikely._ZN4core5slice4sort6shared9smallsort22panic_on_ord_violation17h96ba4dcb7a62ec01E
                0xffff8000402370a8       0x38 bin/obj/rslib.a(core-dca77d77b03929cc.core.bbd04c23a4fa3c72-cgu.0.rcgu.o)
                0xffff8000402370a8                core::slice::sort::shared::smallsort::panic_on_ord_violation
 .text._ZN4core5slice4sort6stable5drift11sqrt_approx17hf72b4b1f25ee3a1fE
                0xffff8000402370e0       0x2c bin/obj/rslib.a(core-dca77d77b03929cc.core.bbd04c23a4fa3c72-cgu.0.rcgu.o)
                0xffff8000402370e0                core::slice::sort::stable::drift::sqrt_approx
 .text._ZN4core5slice5index16into_slice_range17h4e4f81d850478c59E
                0xffff80004023710c       0xc8 bin/obj/rslib.a(core-dca77d77b03929cc.core.bbd04c23a4fa3c72-cgu.0.rcgu.o)
                0xffff80004023710c                core::slice::index::into_slice_range
 .text.unlikely._ZN4core5slice5index16slice_index_fail17hf6dd4a5d97b8b298E
                0xffff8000402371d4       0x44 bin/obj/rslib.a(core-dca77d77b03929cc.core.bbd04c23a4fa3c72-cgu.0.rcgu.o)
                0xffff8000402371d4                core::slice::index::slice_index_fail
 .text.unlikely._ZN4core5slice5index16slice_index_fail8do_panic7runtime17h2c1001ca9edf392cE
                0xffff800040237218       0x50 bin/obj/rslib.a(core-dca77d77b03929cc.core.bbd04c23a4fa3c72-cgu.0.rcgu.o)
                0xffff800040237218                core::slice::index::slice_index_fail::do_panic::runtime
 .text.unlikely._ZN4core5slice5index16slice_index_fail8do_panic7runtime17hc74f5afeb3957d14E
                0xffff800040237268       0x50 bin/obj/rslib.a(core-dca77d77b03929cc.core.bbd04c23a4fa3c72-cgu.0.rcgu.o)
                0xffff800040237268                core::slice::index::slice_index_fail::do_panic::runtime
                0xffff800040237268                core::slice::index::slice_index_fail::do_panic::runtime
 .text.unlikely._ZN4core5slice5index16slice_index_fail8do_panic7runtime17he0d6622bfe3db930E
                0xffff8000402372b8       0x50 bin/obj/rslib.a(core-dca77d77b03929cc.core.bbd04c23a4fa3c72-cgu.0.rcgu.o)
                0xffff8000402372b8                core::slice::index::slice_index_fail::do_panic::runtime
 .text._ZN4core5slice6memchr14memchr_aligned17h7ead5f3755b1e32cE
                0xffff800040237308       0xdc bin/obj/rslib.a(core-dca77d77b03929cc.core.bbd04c23a4fa3c72-cgu.0.rcgu.o)
                0xffff800040237308                core::slice::memchr::memchr_aligned
 .text._ZN4core5slice6memchr7memrchr17h8006d9875623a4c6E
                0xffff8000402373e4      0x128 bin/obj/rslib.a(core-dca77d77b03929cc.core.bbd04c23a4fa3c72-cgu.0.rcgu.o)
                0xffff8000402373e4                core::slice::memchr::memrchr
 .text.unlikely._ZN4core6option13expect_failed17h3fe519c7a23826e5E
                0xffff80004023750c       0x48 bin/obj/rslib.a(core-dca77d77b03929cc.core.bbd04c23a4fa3c72-cgu.0.rcgu.o)
                0xffff80004023750c                core::option::expect_failed
 .text.unlikely._ZN4core6option13unwrap_failed17h8e8df245a89ec146E
                0xffff800040237554       0x1c bin/obj/rslib.a(core-dca77d77b03929cc.core.bbd04c23a4fa3c72-cgu.0.rcgu.o)
                0xffff800040237554                core::option::unwrap_failed
 .text.unlikely._ZN4core6result13unwrap_failed17hed39391ab9545162E
                0xffff800040237570       0x5c bin/obj/rslib.a(core-dca77d77b03929cc.core.bbd04c23a4fa3c72-cgu.0.rcgu.o)
                0xffff800040237570                core::result::unwrap_failed
 .text._ZN4core7unicode12unicode_data10alphabetic11lookup_slow17h973be55d11aac931E
                0xffff8000402375cc      0x108 bin/obj/rslib.a(core-dca77d77b03929cc.core.bbd04c23a4fa3c72-cgu.0.rcgu.o)
                0xffff8000402375cc                core::unicode::unicode_data::alphabetic::lookup_slow
 .text._ZN4core7unicode12unicode_data11conversions8to_lower17h8595194a923028dcE
                0xffff8000402376d4      0x188 bin/obj/rslib.a(core-dca77d77b03929cc.core.bbd04c23a4fa3c72-cgu.0.rcgu.o)
                0xffff8000402376d4                core::unicode::unicode_data::conversions::to_lower
 .text._ZN4core7unicode12unicode_data11conversions8to_upper17h9e13850ebc1d2132E
                0xffff80004023785c      0x1b4 bin/obj/rslib.a(core-dca77d77b03929cc.core.bbd04c23a4fa3c72-cgu.0.rcgu.o)
                0xffff80004023785c                core::unicode::unicode_data::conversions::to_upper
 .text._ZN4core7unicode12unicode_data14case_ignorable11lookup_slow17h20a6857f2e80acc9E
                0xffff800040237a10      0x10c bin/obj/rslib.a(core-dca77d77b03929cc.core.bbd04c23a4fa3c72-cgu.0.rcgu.o)
                0xffff800040237a10                core::unicode::unicode_data::case_ignorable::lookup_slow
 .text._ZN4core7unicode12unicode_data15grapheme_extend11lookup_slow17h297247f3297bb779E
                0xffff800040237b1c      0x108 bin/obj/rslib.a(core-dca77d77b03929cc.core.bbd04c23a4fa3c72-cgu.0.rcgu.o)
                0xffff800040237b1c                core::unicode::unicode_data::grapheme_extend::lookup_slow
 .text._ZN4core7unicode12unicode_data1n11lookup_slow17he45cfa250763bf33E
                0xffff800040237c24      0x108 bin/obj/rslib.a(core-dca77d77b03929cc.core.bbd04c23a4fa3c72-cgu.0.rcgu.o)
                0xffff800040237c24                core::unicode::unicode_data::n::lookup_slow
 .text._ZN4core7unicode12unicode_data5cased11lookup_slow17h2b6625c1dd01bfa6E
                0xffff800040237d2c       0xf4 bin/obj/rslib.a(core-dca77d77b03929cc.core.bbd04c23a4fa3c72-cgu.0.rcgu.o)
                0xffff800040237d2c                core::unicode::unicode_data::cased::lookup_slow
 .text._ZN4core7unicode12unicode_data9lowercase6lookup17h98bac80c5438d997E
                0xffff800040237e20      0x12c bin/obj/rslib.a(core-dca77d77b03929cc.core.bbd04c23a4fa3c72-cgu.0.rcgu.o)
                0xffff800040237e20                core::unicode::unicode_data::lowercase::lookup
 .text._ZN4core7unicode12unicode_data9uppercase6lookup17h1daff1c122981500E
                0xffff800040237f4c      0x12c bin/obj/rslib.a(core-dca77d77b03929cc.core.bbd04c23a4fa3c72-cgu.0.rcgu.o)
                0xffff800040237f4c                core::unicode::unicode_data::uppercase::lookup
 .text._ZN4core7unicode9printable12is_printable17ha337e908077d30bcE
                0xffff800040238078      0x2f4 bin/obj/rslib.a(core-dca77d77b03929cc.core.bbd04c23a4fa3c72-cgu.0.rcgu.o)
                0xffff800040238078                core::unicode::printable::is_printable
 .text.unlikely._ZN4core9panicking11panic_const23panic_const_div_by_zero17h9e859f64863b96a5E
                0xffff80004023836c       0x34 bin/obj/rslib.a(core-dca77d77b03929cc.core.bbd04c23a4fa3c72-cgu.0.rcgu.o)
                0xffff80004023836c                core::panicking::panic_const::panic_const_div_by_zero
 .text.unlikely._ZN4core9panicking11panic_const23panic_const_gen_fn_none17h6ccebbb5ce514529E
                0xffff8000402383a0       0x34 bin/obj/rslib.a(core-dca77d77b03929cc.core.bbd04c23a4fa3c72-cgu.0.rcgu.o)
                0xffff8000402383a0                core::panicking::panic_const::panic_const_gen_fn_none
 .text.unlikely._ZN4core9panicking11panic_const23panic_const_rem_by_zero17hce913302065341e9E
                0xffff8000402383d4       0x34 bin/obj/rslib.a(core-dca77d77b03929cc.core.bbd04c23a4fa3c72-cgu.0.rcgu.o)
                0xffff8000402383d4                core::panicking::panic_const::panic_const_rem_by_zero
 .text.unlikely._ZN4core9panicking11panic_const24panic_const_add_overflow17hd293c11264a8e77cE
                0xffff800040238408       0x34 bin/obj/rslib.a(core-dca77d77b03929cc.core.bbd04c23a4fa3c72-cgu.0.rcgu.o)
                0xffff800040238408                core::panicking::panic_const::panic_const_add_overflow
 .text.unlikely._ZN4core9panicking11panic_const24panic_const_div_overflow17h3656741d77f2b7c1E
                0xffff80004023843c       0x34 bin/obj/rslib.a(core-dca77d77b03929cc.core.bbd04c23a4fa3c72-cgu.0.rcgu.o)
                0xffff80004023843c                core::panicking::panic_const::panic_const_div_overflow
 .text.unlikely._ZN4core9panicking11panic_const24panic_const_mul_overflow17h2bf1bc6da2f3ca97E
                0xffff800040238470       0x34 bin/obj/rslib.a(core-dca77d77b03929cc.core.bbd04c23a4fa3c72-cgu.0.rcgu.o)
                0xffff800040238470                core::panicking::panic_const::panic_const_mul_overflow
 .text.unlikely._ZN4core9panicking11panic_const24panic_const_neg_overflow17h3720953546ec262aE
                0xffff8000402384a4       0x34 bin/obj/rslib.a(core-dca77d77b03929cc.core.bbd04c23a4fa3c72-cgu.0.rcgu.o)
                0xffff8000402384a4                core::panicking::panic_const::panic_const_neg_overflow
 .text.unlikely._ZN4core9panicking11panic_const24panic_const_rem_overflow17h6b5e2675730c6ea6E
                0xffff8000402384d8       0x34 bin/obj/rslib.a(core-dca77d77b03929cc.core.bbd04c23a4fa3c72-cgu.0.rcgu.o)
                0xffff8000402384d8                core::panicking::panic_const::panic_const_rem_overflow
 .text.unlikely._ZN4core9panicking11panic_const24panic_const_shl_overflow17h471dbca539834de1E
                0xffff80004023850c       0x34 bin/obj/rslib.a(core-dca77d77b03929cc.core.bbd04c23a4fa3c72-cgu.0.rcgu.o)
                0xffff80004023850c                core::panicking::panic_const::panic_const_shl_overflow
 .text.unlikely._ZN4core9panicking11panic_const24panic_const_shr_overflow17h079e63ad07d18028E
                0xffff800040238540       0x34 bin/obj/rslib.a(core-dca77d77b03929cc.core.bbd04c23a4fa3c72-cgu.0.rcgu.o)
                0xffff800040238540                core::panicking::panic_const::panic_const_shr_overflow
 .text.unlikely._ZN4core9panicking11panic_const24panic_const_sub_overflow17h330dd311a1010209E
                0xffff800040238574       0x34 bin/obj/rslib.a(core-dca77d77b03929cc.core.bbd04c23a4fa3c72-cgu.0.rcgu.o)
                0xffff800040238574                core::panicking::panic_const::panic_const_sub_overflow
 .text.unlikely._ZN4core9panicking11panic_const28panic_const_async_fn_resumed17hdad24b4d5f504004E
                0xffff8000402385a8       0x34 bin/obj/rslib.a(core-dca77d77b03929cc.core.bbd04c23a4fa3c72-cgu.0.rcgu.o)
                0xffff8000402385a8                core::panicking::panic_const::panic_const_async_fn_resumed
 .text.unlikely._ZN4core9panicking11panic_const28panic_const_gen_fn_none_drop17h87d216fe7af9474bE
                0xffff8000402385dc       0x34 bin/obj/rslib.a(core-dca77d77b03929cc.core.bbd04c23a4fa3c72-cgu.0.rcgu.o)
                0xffff8000402385dc                core::panicking::panic_const::panic_const_gen_fn_none_drop
 .text.unlikely._ZN4core9panicking11panic_const29panic_const_coroutine_resumed17hf9512d54125bd79fE
                0xffff800040238610       0x34 bin/obj/rslib.a(core-dca77d77b03929cc.core.bbd04c23a4fa3c72-cgu.0.rcgu.o)
                0xffff800040238610                core::panicking::panic_const::panic_const_coroutine_resumed
 .text.unlikely._ZN4core9panicking11panic_const29panic_const_gen_fn_none_panic17hcde5308afaf4a3e4E
                0xffff800040238644       0x34 bin/obj/rslib.a(core-dca77d77b03929cc.core.bbd04c23a4fa3c72-cgu.0.rcgu.o)
                0xffff800040238644                core::panicking::panic_const::panic_const_gen_fn_none_panic
 .text.unlikely._ZN4core9panicking11panic_const32panic_const_async_gen_fn_resumed17h9e468060d5f1f0c9E
                0xffff800040238678       0x34 bin/obj/rslib.a(core-dca77d77b03929cc.core.bbd04c23a4fa3c72-cgu.0.rcgu.o)
                0xffff800040238678                core::panicking::panic_const::panic_const_async_gen_fn_resumed
 .text.unlikely._ZN4core9panicking11panic_const33panic_const_async_fn_resumed_drop17h025c12a8592ab346E
                0xffff8000402386ac       0x34 bin/obj/rslib.a(core-dca77d77b03929cc.core.bbd04c23a4fa3c72-cgu.0.rcgu.o)
                0xffff8000402386ac                core::panicking::panic_const::panic_const_async_fn_resumed_drop
 .text.unlikely._ZN4core9panicking11panic_const34panic_const_async_fn_resumed_panic17h807de21dfdf36c09E
                0xffff8000402386e0       0x34 bin/obj/rslib.a(core-dca77d77b03929cc.core.bbd04c23a4fa3c72-cgu.0.rcgu.o)
                0xffff8000402386e0                core::panicking::panic_const::panic_const_async_fn_resumed_panic
 .text.unlikely._ZN4core9panicking11panic_const34panic_const_coroutine_resumed_drop17h301c9903b6001997E
                0xffff800040238714       0x34 bin/obj/rslib.a(core-dca77d77b03929cc.core.bbd04c23a4fa3c72-cgu.0.rcgu.o)
                0xffff800040238714                core::panicking::panic_const::panic_const_coroutine_resumed_drop
 .text.unlikely._ZN4core9panicking11panic_const35panic_const_coroutine_resumed_panic17h197fc7f28fc1b4beE
                0xffff800040238748       0x34 bin/obj/rslib.a(core-dca77d77b03929cc.core.bbd04c23a4fa3c72-cgu.0.rcgu.o)
                0xffff800040238748                core::panicking::panic_const::panic_const_coroutine_resumed_panic
 .text.unlikely._ZN4core9panicking11panic_const37panic_const_async_gen_fn_resumed_drop17h7736250401768d48E
                0xffff80004023877c       0x34 bin/obj/rslib.a(core-dca77d77b03929cc.core.bbd04c23a4fa3c72-cgu.0.rcgu.o)
                0xffff80004023877c                core::panicking::panic_const::panic_const_async_gen_fn_resumed_drop
 .text.unlikely._ZN4core9panicking11panic_const38panic_const_async_gen_fn_resumed_panic17h1ef3106d067d26deE
                0xffff8000402387b0       0x34 bin/obj/rslib.a(core-dca77d77b03929cc.core.bbd04c23a4fa3c72-cgu.0.rcgu.o)
                0xffff8000402387b0                core::panicking::panic_const::panic_const_async_gen_fn_resumed_panic
 .text.unlikely._ZN4core9panicking13assert_failed17h709a0c217cdcdb9cE
                0xffff8000402387e4       0x1c bin/obj/rslib.a(core-dca77d77b03929cc.core.bbd04c23a4fa3c72-cgu.0.rcgu.o)
                0xffff8000402387e4                core::panicking::assert_failed
 .text.unlikely._ZN4core9panicking13assert_failed17hbc3e10814ab4836dE
                0xffff800040238800       0x1c bin/obj/rslib.a(core-dca77d77b03929cc.core.bbd04c23a4fa3c72-cgu.0.rcgu.o)
                0xffff800040238800                core::panicking::assert_failed
 .text.unlikely._ZN4core9panicking13assert_failed17hd5a518c0f7e88519E
                0xffff80004023881c       0x1c bin/obj/rslib.a(core-dca77d77b03929cc.core.bbd04c23a4fa3c72-cgu.0.rcgu.o)
                0xffff80004023881c                core::panicking::assert_failed
 .text.unlikely._ZN4core9panicking14panic_nounwind17h577093eebf318476E
                0xffff800040238838       0x3c bin/obj/rslib.a(core-dca77d77b03929cc.core.bbd04c23a4fa3c72-cgu.0.rcgu.o)
                0xffff800040238838                core::panicking::panic_nounwind
 .text.unlikely._ZN4core9panicking15const_panic_fmt17h77cff2874c609df3E
                0xffff800040238874       0x64 bin/obj/rslib.a(core-dca77d77b03929cc.core.bbd04c23a4fa3c72-cgu.0.rcgu.o)
                0xffff800040238874                core::panicking::const_panic_fmt
 .text.unlikely._ZN4core9panicking16panic_in_cleanup17h031f8596f053436cE
                0xffff8000402388d8       0x18 bin/obj/rslib.a(core-dca77d77b03929cc.core.bbd04c23a4fa3c72-cgu.0.rcgu.o)
                0xffff8000402388d8                core::panicking::panic_in_cleanup
 .text.unlikely._ZN4core9panicking18panic_bounds_check17he29bb21320f32a38E
                0xffff8000402388f0       0x50 bin/obj/rslib.a(core-dca77d77b03929cc.core.bbd04c23a4fa3c72-cgu.0.rcgu.o)
                0xffff8000402388f0                core::panicking::panic_bounds_check
 .text.unlikely._ZN4core9panicking18panic_nounwind_fmt17h7ec0765aa373c1a4E
                0xffff800040238940       0x44 bin/obj/rslib.a(core-dca77d77b03929cc.core.bbd04c23a4fa3c72-cgu.0.rcgu.o)
                0xffff800040238940                core::panicking::panic_nounwind_fmt
 .text.unlikely._ZN4core9panicking19assert_failed_inner17h09d676bdb30b5f2cE
                0xffff800040238984       0xec bin/obj/rslib.a(core-dca77d77b03929cc.core.bbd04c23a4fa3c72-cgu.0.rcgu.o)
                0xffff800040238984                core::panicking::assert_failed_inner
 .text.unlikely._ZN4core9panicking19panic_cannot_unwind17hfc8eddcb7354b1a5E
                0xffff800040238a70       0x18 bin/obj/rslib.a(core-dca77d77b03929cc.core.bbd04c23a4fa3c72-cgu.0.rcgu.o)
                0xffff800040238a70                core::panicking::panic_cannot_unwind
 .text.unlikely._ZN4core9panicking26panic_nounwind_nobacktrace17h871c9c424a7e26e2E
                0xffff800040238a88       0x3c bin/obj/rslib.a(core-dca77d77b03929cc.core.bbd04c23a4fa3c72-cgu.0.rcgu.o)
                0xffff800040238a88                core::panicking::panic_nounwind_nobacktrace
 .text.unlikely._ZN4core9panicking30panic_null_pointer_dereference17hdf2bd4a2edf063f2E
                0xffff800040238ac4       0x38 bin/obj/rslib.a(core-dca77d77b03929cc.core.bbd04c23a4fa3c72-cgu.0.rcgu.o)
                0xffff800040238ac4                core::panicking::panic_null_pointer_dereference
 .text.unlikely._ZN4core9panicking31panic_invalid_enum_construction17h43c120b8acdf230aE
                0xffff800040238afc       0x48 bin/obj/rslib.a(core-dca77d77b03929cc.core.bbd04c23a4fa3c72-cgu.0.rcgu.o)
                0xffff800040238afc                core::panicking::panic_invalid_enum_construction
 .text.unlikely._ZN4core9panicking36panic_misaligned_pointer_dereference17hd141758b151b3bc6E
                0xffff800040238b44       0x50 bin/obj/rslib.a(core-dca77d77b03929cc.core.bbd04c23a4fa3c72-cgu.0.rcgu.o)
                0xffff800040238b44                core::panicking::panic_misaligned_pointer_dereference
 .text.unlikely._ZN4core9panicking5panic17h23e617832b746870E
                0xffff800040238b94       0x34 bin/obj/rslib.a(core-dca77d77b03929cc.core.bbd04c23a4fa3c72-cgu.0.rcgu.o)
                0xffff800040238b94                core::panicking::panic
 .text.unlikely._ZN4core9panicking9panic_fmt17h36bd9ed31f3bd570E
                0xffff800040238bc8       0x20 bin/obj/rslib.a(core-dca77d77b03929cc.core.bbd04c23a4fa3c72-cgu.0.rcgu.o)
                0xffff800040238bc8                core::panicking::panic_fmt
 .text._ZN50_$LT$u16$u20$as$u20$core..num..bignum..FullOps$GT$12full_div_rem17h3d8a2afe85a1bf81E
                0xffff800040238be8       0x34 bin/obj/rslib.a(core-dca77d77b03929cc.core.bbd04c23a4fa3c72-cgu.0.rcgu.o)
                0xffff800040238be8                <u16 as core::num::bignum::FullOps>::full_div_rem
 .text._ZN50_$LT$u32$u20$as$u20$core..num..bignum..FullOps$GT$12full_div_rem17hb9614d111998a11cE
                0xffff800040238c1c       0x34 bin/obj/rslib.a(core-dca77d77b03929cc.core.bbd04c23a4fa3c72-cgu.0.rcgu.o)
                0xffff800040238c1c                <u32 as core::num::bignum::FullOps>::full_div_rem
 .text._ZN50_$LT$u64$u20$as$u20$core..num..bignum..FullOps$GT$12full_div_rem17h3b20065fc07bfd16E
                0xffff800040238c50       0x44 bin/obj/rslib.a(core-dca77d77b03929cc.core.bbd04c23a4fa3c72-cgu.0.rcgu.o)
                0xffff800040238c50                <u64 as core::num::bignum::FullOps>::full_div_rem
 .text._ZN52_$LT$$BP$const$u20$T$u20$as$u20$core..fmt..Debug$GT$3fmt17h6c45bfcf2db47a5fE
                0xffff800040238c94       0xbc bin/obj/rslib.a(core-dca77d77b03929cc.core.bbd04c23a4fa3c72-cgu.0.rcgu.o)
 .text._ZN53_$LT$core..fmt..Error$u20$as$u20$core..fmt..Debug$GT$3fmt17h68559d87ab5eaa04E
                0xffff800040238d50       0x1c bin/obj/rslib.a(core-dca77d77b03929cc.core.bbd04c23a4fa3c72-cgu.0.rcgu.o)
 .text._ZN53_$LT$core..wtf8..Wtf8$u20$as$u20$core..fmt..Debug$GT$3fmt17h71e02bcd888d2eb3E
                0xffff800040238d6c      0x230 bin/obj/rslib.a(core-dca77d77b03929cc.core.bbd04c23a4fa3c72-cgu.0.rcgu.o)
                0xffff800040238d6c                <core::wtf8::Wtf8 as core::fmt::Debug>::fmt
 .text._ZN53_$LT$core..wtf8..Wtf8$u20$as$u20$core..fmt..Debug$GT$3fmt17write_str_escaped17hedd172e6da0e5097E
                0xffff800040238f9c      0x1b4 bin/obj/rslib.a(core-dca77d77b03929cc.core.bbd04c23a4fa3c72-cgu.0.rcgu.o)
 .text._ZN54_$LT$core..any..TypeId$u20$as$u20$core..fmt..Debug$GT$3fmt17he43d19f293b8f634E
                0xffff800040239150       0x64 bin/obj/rslib.a(core-dca77d77b03929cc.core.bbd04c23a4fa3c72-cgu.0.rcgu.o)
                0xffff800040239150                <core::any::TypeId as core::fmt::Debug>::fmt
 .text._ZN54_$LT$core..ffi..c_void$u20$as$u20$core..fmt..Debug$GT$3fmt17h4cdeb87bbd179e76E
                0xffff8000402391b4       0x1c bin/obj/rslib.a(core-dca77d77b03929cc.core.bbd04c23a4fa3c72-cgu.0.rcgu.o)
                0xffff8000402391b4                <core::ffi::c_void as core::fmt::Debug>::fmt
 .text._ZN55_$LT$core..fmt..Error$u20$as$u20$core..fmt..Display$GT$3fmt17h6260d5a354758c55E
                0xffff8000402391d0       0x14 bin/obj/rslib.a(core-dca77d77b03929cc.core.bbd04c23a4fa3c72-cgu.0.rcgu.o)
                0xffff8000402391d0                <core::fmt::Error as core::fmt::Display>::fmt
 .text._ZN55_$LT$core..wtf8..Wtf8$u20$as$u20$core..fmt..Display$GT$3fmt17h7a2e0b9ee5a93650E
                0xffff8000402391e4      0x1ec bin/obj/rslib.a(core-dca77d77b03929cc.core.bbd04c23a4fa3c72-cgu.0.rcgu.o)
                0xffff8000402391e4                <core::wtf8::Wtf8 as core::fmt::Display>::fmt
 .text._ZN56_$LT$core..bstr..ByteStr$u20$as$u20$core..fmt..Debug$GT$3fmt17h2c81447f1ba74e93E
                0xffff8000402393d0      0x294 bin/obj/rslib.a(core-dca77d77b03929cc.core.bbd04c23a4fa3c72-cgu.0.rcgu.o)
                0xffff8000402393d0                <core::bstr::ByteStr as core::fmt::Debug>::fmt
 .text._ZN57_$LT$core..error..Request$u20$as$u20$core..fmt..Debug$GT$3fmt17h51c6e509ed9dc072E
                0xffff800040239664       0x60 bin/obj/rslib.a(core-dca77d77b03929cc.core.bbd04c23a4fa3c72-cgu.0.rcgu.o)
                0xffff800040239664                <core::error::Request as core::fmt::Debug>::fmt
 .text._ZN57_$LT$core..fmt..Arguments$u20$as$u20$core..fmt..Debug$GT$3fmt17hcef4054051e616efE
                0xffff8000402396c4       0x10 bin/obj/rslib.a(core-dca77d77b03929cc.core.bbd04c23a4fa3c72-cgu.0.rcgu.o)
                0xffff8000402396c4                <core::fmt::Arguments as core::fmt::Debug>::fmt
 .text._ZN57_$LT$core..fmt..Formatter$u20$as$u20$core..fmt..Write$GT$10write_char17hddeff23d89f7e0c3E
                0xffff8000402396d4        0xc bin/obj/rslib.a(core-dca77d77b03929cc.core.bbd04c23a4fa3c72-cgu.0.rcgu.o)
                0xffff8000402396d4                <core::fmt::Formatter as core::fmt::Write>::write_char
 .text._ZN57_$LT$core..time..Duration$u20$as$u20$core..fmt..Debug$GT$3fmt11fmt_decimal17hf41bc061615a5d46E
                0xffff8000402396e0      0x56c bin/obj/rslib.a(core-dca77d77b03929cc.core.bbd04c23a4fa3c72-cgu.0.rcgu.o)
 .text._ZN57_$LT$core..time..Duration$u20$as$u20$core..fmt..Debug$GT$3fmt11fmt_decimal28_$u7b$$u7b$closure$u7d$$u7d$17hd519c97862f3e360E
                0xffff800040239c4c      0x204 bin/obj/rslib.a(core-dca77d77b03929cc.core.bbd04c23a4fa3c72-cgu.0.rcgu.o)
 .text._ZN57_$LT$core..time..Duration$u20$as$u20$core..fmt..Debug$GT$3fmt17he7a903dd33a578fbE
                0xffff800040239e50       0xe4 bin/obj/rslib.a(core-dca77d77b03929cc.core.bbd04c23a4fa3c72-cgu.0.rcgu.o)
                0xffff800040239e50                <core::time::Duration as core::fmt::Debug>::fmt
 .text._ZN58_$LT$core..bstr..ByteStr$u20$as$u20$core..fmt..Display$GT$3fmt17hc5846afe4b534330E
                0xffff800040239f34      0x514 bin/obj/rslib.a(core-dca77d77b03929cc.core.bbd04c23a4fa3c72-cgu.0.rcgu.o)
                0xffff800040239f34                <core::bstr::ByteStr as core::fmt::Display>::fmt
 .text._ZN59_$LT$core..ffi..c_str..CStr$u20$as$u20$core..fmt..Debug$GT$3fmt17h6894032a3d232673E
                0xffff80004023a448        0x8 bin/obj/rslib.a(core-dca77d77b03929cc.core.bbd04c23a4fa3c72-cgu.0.rcgu.o)
                0xffff80004023a448                <core::ffi::c_str::CStr as core::fmt::Debug>::fmt
 .text._ZN59_$LT$core..fmt..Arguments$u20$as$u20$core..fmt..Display$GT$3fmt17ha71d21cd4f326068E
                0xffff80004023a450       0x10 bin/obj/rslib.a(core-dca77d77b03929cc.core.bbd04c23a4fa3c72-cgu.0.rcgu.o)
                0xffff80004023a450                <core::fmt::Arguments as core::fmt::Display>::fmt
 .text._ZN59_$LT$core..str..iter..Chars$u20$as$u20$core..fmt..Debug$GT$3fmt17h5ee04521b8945abeE
                0xffff80004023a460      0x600 bin/obj/rslib.a(core-dca77d77b03929cc.core.bbd04c23a4fa3c72-cgu.0.rcgu.o)
                0xffff80004023a460                <core::str::iter::Chars as core::fmt::Debug>::fmt
 .text._ZN59_$LT$core..wtf8..EncodeWide$u20$as$u20$core..fmt..Debug$GT$3fmt17hb508e91632a50082E
                0xffff80004023aa60      0x678 bin/obj/rslib.a(core-dca77d77b03929cc.core.bbd04c23a4fa3c72-cgu.0.rcgu.o)
                0xffff80004023aa60                <core::wtf8::EncodeWide as core::fmt::Debug>::fmt
 .text._ZN59_$LT$f32$u20$as$u20$core..num..dec2flt..float..RawFloat$GT$15pow10_fast_path17h123f0cbd2cfb5314E
                0xffff80004023b0d8       0x14 bin/obj/rslib.a(core-dca77d77b03929cc.core.bbd04c23a4fa3c72-cgu.0.rcgu.o)
                0xffff80004023b0d8                <f32 as core::num::dec2flt::float::RawFloat>::pow10_fast_path
 .text._ZN59_$LT$f64$u20$as$u20$core..num..dec2flt..float..RawFloat$GT$15pow10_fast_path17he5117d81e71ad8f5E
                0xffff80004023b0ec       0x14 bin/obj/rslib.a(core-dca77d77b03929cc.core.bbd04c23a4fa3c72-cgu.0.rcgu.o)
                0xffff80004023b0ec                <f64 as core::num::dec2flt::float::RawFloat>::pow10_fast_path
 .text._ZN60_$LT$core..str..lossy..Debug$u20$as$u20$core..fmt..Debug$GT$3fmt17h4c1e1ab64240d87fE
                0xffff80004023b100      0x3a0 bin/obj/rslib.a(core-dca77d77b03929cc.core.bbd04c23a4fa3c72-cgu.0.rcgu.o)
                0xffff80004023b100                <core::str::lossy::Debug as core::fmt::Debug>::fmt
 .text._ZN60_$LT$core..task..wake..Waker$u20$as$u20$core..fmt..Debug$GT$3fmt17h2f1fe465206ade58E
                0xffff80004023b4a0       0xe8 bin/obj/rslib.a(core-dca77d77b03929cc.core.bbd04c23a4fa3c72-cgu.0.rcgu.o)
                0xffff80004023b4a0                <core::task::wake::Waker as core::fmt::Debug>::fmt
 .text._ZN62_$LT$core..alloc..AllocError$u20$as$u20$core..fmt..Display$GT$3fmt17hcf25f3758ba6c247E
                0xffff80004023b588       0x1c bin/obj/rslib.a(core-dca77d77b03929cc.core.bbd04c23a4fa3c72-cgu.0.rcgu.o)
                0xffff80004023b588                <core::alloc::AllocError as core::fmt::Display>::fmt
 .text._ZN62_$LT$core..cell..BorrowError$u20$as$u20$core..fmt..Display$GT$3fmt17h3efd4fe28162030bE
                0xffff80004023b5a4       0x14 bin/obj/rslib.a(core-dca77d77b03929cc.core.bbd04c23a4fa3c72-cgu.0.rcgu.o)
                0xffff80004023b5a4                <core::cell::BorrowError as core::fmt::Display>::fmt
 .text._ZN62_$LT$core..char..EscapeDebug$u20$as$u20$core..fmt..Display$GT$3fmt17h6b5028a157dfb7a2E
                0xffff80004023b5b8       0x38 bin/obj/rslib.a(core-dca77d77b03929cc.core.bbd04c23a4fa3c72-cgu.0.rcgu.o)
 .text._ZN62_$LT$core..num..bignum..Big32x40$u20$as$u20$core..cmp..Ord$GT$3cmp17h3909bdc1dfd4b2acE
                0xffff80004023b5f0       0x74 bin/obj/rslib.a(core-dca77d77b03929cc.core.bbd04c23a4fa3c72-cgu.0.rcgu.o)
                0xffff80004023b5f0                <core::num::bignum::Big32x40 as core::cmp::Ord>::cmp
 .text._ZN62_$LT$core..task..wake..Context$u20$as$u20$core..fmt..Debug$GT$3fmt17h328e7498f333fb0bE
                0xffff80004023b664       0xc4 bin/obj/rslib.a(core-dca77d77b03929cc.core.bbd04c23a4fa3c72-cgu.0.rcgu.o)
                0xffff80004023b664                <core::task::wake::Context as core::fmt::Debug>::fmt
 .text._ZN63_$LT$core..ascii..EscapeDefault$u20$as$u20$core..fmt..Debug$GT$3fmt17h31cafbff232d5b15E
                0xffff80004023b728       0x60 bin/obj/rslib.a(core-dca77d77b03929cc.core.bbd04c23a4fa3c72-cgu.0.rcgu.o)
                0xffff80004023b728                <core::ascii::EscapeDefault as core::fmt::Debug>::fmt
 .text._ZN63_$LT$core..net..ip_addr..IpAddr$u20$as$u20$core..fmt..Debug$GT$3fmt17h6b56b236e4dfa0efE
                0xffff80004023b788       0x14 bin/obj/rslib.a(core-dca77d77b03929cc.core.bbd04c23a4fa3c72-cgu.0.rcgu.o)
                0xffff80004023b788                <core::net::ip_addr::IpAddr as core::fmt::Debug>::fmt
 .text._ZN63_$LT$core..wtf8..Wtf8CodePoints$u20$as$u20$core..fmt..Debug$GT$3fmt17hd4d19c881e1fb115E
                0xffff80004023b79c      0x138 bin/obj/rslib.a(core-dca77d77b03929cc.core.bbd04c23a4fa3c72-cgu.0.rcgu.o)
                0xffff80004023b79c                <core::wtf8::Wtf8CodePoints as core::fmt::Debug>::fmt
 .text._ZN64_$LT$core..char..EscapeUnicode$u20$as$u20$core..fmt..Display$GT$3fmt17h87f4e997a4cab8a5E
                0xffff80004023b8d4       0x20 bin/obj/rslib.a(core-dca77d77b03929cc.core.bbd04c23a4fa3c72-cgu.0.rcgu.o)
                0xffff80004023b8d4                <core::char::EscapeUnicode as core::fmt::Display>::fmt
 .text._ZN64_$LT$core..num..bignum..Big32x40$u20$as$u20$core..fmt..Debug$GT$3fmt17haf6d0b662865953cE
                0xffff80004023b8f4      0x14c bin/obj/rslib.a(core-dca77d77b03929cc.core.bbd04c23a4fa3c72-cgu.0.rcgu.o)
                0xffff80004023b8f4                <core::num::bignum::Big32x40 as core::fmt::Debug>::fmt
 .text._ZN64_$LT$core..ops..range..RangeFull$u20$as$u20$core..fmt..Debug$GT$3fmt17h8c4ecbe9daf12a9bE
                0xffff80004023ba40       0x1c bin/obj/rslib.a(core-dca77d77b03929cc.core.bbd04c23a4fa3c72-cgu.0.rcgu.o)
                0xffff80004023ba40                <core::ops::range::RangeFull as core::fmt::Debug>::fmt
 .text._ZN65_$LT$core..ascii..EscapeDefault$u20$as$u20$core..fmt..Display$GT$3fmt17h551680a19ff913f4E
                0xffff80004023ba5c       0x20 bin/obj/rslib.a(core-dca77d77b03929cc.core.bbd04c23a4fa3c72-cgu.0.rcgu.o)
                0xffff80004023ba5c                <core::ascii::EscapeDefault as core::fmt::Display>::fmt
 .text._ZN65_$LT$core..cell..BorrowMutError$u20$as$u20$core..fmt..Display$GT$3fmt17hf6d8e93b49212e07E
                0xffff80004023ba7c       0x14 bin/obj/rslib.a(core-dca77d77b03929cc.core.bbd04c23a4fa3c72-cgu.0.rcgu.o)
                0xffff80004023ba7c                <core::cell::BorrowMutError as core::fmt::Display>::fmt
 .text._ZN65_$LT$core..net..ip_addr..IpAddr$u20$as$u20$core..fmt..Display$GT$3fmt17ha7b247bcd662990dE
                0xffff80004023ba90       0x14 bin/obj/rslib.a(core-dca77d77b03929cc.core.bbd04c23a4fa3c72-cgu.0.rcgu.o)
                0xffff80004023ba90                <core::net::ip_addr::IpAddr as core::fmt::Display>::fmt
 .text._ZN65_$LT$core..net..ip_addr..Ipv4Addr$u20$as$u20$core..fmt..Debug$GT$3fmt17h378b53e522059058E
                0xffff80004023baa4        0x4 bin/obj/rslib.a(core-dca77d77b03929cc.core.bbd04c23a4fa3c72-cgu.0.rcgu.o)
                0xffff80004023baa4                <core::net::ip_addr::Ipv4Addr as core::fmt::Debug>::fmt
 .text._ZN65_$LT$core..net..ip_addr..Ipv6Addr$u20$as$u20$core..fmt..Debug$GT$3fmt17h3d3cc24cecd7050fE
                0xffff80004023baa8        0x4 bin/obj/rslib.a(core-dca77d77b03929cc.core.bbd04c23a4fa3c72-cgu.0.rcgu.o)
                0xffff80004023baa8                <core::net::ip_addr::Ipv6Addr as core::fmt::Debug>::fmt
 .text._ZN65_$LT$core..str..iter..EncodeUtf16$u20$as$u20$core..fmt..Debug$GT$3fmt17h73ce07a9ab86327aE
                0xffff80004023baac       0x60 bin/obj/rslib.a(core-dca77d77b03929cc.core.bbd04c23a4fa3c72-cgu.0.rcgu.o)
                0xffff80004023baac                <core::str::iter::EncodeUtf16 as core::fmt::Debug>::fmt
 .text._ZN65_$LT$core..str..lossy..Utf8Chunks$u20$as$u20$core..fmt..Debug$GT$3fmt17hed9cc40614c50367E
                0xffff80004023bb0c       0xcc bin/obj/rslib.a(core-dca77d77b03929cc.core.bbd04c23a4fa3c72-cgu.0.rcgu.o)
                0xffff80004023bb0c                <core::str::lossy::Utf8Chunks as core::fmt::Debug>::fmt
 .text._ZN65_$LT$core..sync..atomic..AtomicI8$u20$as$u20$core..fmt..Debug$GT$3fmt17h4ad51bd43f2dc837E
                0xffff80004023bbd8        0x8 bin/obj/rslib.a(core-dca77d77b03929cc.core.bbd04c23a4fa3c72-cgu.0.rcgu.o)
                0xffff80004023bbd8                <core::sync::atomic::AtomicI8 as core::fmt::Debug>::fmt
 .text._ZN65_$LT$core..sync..atomic..AtomicU8$u20$as$u20$core..fmt..Debug$GT$3fmt17h3c62c8db7b48e2b3E
                0xffff80004023bbe0        0x8 bin/obj/rslib.a(core-dca77d77b03929cc.core.bbd04c23a4fa3c72-cgu.0.rcgu.o)
                0xffff80004023bbe0                <core::sync::atomic::AtomicU8 as core::fmt::Debug>::fmt
 .text._ZN65_$LT$core..task..wake..LocalWaker$u20$as$u20$core..fmt..Debug$GT$3fmt17h9fe6bd569bb5eb31E
                0xffff80004023bbe8       0xe8 bin/obj/rslib.a(core-dca77d77b03929cc.core.bbd04c23a4fa3c72-cgu.0.rcgu.o)
                0xffff80004023bbe8                <core::task::wake::LocalWaker as core::fmt::Debug>::fmt
 .text._ZN66_$LT$core..str..error..Utf8Error$u20$as$u20$core..fmt..Display$GT$3fmt17h970d9ad3cfc6cf1dE
                0xffff80004023bcd0       0x8c bin/obj/rslib.a(core-dca77d77b03929cc.core.bbd04c23a4fa3c72-cgu.0.rcgu.o)
                0xffff80004023bcd0                <core::str::error::Utf8Error as core::fmt::Display>::fmt
 .text._ZN66_$LT$core..sync..atomic..AtomicI16$u20$as$u20$core..fmt..Debug$GT$3fmt17hcfb8cf3bdacb8609E
                0xffff80004023bd5c        0x8 bin/obj/rslib.a(core-dca77d77b03929cc.core.bbd04c23a4fa3c72-cgu.0.rcgu.o)
                0xffff80004023bd5c                <core::sync::atomic::AtomicI16 as core::fmt::Debug>::fmt
 .text._ZN66_$LT$core..sync..atomic..AtomicI32$u20$as$u20$core..fmt..Debug$GT$3fmt17h6721b3cf0505a49fE
                0xffff80004023bd64       0xd4 bin/obj/rslib.a(core-dca77d77b03929cc.core.bbd04c23a4fa3c72-cgu.0.rcgu.o)
                0xffff80004023bd64                <core::sync::atomic::AtomicI32 as core::fmt::Debug>::fmt
 .text._ZN66_$LT$core..sync..atomic..AtomicI64$u20$as$u20$core..fmt..Debug$GT$3fmt17hd05e910d2a89e266E
                0xffff80004023be38      0x208 bin/obj/rslib.a(core-dca77d77b03929cc.core.bbd04c23a4fa3c72-cgu.0.rcgu.o)
                0xffff80004023be38                <core::sync::atomic::AtomicIsize as core::fmt::Debug>::fmt
                0xffff80004023be38                <core::sync::atomic::AtomicI64 as core::fmt::Debug>::fmt
 .text._ZN66_$LT$core..sync..atomic..AtomicU16$u20$as$u20$core..fmt..Debug$GT$3fmt17hcb239857b46a8d3aE
                0xffff80004023c040        0x8 bin/obj/rslib.a(core-dca77d77b03929cc.core.bbd04c23a4fa3c72-cgu.0.rcgu.o)
                0xffff80004023c040                <core::sync::atomic::AtomicU16 as core::fmt::Debug>::fmt
 .text._ZN66_$LT$core..sync..atomic..AtomicU32$u20$as$u20$core..fmt..Debug$GT$3fmt17hd793ad2cacb08615E
                0xffff80004023c048       0x28 bin/obj/rslib.a(core-dca77d77b03929cc.core.bbd04c23a4fa3c72-cgu.0.rcgu.o)
                0xffff80004023c048                <core::sync::atomic::AtomicU32 as core::fmt::Debug>::fmt
 .text._ZN66_$LT$core..sync..atomic..AtomicU64$u20$as$u20$core..fmt..Debug$GT$3fmt17h9900f5c08c07cfbcE
                0xffff80004023c070        0x8 bin/obj/rslib.a(core-dca77d77b03929cc.core.bbd04c23a4fa3c72-cgu.0.rcgu.o)
                0xffff80004023c070                <core::sync::atomic::AtomicU64 as core::fmt::Debug>::fmt
 .text._ZN67_$LT$core..char..TryFromCharError$u20$as$u20$core..fmt..Display$GT$3fmt17h95210c1b072744e0E
                0xffff80004023c078       0x14 bin/obj/rslib.a(core-dca77d77b03929cc.core.bbd04c23a4fa3c72-cgu.0.rcgu.o)
                0xffff80004023c078                <core::char::TryFromCharError as core::fmt::Display>::fmt
 .text._ZN67_$LT$core..net..ip_addr..Ipv4Addr$u20$as$u20$core..fmt..Display$GT$3fmt17h82091644663e0202E
                0xffff80004023c08c      0x170 bin/obj/rslib.a(core-dca77d77b03929cc.core.bbd04c23a4fa3c72-cgu.0.rcgu.o)
                0xffff80004023c08c                <core::net::ip_addr::Ipv4Addr as core::fmt::Display>::fmt
 .text._ZN67_$LT$core..net..ip_addr..Ipv6Addr$u20$as$u20$core..fmt..Display$GT$3fmt12fmt_subslice17h99c318a22db7a965E
                0xffff80004023c1fc      0x10c bin/obj/rslib.a(core-dca77d77b03929cc.core.bbd04c23a4fa3c72-cgu.0.rcgu.o)
 .text._ZN67_$LT$core..net..ip_addr..Ipv6Addr$u20$as$u20$core..fmt..Display$GT$3fmt17h6773c859e6ab7ca3E
                0xffff80004023c308      0x704 bin/obj/rslib.a(core-dca77d77b03929cc.core.bbd04c23a4fa3c72-cgu.0.rcgu.o)
                0xffff80004023c308                <core::net::ip_addr::Ipv6Addr as core::fmt::Display>::fmt
 .text._ZN67_$LT$core..num..bignum..tests..Big8x3$u20$as$u20$core..cmp..Ord$GT$3cmp17h9241baa3af277a79E
                0xffff80004023ca0c       0xb4 bin/obj/rslib.a(core-dca77d77b03929cc.core.bbd04c23a4fa3c72-cgu.0.rcgu.o)
                0xffff80004023ca0c                <core::num::bignum::tests::Big8x3 as core::cmp::Ord>::cmp
 .text._ZN67_$LT$core..str..iter..EscapeDebug$u20$as$u20$core..fmt..Display$GT$3fmt17h6c83f428595a1326E
                0xffff80004023cac0      0x7f4 bin/obj/rslib.a(core-dca77d77b03929cc.core.bbd04c23a4fa3c72-cgu.0.rcgu.o)
                0xffff80004023cac0                <core::str::iter::EscapeDebug as core::fmt::Display>::fmt
 .text._ZN67_$LT$core..sync..atomic..AtomicBool$u20$as$u20$core..fmt..Debug$GT$3fmt17hdc7dd9a7f46e31ddE
                0xffff80004023d2b4       0x2c bin/obj/rslib.a(core-dca77d77b03929cc.core.bbd04c23a4fa3c72-cgu.0.rcgu.o)
                0xffff80004023d2b4                <core::sync::atomic::AtomicBool as core::fmt::Debug>::fmt
 .text._ZN67_$LT$core..sync..atomic..AtomicI128$u20$as$u20$core..fmt..Debug$GT$3fmt17h8c56552821b90023E
                0xffff80004023d2e0       0x18 bin/obj/rslib.a(core-dca77d77b03929cc.core.bbd04c23a4fa3c72-cgu.0.rcgu.o)
                0xffff80004023d2e0                <core::sync::atomic::AtomicI128 as core::fmt::Debug>::fmt
 .text._ZN67_$LT$core..sync..atomic..AtomicU128$u20$as$u20$core..fmt..Debug$GT$3fmt17h07217938942e974cE
                0xffff80004023d2f8       0x18 bin/obj/rslib.a(core-dca77d77b03929cc.core.bbd04c23a4fa3c72-cgu.0.rcgu.o)
                0xffff80004023d2f8                <core::sync::atomic::AtomicU128 as core::fmt::Debug>::fmt
 .text._ZN68_$LT$core..fmt..builders..PadAdapter$u20$as$u20$core..fmt..Write$GT$10write_char17h36c45c8c66684436E
                0xffff80004023d310       0x80 bin/obj/rslib.a(core-dca77d77b03929cc.core.bbd04c23a4fa3c72-cgu.0.rcgu.o)
                0xffff80004023d310                <core::fmt::builders::PadAdapter as core::fmt::Write>::write_char
 .text._ZN68_$LT$core..fmt..builders..PadAdapter$u20$as$u20$core..fmt..Write$GT$9write_str17hfbeb4381d38e3ba6E
                0xffff80004023d390      0x248 bin/obj/rslib.a(core-dca77d77b03929cc.core.bbd04c23a4fa3c72-cgu.0.rcgu.o)
                0xffff80004023d390                <core::fmt::builders::PadAdapter as core::fmt::Write>::write_str
 .text._ZN68_$LT$core..panic..location..Location$u20$as$u20$core..fmt..Debug$GT$3fmt17hacdb3b095e0cc913E
                0xffff80004023d5d8      0x10c bin/obj/rslib.a(core-dca77d77b03929cc.core.bbd04c23a4fa3c72-cgu.0.rcgu.o)
                0xffff80004023d5d8                <core::panic::location::Location as core::fmt::Debug>::fmt
 .text._ZN68_$LT$core..ptr..alignment..Alignment$u20$as$u20$core..fmt..Debug$GT$3fmt17h49a1850a7051aae7E
                0xffff80004023d6e4       0x78 bin/obj/rslib.a(core-dca77d77b03929cc.core.bbd04c23a4fa3c72-cgu.0.rcgu.o)
                0xffff80004023d6e4                <core::ptr::alignment::Alignment as core::fmt::Debug>::fmt
 .text._ZN68_$LT$core..slice..ascii..EscapeAscii$u20$as$u20$core..fmt..Debug$GT$3fmt17h2e25c3ee0c15ad8aE
                0xffff80004023d75c       0x60 bin/obj/rslib.a(core-dca77d77b03929cc.core.bbd04c23a4fa3c72-cgu.0.rcgu.o)
                0xffff80004023d75c                <core::slice::ascii::EscapeAscii as core::fmt::Debug>::fmt
 .text._ZN68_$LT$core..sync..atomic..AtomicUsize$u20$as$u20$core..fmt..Debug$GT$3fmt17hb3593d06b5039233E
                0xffff80004023d7bc       0x28 bin/obj/rslib.a(core-dca77d77b03929cc.core.bbd04c23a4fa3c72-cgu.0.rcgu.o)
                0xffff80004023d7bc                <core::sync::atomic::AtomicUsize as core::fmt::Debug>::fmt
 .text._ZN69_$LT$core..ffi..c_str..CStr$u20$as$u20$core..clone..CloneToUninit$GT$15clone_to_uninit17h3f90e2444fbef6feE
                0xffff80004023d7e4       0x14 bin/obj/rslib.a(core-dca77d77b03929cc.core.bbd04c23a4fa3c72-cgu.0.rcgu.o)
                0xffff80004023d7e4                <core::ffi::c_str::CStr as core::clone::CloneToUninit>::clone_to_uninit
 .text._ZN69_$LT$core..num..bignum..Big32x40$u20$as$u20$core..cmp..PartialOrd$GT$11partial_cmp17h70ad24837ffdb984E
                0xffff80004023d7f8       0x74 bin/obj/rslib.a(core-dca77d77b03929cc.core.bbd04c23a4fa3c72-cgu.0.rcgu.o)
                0xffff80004023d7f8                <core::num::bignum::Big32x40 as core::cmp::PartialOrd>::partial_cmp
 .text._ZN69_$LT$core..num..bignum..tests..Big8x3$u20$as$u20$core..fmt..Debug$GT$3fmt17hb8f50a6c2f4121d6E
                0xffff80004023d86c      0x13c bin/obj/rslib.a(core-dca77d77b03929cc.core.bbd04c23a4fa3c72-cgu.0.rcgu.o)
                0xffff80004023d86c                <core::num::bignum::tests::Big8x3 as core::fmt::Debug>::fmt
 .text._ZN69_$LT$core..str..iter..EscapeDefault$u20$as$u20$core..fmt..Display$GT$3fmt17hef57894ac3c37e16E
                0xffff80004023d9a8      0x4bc bin/obj/rslib.a(core-dca77d77b03929cc.core.bbd04c23a4fa3c72-cgu.0.rcgu.o)
                0xffff80004023d9a8                <core::str::iter::EscapeDefault as core::fmt::Display>::fmt
 .text._ZN69_$LT$core..str..iter..EscapeUnicode$u20$as$u20$core..fmt..Display$GT$3fmt17hb2e747dce047c603E
                0xffff80004023de64      0x358 bin/obj/rslib.a(core-dca77d77b03929cc.core.bbd04c23a4fa3c72-cgu.0.rcgu.o)
                0xffff80004023de64                <core::str::iter::EscapeUnicode as core::fmt::Display>::fmt
 .text._ZN70_$LT$core..num..error..ParseIntError$u20$as$u20$core..fmt..Display$GT$3fmt17hc33f567679727834E
                0xffff80004023e1bc       0x28 bin/obj/rslib.a(core-dca77d77b03929cc.core.bbd04c23a4fa3c72-cgu.0.rcgu.o)
                0xffff80004023e1bc                <core::num::error::ParseIntError as core::fmt::Display>::fmt
 .text._ZN70_$LT$core..slice..ascii..EscapeAscii$u20$as$u20$core..fmt..Display$GT$3fmt17h41e76c7378709e1bE
                0xffff80004023e1e4      0x23c bin/obj/rslib.a(core-dca77d77b03929cc.core.bbd04c23a4fa3c72-cgu.0.rcgu.o)
                0xffff80004023e1e4                <core::slice::ascii::EscapeAscii as core::fmt::Display>::fmt
 .text._ZN71_$LT$core..alloc..layout..LayoutError$u20$as$u20$core..fmt..Display$GT$3fmt17he2fc80f35b536f22E
                0xffff80004023e420       0x1c bin/obj/rslib.a(core-dca77d77b03929cc.core.bbd04c23a4fa3c72-cgu.0.rcgu.o)
                0xffff80004023e420                <core::alloc::layout::LayoutError as core::fmt::Display>::fmt
 .text._ZN71_$LT$core..ascii..ascii_char..AsciiChar$u20$as$u20$core..fmt..Debug$GT$3fmt17h49ea40eab09fc2a9E
                0xffff80004023e43c      0x160 bin/obj/rslib.a(core-dca77d77b03929cc.core.bbd04c23a4fa3c72-cgu.0.rcgu.o)
                0xffff80004023e43c                <core::ascii::ascii_char::AsciiChar as core::fmt::Debug>::fmt
 .text._ZN71_$LT$core..net..socket_addr..SocketAddr$u20$as$u20$core..fmt..Debug$GT$3fmt17h14882740df2189f8E
                0xffff80004023e59c       0x1c bin/obj/rslib.a(core-dca77d77b03929cc.core.bbd04c23a4fa3c72-cgu.0.rcgu.o)
                0xffff80004023e59c                <core::net::socket_addr::SocketAddr as core::fmt::Debug>::fmt
 .text._ZN71_$LT$core..ops..range..Range$LT$Idx$GT$$u20$as$u20$core..fmt..Debug$GT$3fmt17hf069d8b6b43943f3E
                0xffff80004023e5b8       0x5c bin/obj/rslib.a(core-dca77d77b03929cc.core.bbd04c23a4fa3c72-cgu.0.rcgu.o)
 .text._ZN71_$LT$core..slice..GetDisjointMutError$u20$as$u20$core..fmt..Display$GT$3fmt17hffd18380c372a370E
                0xffff80004023e614       0x30 bin/obj/rslib.a(core-dca77d77b03929cc.core.bbd04c23a4fa3c72-cgu.0.rcgu.o)
                0xffff80004023e614                <core::slice::GetDisjointMutError as core::fmt::Display>::fmt
 .text._ZN71_$LT$core..str..error..ParseBoolError$u20$as$u20$core..fmt..Display$GT$3fmt17h74ffba207b5005d2E
                0xffff80004023e644       0x14 bin/obj/rslib.a(core-dca77d77b03929cc.core.bbd04c23a4fa3c72-cgu.0.rcgu.o)
                0xffff80004023e644                <core::str::error::ParseBoolError as core::fmt::Display>::fmt
 .text._ZN72_$LT$core..io..borrowed_buf..BorrowedBuf$u20$as$u20$core..fmt..Debug$GT$3fmt17h801203b2a82c8cc0E
                0xffff80004023e658      0x108 bin/obj/rslib.a(core-dca77d77b03929cc.core.bbd04c23a4fa3c72-cgu.0.rcgu.o)
                0xffff80004023e658                <core::io::borrowed_buf::BorrowedBuf as core::fmt::Debug>::fmt
 .text._ZN72_$LT$core..net..parser..AddrParseError$u20$as$u20$core..fmt..Display$GT$3fmt17h2ca00bd4bb12a433E
                0xffff80004023e760       0x28 bin/obj/rslib.a(core-dca77d77b03929cc.core.bbd04c23a4fa3c72-cgu.0.rcgu.o)
                0xffff80004023e760                <core::net::parser::AddrParseError as core::fmt::Display>::fmt
 .text._ZN72_$LT$core..num..error..TryFromIntError$u20$as$u20$core..fmt..Display$GT$3fmt17h8f056e1b6c72b655E
                0xffff80004023e788       0x14 bin/obj/rslib.a(core-dca77d77b03929cc.core.bbd04c23a4fa3c72-cgu.0.rcgu.o)
                0xffff80004023e788                <core::num::error::TryFromIntError as core::fmt::Display>::fmt
 .text._ZN72_$LT$core..num..niche_types..Nanoseconds$u20$as$u20$core..fmt..Debug$GT$3fmt17hd2c24a1aedf46acfE
                0xffff80004023e79c       0x28 bin/obj/rslib.a(core-dca77d77b03929cc.core.bbd04c23a4fa3c72-cgu.0.rcgu.o)
                0xffff80004023e79c                <core::num::niche_types::Nanoseconds as core::fmt::Debug>::fmt
 .text._ZN72_$LT$core..time..TryFromFloatSecsError$u20$as$u20$core..fmt..Display$GT$3fmt17h0338018b6c17225dE
                0xffff80004023e7c4       0x30 bin/obj/rslib.a(core-dca77d77b03929cc.core.bbd04c23a4fa3c72-cgu.0.rcgu.o)
                0xffff80004023e7c4                <core::time::TryFromFloatSecsError as core::fmt::Display>::fmt
 .text._ZN73_$LT$core..ascii..ascii_char..AsciiChar$u20$as$u20$core..fmt..Display$GT$3fmt17h491fdbe8541cb247E
                0xffff80004023e7f4       0x14 bin/obj/rslib.a(core-dca77d77b03929cc.core.bbd04c23a4fa3c72-cgu.0.rcgu.o)
                0xffff80004023e7f4                <core::ascii::ascii_char::AsciiChar as core::fmt::Display>::fmt
 .text._ZN73_$LT$core..net..socket_addr..SocketAddr$u20$as$u20$core..fmt..Display$GT$3fmt17he5ec9c72bc3b5f6aE
                0xffff80004023e808       0x1c bin/obj/rslib.a(core-dca77d77b03929cc.core.bbd04c23a4fa3c72-cgu.0.rcgu.o)
                0xffff80004023e808                <core::net::socket_addr::SocketAddr as core::fmt::Display>::fmt
 .text._ZN73_$LT$core..net..socket_addr..SocketAddrV4$u20$as$u20$core..fmt..Debug$GT$3fmt17h03eb2a46451a93b3E
                0xffff80004023e824        0x4 bin/obj/rslib.a(core-dca77d77b03929cc.core.bbd04c23a4fa3c72-cgu.0.rcgu.o)
                0xffff80004023e824                <core::net::socket_addr::SocketAddrV4 as core::fmt::Debug>::fmt
 .text._ZN73_$LT$core..net..socket_addr..SocketAddrV6$u20$as$u20$core..fmt..Debug$GT$3fmt17h39604fbfc13dd0eaE
                0xffff80004023e828        0x4 bin/obj/rslib.a(core-dca77d77b03929cc.core.bbd04c23a4fa3c72-cgu.0.rcgu.o)
                0xffff80004023e828                <core::net::socket_addr::SocketAddrV6 as core::fmt::Debug>::fmt
 .text._ZN73_$LT$core..num..nonzero..NonZero$LT$T$GT$$u20$as$u20$core..fmt..Debug$GT$3fmt17h6b8aae6058fb0d2bE
                0xffff80004023e82c       0x28 bin/obj/rslib.a(core-dca77d77b03929cc.core.bbd04c23a4fa3c72-cgu.0.rcgu.o)
 .text._ZN73_$LT$core..panic..location..Location$u20$as$u20$core..cmp..PartialOrd$GT$11partial_cmp17hac0266096a07eaffE
                0xffff80004023e854       0xa0 bin/obj/rslib.a(core-dca77d77b03929cc.core.bbd04c23a4fa3c72-cgu.0.rcgu.o)
                0xffff80004023e854                <core::panic::location::Location as core::cmp::PartialOrd>::partial_cmp
 .text._ZN73_$LT$core..panic..panic_info..PanicInfo$u20$as$u20$core..fmt..Display$GT$3fmt17h8bd55ba36d14a0feE
                0xffff80004023e8f4      0x130 bin/obj/rslib.a(core-dca77d77b03929cc.core.bbd04c23a4fa3c72-cgu.0.rcgu.o)
                0xffff80004023e8f4                <core::panic::panic_info::PanicInfo as core::fmt::Display>::fmt
 .text._ZN74_$LT$core..char..convert..ParseCharError$u20$as$u20$core..fmt..Display$GT$3fmt17hb946a568b486cb89E
                0xffff80004023ea24       0x30 bin/obj/rslib.a(core-dca77d77b03929cc.core.bbd04c23a4fa3c72-cgu.0.rcgu.o)
                0xffff80004023ea24                <core::char::convert::ParseCharError as core::fmt::Display>::fmt
 .text._ZN74_$LT$core..num..bignum..tests..Big8x3$u20$as$u20$core..cmp..PartialOrd$GT$11partial_cmp17h4e38f3c5a8491b4aE
                0xffff80004023ea54       0xb4 bin/obj/rslib.a(core-dca77d77b03929cc.core.bbd04c23a4fa3c72-cgu.0.rcgu.o)
                0xffff80004023ea54                <core::num::bignum::tests::Big8x3 as core::cmp::PartialOrd>::partial_cmp
 .text._ZN74_$LT$core..num..dec2flt..ParseFloatError$u20$as$u20$core..fmt..Display$GT$3fmt17h64d11440672d4729E
                0xffff80004023eb08       0x30 bin/obj/rslib.a(core-dca77d77b03929cc.core.bbd04c23a4fa3c72-cgu.0.rcgu.o)
                0xffff80004023eb08                <core::num::dec2flt::ParseFloatError as core::fmt::Display>::fmt
 .text._ZN74_$LT$core..num..niche_types..I32NotAllOnes$u20$as$u20$core..fmt..Debug$GT$3fmt17h143f5cb39da08cdfE
                0xffff80004023eb38       0xd4 bin/obj/rslib.a(core-dca77d77b03929cc.core.bbd04c23a4fa3c72-cgu.0.rcgu.o)
                0xffff80004023eb38                <core::num::niche_types::I32NotAllOnes as core::fmt::Debug>::fmt
 .text._ZN74_$LT$core..num..niche_types..I64NotAllOnes$u20$as$u20$core..fmt..Debug$GT$3fmt17h53b78ea6f9237360E
                0xffff80004023ec0c      0x208 bin/obj/rslib.a(core-dca77d77b03929cc.core.bbd04c23a4fa3c72-cgu.0.rcgu.o)
                0xffff80004023ec0c                <core::num::niche_types::I64NotAllOnes as core::fmt::Debug>::fmt
 .text._ZN74_$LT$core..num..niche_types..U32NotAllOnes$u20$as$u20$core..fmt..Debug$GT$3fmt17hc3935f5138ed5791E
                0xffff80004023ee14       0x28 bin/obj/rslib.a(core-dca77d77b03929cc.core.bbd04c23a4fa3c72-cgu.0.rcgu.o)
                0xffff80004023ee14                <core::num::niche_types::U32NotAllOnes as core::fmt::Debug>::fmt
 .text._ZN74_$LT$core..num..niche_types..U64NotAllOnes$u20$as$u20$core..fmt..Debug$GT$3fmt17h20a39ef454eb7d03E
                0xffff80004023ee3c        0x8 bin/obj/rslib.a(core-dca77d77b03929cc.core.bbd04c23a4fa3c72-cgu.0.rcgu.o)
                0xffff80004023ee3c                <core::num::niche_types::U64NotAllOnes as core::fmt::Debug>::fmt
 .text._ZN75_$LT$core..char..decode..DecodeUtf16Error$u20$as$u20$core..fmt..Display$GT$3fmt17hf51bb8fa56ff83bdE
                0xffff80004023ee44       0x4c bin/obj/rslib.a(core-dca77d77b03929cc.core.bbd04c23a4fa3c72-cgu.0.rcgu.o)
                0xffff80004023ee44                <core::char::decode::DecodeUtf16Error as core::fmt::Display>::fmt
 .text._ZN75_$LT$core..net..socket_addr..SocketAddrV4$u20$as$u20$core..fmt..Display$GT$3fmt17hdab5321e3438a21bE
                0xffff80004023ee90      0x150 bin/obj/rslib.a(core-dca77d77b03929cc.core.bbd04c23a4fa3c72-cgu.0.rcgu.o)
                0xffff80004023ee90                <core::net::socket_addr::SocketAddrV4 as core::fmt::Display>::fmt
 .text._ZN75_$LT$core..net..socket_addr..SocketAddrV6$u20$as$u20$core..fmt..Display$GT$3fmt17h9bf9b0d256a94595E
                0xffff80004023efe0      0x248 bin/obj/rslib.a(core-dca77d77b03929cc.core.bbd04c23a4fa3c72-cgu.0.rcgu.o)
                0xffff80004023efe0                <core::net::socket_addr::SocketAddrV6 as core::fmt::Display>::fmt
 .text._ZN75_$LT$core..num..niche_types..CodePointInner$u20$as$u20$core..fmt..Debug$GT$3fmt17h98c346724a88606cE
                0xffff80004023f228       0x28 bin/obj/rslib.a(core-dca77d77b03929cc.core.bbd04c23a4fa3c72-cgu.0.rcgu.o)
                0xffff80004023f228                <core::num::niche_types::CodePointInner as core::fmt::Debug>::fmt
 .text._ZN75_$LT$core..num..niche_types..NonZeroI8Inner$u20$as$u20$core..fmt..Debug$GT$3fmt17h64b1fdbce114f8a3E
                0xffff80004023f250        0x8 bin/obj/rslib.a(core-dca77d77b03929cc.core.bbd04c23a4fa3c72-cgu.0.rcgu.o)
                0xffff80004023f250                <core::num::niche_types::NonZeroI8Inner as core::fmt::Debug>::fmt
 .text._ZN75_$LT$core..num..niche_types..NonZeroU8Inner$u20$as$u20$core..fmt..Debug$GT$3fmt17h0505b20f2e632f64E
                0xffff80004023f258        0x8 bin/obj/rslib.a(core-dca77d77b03929cc.core.bbd04c23a4fa3c72-cgu.0.rcgu.o)
                0xffff80004023f258                <core::num::niche_types::NonZeroU8Inner as core::fmt::Debug>::fmt
 .text._ZN75_$LT$core..num..niche_types..UsizeNoHighBit$u20$as$u20$core..fmt..Debug$GT$3fmt17h6f3739917bf4731dE
                0xffff80004023f260       0x28 bin/obj/rslib.a(core-dca77d77b03929cc.core.bbd04c23a4fa3c72-cgu.0.rcgu.o)
                0xffff80004023f260                <core::num::niche_types::UsizeNoHighBit as core::fmt::Debug>::fmt
 .text._ZN76_$LT$core..char..convert..CharTryFromError$u20$as$u20$core..fmt..Display$GT$3fmt17habb0706acd6d0561E
                0xffff80004023f288       0x14 bin/obj/rslib.a(core-dca77d77b03929cc.core.bbd04c23a4fa3c72-cgu.0.rcgu.o)
                0xffff80004023f288                <core::char::convert::CharTryFromError as core::fmt::Display>::fmt
 .text._ZN76_$LT$core..mem..transmutability..Assume$u20$as$u20$core..ops..arith..Sub$GT$3sub17h07fcf1eb80c2b2d9E
                0xffff80004023f29c        0xc bin/obj/rslib.a(core-dca77d77b03929cc.core.bbd04c23a4fa3c72-cgu.0.rcgu.o)
                0xffff80004023f29c                <core::mem::transmutability::Assume as core::ops::arith::Sub>::sub
 .text._ZN76_$LT$core..net..ip_addr..Ipv4Addr$u20$as$u20$core..ops..bit..BitOrAssign$GT$12bitor_assign17hb68f0c7a641cc51fE
                0xffff80004023f2a8       0x60 bin/obj/rslib.a(core-dca77d77b03929cc.core.bbd04c23a4fa3c72-cgu.0.rcgu.o)
                0xffff80004023f2a8                <core::net::ip_addr::Ipv4Addr as core::ops::bit::BitOrAssign>::bitor_assign
 .text._ZN76_$LT$core..net..ip_addr..Ipv6Addr$u20$as$u20$core..ops..bit..BitOrAssign$GT$12bitor_assign17hdd296794f4d47cd3E
                0xffff80004023f308      0x1d0 bin/obj/rslib.a(core-dca77d77b03929cc.core.bbd04c23a4fa3c72-cgu.0.rcgu.o)
                0xffff80004023f308                <core::net::ip_addr::Ipv6Addr as core::ops::bit::BitOrAssign>::bitor_assign
 .text._ZN76_$LT$core..num..niche_types..NonZeroI16Inner$u20$as$u20$core..fmt..Debug$GT$3fmt17hf0ee77469ac4ce28E
                0xffff80004023f4d8        0x8 bin/obj/rslib.a(core-dca77d77b03929cc.core.bbd04c23a4fa3c72-cgu.0.rcgu.o)
                0xffff80004023f4d8                <core::num::niche_types::NonZeroI16Inner as core::fmt::Debug>::fmt
 .text._ZN76_$LT$core..num..niche_types..NonZeroI32Inner$u20$as$u20$core..fmt..Debug$GT$3fmt17h12c5e6a37f442a3fE
                0xffff80004023f4e0       0xd4 bin/obj/rslib.a(core-dca77d77b03929cc.core.bbd04c23a4fa3c72-cgu.0.rcgu.o)
                0xffff80004023f4e0                <core::num::niche_types::NonZeroI32Inner as core::fmt::Debug>::fmt
 .text._ZN76_$LT$core..num..niche_types..NonZeroI64Inner$u20$as$u20$core..fmt..Debug$GT$3fmt17hbe8fe22a5d5539e2E
                0xffff80004023f5b4      0x204 bin/obj/rslib.a(core-dca77d77b03929cc.core.bbd04c23a4fa3c72-cgu.0.rcgu.o)
                0xffff80004023f5b4                <core::num::niche_types::NonZeroIsizeInner as core::fmt::Debug>::fmt
                0xffff80004023f5b4                <core::num::niche_types::NonZeroI64Inner as core::fmt::Debug>::fmt
 .text._ZN76_$LT$core..num..niche_types..NonZeroU16Inner$u20$as$u20$core..fmt..Debug$GT$3fmt17hded78cd74b99af2fE
                0xffff80004023f7b8        0x8 bin/obj/rslib.a(core-dca77d77b03929cc.core.bbd04c23a4fa3c72-cgu.0.rcgu.o)
                0xffff80004023f7b8                <core::num::niche_types::NonZeroU16Inner as core::fmt::Debug>::fmt
 .text._ZN76_$LT$core..num..niche_types..NonZeroU32Inner$u20$as$u20$core..fmt..Debug$GT$3fmt17h1c40d128be1abd57E
                0xffff80004023f7c0       0x28 bin/obj/rslib.a(core-dca77d77b03929cc.core.bbd04c23a4fa3c72-cgu.0.rcgu.o)
                0xffff80004023f7c0                <core::num::niche_types::NonZeroU32Inner as core::fmt::Debug>::fmt
 .text._ZN76_$LT$core..num..niche_types..NonZeroU64Inner$u20$as$u20$core..fmt..Debug$GT$3fmt17heaf30e8a9b4a192eE
                0xffff80004023f7e8        0x8 bin/obj/rslib.a(core-dca77d77b03929cc.core.bbd04c23a4fa3c72-cgu.0.rcgu.o)
                0xffff80004023f7e8                <core::num::niche_types::NonZeroU64Inner as core::fmt::Debug>::fmt
 .text._ZN77_$LT$core..net..ip_addr..Ipv4Addr$u20$as$u20$core..ops..bit..BitAndAssign$GT$13bitand_assign17hc7dc612f58ce4feaE
                0xffff80004023f7f0       0x60 bin/obj/rslib.a(core-dca77d77b03929cc.core.bbd04c23a4fa3c72-cgu.0.rcgu.o)
                0xffff80004023f7f0                <core::net::ip_addr::Ipv4Addr as core::ops::bit::BitAndAssign>::bitand_assign
 .text._ZN77_$LT$core..net..ip_addr..Ipv6Addr$u20$as$u20$core..ops..bit..BitAndAssign$GT$13bitand_assign17h117ffc127ea0c902E
                0xffff80004023f850      0x1d0 bin/obj/rslib.a(core-dca77d77b03929cc.core.bbd04c23a4fa3c72-cgu.0.rcgu.o)
                0xffff80004023f850                <core::net::ip_addr::Ipv6Addr as core::ops::bit::BitAndAssign>::bitand_assign
 .text._ZN77_$LT$core..num..niche_types..NonZeroCharInner$u20$as$u20$core..fmt..Debug$GT$3fmt17h6d4e4af2e26f4140E
                0xffff80004023fa20       0xe4 bin/obj/rslib.a(core-dca77d77b03929cc.core.bbd04c23a4fa3c72-cgu.0.rcgu.o)
                0xffff80004023fa20                <core::num::niche_types::NonZeroCharInner as core::fmt::Debug>::fmt
 .text._ZN77_$LT$core..num..niche_types..NonZeroI128Inner$u20$as$u20$core..fmt..Debug$GT$3fmt17h0f7dbeb4220eaa67E
                0xffff80004023fb04       0x10 bin/obj/rslib.a(core-dca77d77b03929cc.core.bbd04c23a4fa3c72-cgu.0.rcgu.o)
                0xffff80004023fb04                <core::num::niche_types::NonZeroI128Inner as core::fmt::Debug>::fmt
 .text._ZN77_$LT$core..num..niche_types..NonZeroU128Inner$u20$as$u20$core..fmt..Debug$GT$3fmt17hcb8a5bc49aa4755dE
                0xffff80004023fb14       0x10 bin/obj/rslib.a(core-dca77d77b03929cc.core.bbd04c23a4fa3c72-cgu.0.rcgu.o)
                0xffff80004023fb14                <core::num::niche_types::NonZeroU128Inner as core::fmt::Debug>::fmt
 .text._ZN78_$LT$core..error..Source$u20$as$u20$core..iter..traits..iterator..Iterator$GT$4next17h0a34f1389b59202cE
                0xffff80004023fb24       0x50 bin/obj/rslib.a(core-dca77d77b03929cc.core.bbd04c23a4fa3c72-cgu.0.rcgu.o)
                0xffff80004023fb24                <core::error::Source as core::iter::traits::iterator::Iterator>::next
 .text._ZN78_$LT$core..ffi..c_str..FromBytesWithNulError$u20$as$u20$core..fmt..Display$GT$3fmt17h23a828b2adb7affcE
                0xffff80004023fb74       0x78 bin/obj/rslib.a(core-dca77d77b03929cc.core.bbd04c23a4fa3c72-cgu.0.rcgu.o)
                0xffff80004023fb74                <core::ffi::c_str::FromBytesWithNulError as core::fmt::Display>::fmt
 .text._ZN78_$LT$core..num..niche_types..NonZeroUsizeInner$u20$as$u20$core..fmt..Debug$GT$3fmt17h2b0a1553026edf63E
                0xffff80004023fbec       0x28 bin/obj/rslib.a(core-dca77d77b03929cc.core.bbd04c23a4fa3c72-cgu.0.rcgu.o)
                0xffff80004023fbec                <core::num::niche_types::NonZeroUsizeInner as core::fmt::Debug>::fmt
 .text._ZN79_$LT$core..ffi..c_str..FromBytesUntilNulError$u20$as$u20$core..fmt..Display$GT$3fmt17h9fad536e772739e2E
                0xffff80004023fc14       0x1c bin/obj/rslib.a(core-dca77d77b03929cc.core.bbd04c23a4fa3c72-cgu.0.rcgu.o)
                0xffff80004023fc14                <core::ffi::c_str::FromBytesUntilNulError as core::fmt::Display>::fmt
 .text._ZN82_$LT$core..char..ToLowercase$u20$as$u20$core..iter..traits..iterator..Iterator$GT$10advance_by17hc057a2ce9fe3ce43E
                0xffff80004023fc30       0x24 bin/obj/rslib.a(core-dca77d77b03929cc.core.bbd04c23a4fa3c72-cgu.0.rcgu.o)
                0xffff80004023fc30                <core::char::ToUppercase as core::iter::traits::iterator::Iterator>::advance_by
                0xffff80004023fc30                <core::char::ToLowercase as core::iter::traits::iterator::Iterator>::advance_by
 .text._ZN82_$LT$core..char..ToLowercase$u20$as$u20$core..iter..traits..iterator..Iterator$GT$24__iterator_get_unchecked17hc5c9b3d0bc29ba59E
                0xffff80004023fc54       0x14 bin/obj/rslib.a(core-dca77d77b03929cc.core.bbd04c23a4fa3c72-cgu.0.rcgu.o)
                0xffff80004023fc54                <core::char::ToLowercase as core::iter::traits::iterator::Iterator>::__iterator_get_unchecked
                0xffff80004023fc54                <core::char::ToUppercase as core::iter::traits::iterator::Iterator>::__iterator_get_unchecked
 .text._ZN82_$LT$core..char..ToLowercase$u20$as$u20$core..iter..traits..iterator..Iterator$GT$4last17h66ebd099c6d10b09E
                0xffff80004023fc68       0x44 bin/obj/rslib.a(core-dca77d77b03929cc.core.bbd04c23a4fa3c72-cgu.0.rcgu.o)
                0xffff80004023fc68                <core::char::ToUppercase as core::iter::traits::iterator::Iterator>::last
                0xffff80004023fc68                <core::char::ToLowercase as core::iter::traits::iterator::Iterator>::last
 .text._ZN82_$LT$core..char..ToLowercase$u20$as$u20$core..iter..traits..iterator..Iterator$GT$4next17hb4b3068c552e2065E
                0xffff80004023fcac       0x2c bin/obj/rslib.a(core-dca77d77b03929cc.core.bbd04c23a4fa3c72-cgu.0.rcgu.o)
                0xffff80004023fcac                <core::char::ToLowercase as core::iter::traits::iterator::Iterator>::next
                0xffff80004023fcac                <core::char::ToUppercase as core::iter::traits::iterator::Iterator>::next
 .text._ZN82_$LT$core..char..ToLowercase$u20$as$u20$core..iter..traits..iterator..Iterator$GT$5count17hd37bb508491dc2c0E
                0xffff80004023fcd8        0xc bin/obj/rslib.a(core-dca77d77b03929cc.core.bbd04c23a4fa3c72-cgu.0.rcgu.o)
                0xffff80004023fcd8                <core::char::CaseMappingIter as core::iter::traits::iterator::Iterator>::count
                0xffff80004023fcd8                <core::char::ToLowercase as core::iter::traits::iterator::Iterator>::count
                0xffff80004023fcd8                <core::char::ToUppercase as core::iter::traits::iterator::Iterator>::count
 .text._ZN84_$LT$core..num..nonzero..NonZero$LT$i8$GT$$u20$as$u20$core..str..traits..FromStr$GT$8from_str17hd46d1decb8f9a7a6E
                0xffff80004023fce4      0x200 bin/obj/rslib.a(core-dca77d77b03929cc.core.bbd04c23a4fa3c72-cgu.0.rcgu.o)
                0xffff80004023fce4                <core::num::nonzero::NonZero<i8> as core::str::traits::FromStr>::from_str
 .text._ZN84_$LT$core..num..nonzero..NonZero$LT$u8$GT$$u20$as$u20$core..str..traits..FromStr$GT$8from_str17hbb143052fe75ac68E
                0xffff80004023fee4      0x114 bin/obj/rslib.a(core-dca77d77b03929cc.core.bbd04c23a4fa3c72-cgu.0.rcgu.o)
                0xffff80004023fee4                <core::num::nonzero::NonZero<u8> as core::str::traits::FromStr>::from_str
 .text._ZN84_$LT$core..panicking..assert_matches_failed..Pattern$u20$as$u20$core..fmt..Debug$GT$3fmt17he803faafa830904bE
                0xffff80004023fff8       0x14 bin/obj/rslib.a(core-dca77d77b03929cc.core.bbd04c23a4fa3c72-cgu.0.rcgu.o)
                0xffff80004023fff8                <core::panicking::assert_matches_failed::Pattern as core::fmt::Debug>::fmt
 .text._ZN85_$LT$core..marker..variance..PhantomCovariantLifetime$u20$as$u20$core..fmt..Debug$GT$3fmt17h3d5e23cb587bbfc6E
                0xffff80004024000c       0x1c bin/obj/rslib.a(core-dca77d77b03929cc.core.bbd04c23a4fa3c72-cgu.0.rcgu.o)
                0xffff80004024000c                <core::marker::variance::PhantomCovariantLifetime as core::fmt::Debug>::fmt
 .text._ZN85_$LT$core..marker..variance..PhantomInvariantLifetime$u20$as$u20$core..fmt..Debug$GT$3fmt17haa4470f65daf5fabE
                0xffff800040240028       0x1c bin/obj/rslib.a(core-dca77d77b03929cc.core.bbd04c23a4fa3c72-cgu.0.rcgu.o)
                0xffff800040240028                <core::marker::variance::PhantomInvariantLifetime as core::fmt::Debug>::fmt
 .text._ZN85_$LT$core..num..nonzero..NonZero$LT$i16$GT$$u20$as$u20$core..str..traits..FromStr$GT$8from_str17hdc13b71a6812a78fE
                0xffff800040240044      0x1f4 bin/obj/rslib.a(core-dca77d77b03929cc.core.bbd04c23a4fa3c72-cgu.0.rcgu.o)
                0xffff800040240044                <core::num::nonzero::NonZero<i16> as core::str::traits::FromStr>::from_str
 .text._ZN85_$LT$core..num..nonzero..NonZero$LT$i32$GT$$u20$as$u20$core..str..traits..FromStr$GT$8from_str17he22b46483e7be8ffE
                0xffff800040240238      0x1e0 bin/obj/rslib.a(core-dca77d77b03929cc.core.bbd04c23a4fa3c72-cgu.0.rcgu.o)
                0xffff800040240238                <core::num::nonzero::NonZero<i32> as core::str::traits::FromStr>::from_str
 .text._ZN85_$LT$core..num..nonzero..NonZero$LT$i64$GT$$u20$as$u20$core..str..traits..FromStr$GT$8from_str17hefcecba542985497E
                0xffff800040240418      0x1c8 bin/obj/rslib.a(core-dca77d77b03929cc.core.bbd04c23a4fa3c72-cgu.0.rcgu.o)
                0xffff800040240418                <core::num::nonzero::NonZero<i64> as core::str::traits::FromStr>::from_str
                0xffff800040240418                <core::num::nonzero::NonZero<isize> as core::str::traits::FromStr>::from_str
 .text._ZN85_$LT$core..num..nonzero..NonZero$LT$u16$GT$$u20$as$u20$core..str..traits..FromStr$GT$8from_str17hc287c2fb1cc6442eE
                0xffff8000402405e0      0x124 bin/obj/rslib.a(core-dca77d77b03929cc.core.bbd04c23a4fa3c72-cgu.0.rcgu.o)
                0xffff8000402405e0                <core::num::nonzero::NonZero<u16> as core::str::traits::FromStr>::from_str
 .text._ZN85_$LT$core..num..nonzero..NonZero$LT$u32$GT$$u20$as$u20$core..str..traits..FromStr$GT$8from_str17h5df5fc681e47843cE
                0xffff800040240704      0x140 bin/obj/rslib.a(core-dca77d77b03929cc.core.bbd04c23a4fa3c72-cgu.0.rcgu.o)
                0xffff800040240704                <core::num::nonzero::NonZero<u32> as core::str::traits::FromStr>::from_str
 .text._ZN85_$LT$core..num..nonzero..NonZero$LT$u64$GT$$u20$as$u20$core..str..traits..FromStr$GT$8from_str17hea66eeae1fefcb14E
                0xffff800040240844      0x120 bin/obj/rslib.a(core-dca77d77b03929cc.core.bbd04c23a4fa3c72-cgu.0.rcgu.o)
                0xffff800040240844                <core::num::nonzero::NonZero<usize> as core::str::traits::FromStr>::from_str
                0xffff800040240844                <core::num::nonzero::NonZero<u64> as core::str::traits::FromStr>::from_str
 .text._ZN86_$LT$core..char..CaseMappingIter$u20$as$u20$core..iter..traits..iterator..Iterator$GT$10advance_by17h8d113a21c9e1b039E
                0xffff800040240964       0x24 bin/obj/rslib.a(core-dca77d77b03929cc.core.bbd04c23a4fa3c72-cgu.0.rcgu.o)
                0xffff800040240964                <core::char::CaseMappingIter as core::iter::traits::iterator::Iterator>::advance_by
 .text._ZN86_$LT$core..char..CaseMappingIter$u20$as$u20$core..iter..traits..iterator..Iterator$GT$24__iterator_get_unchecked17h382d818a4aebef5eE
                0xffff800040240988       0x14 bin/obj/rslib.a(core-dca77d77b03929cc.core.bbd04c23a4fa3c72-cgu.0.rcgu.o)
                0xffff800040240988                <core::char::CaseMappingIter as core::iter::traits::iterator::Iterator>::__iterator_get_unchecked
 .text._ZN86_$LT$core..char..CaseMappingIter$u20$as$u20$core..iter..traits..iterator..Iterator$GT$4last17hb29e011c8da57da8E
                0xffff80004024099c       0x44 bin/obj/rslib.a(core-dca77d77b03929cc.core.bbd04c23a4fa3c72-cgu.0.rcgu.o)
                0xffff80004024099c                <core::char::CaseMappingIter as core::iter::traits::iterator::Iterator>::last
 .text._ZN86_$LT$core..char..CaseMappingIter$u20$as$u20$core..iter..traits..iterator..Iterator$GT$4next17h4a001d63b7455739E
                0xffff8000402409e0       0x2c bin/obj/rslib.a(core-dca77d77b03929cc.core.bbd04c23a4fa3c72-cgu.0.rcgu.o)
                0xffff8000402409e0                <core::char::CaseMappingIter as core::iter::traits::iterator::Iterator>::next
 .text._ZN86_$LT$core..net..display_buffer..DisplayBuffer$LT$_$GT$$u20$as$u20$core..fmt..Write$GT$9write_str17h0a7fda5ac66f4daaE
                0xffff800040240a0c       0x50 bin/obj/rslib.a(core-dca77d77b03929cc.core.bbd04c23a4fa3c72-cgu.0.rcgu.o)
 .text._ZN86_$LT$core..net..display_buffer..DisplayBuffer$LT$_$GT$$u20$as$u20$core..fmt..Write$GT$9write_str17h14d7af03d02a2f2fE
                0xffff800040240a5c       0x50 bin/obj/rslib.a(core-dca77d77b03929cc.core.bbd04c23a4fa3c72-cgu.0.rcgu.o)
 .text._ZN86_$LT$core..net..display_buffer..DisplayBuffer$LT$_$GT$$u20$as$u20$core..fmt..Write$GT$9write_str17h3f53105d8582f017E
                0xffff800040240aac       0x50 bin/obj/rslib.a(core-dca77d77b03929cc.core.bbd04c23a4fa3c72-cgu.0.rcgu.o)
 .text._ZN86_$LT$core..net..display_buffer..DisplayBuffer$LT$_$GT$$u20$as$u20$core..fmt..Write$GT$9write_str17hd57957a82b61e232E
                0xffff800040240afc       0x50 bin/obj/rslib.a(core-dca77d77b03929cc.core.bbd04c23a4fa3c72-cgu.0.rcgu.o)
 .text._ZN86_$LT$core..num..nonzero..NonZero$LT$i128$GT$$u20$as$u20$core..str..traits..FromStr$GT$8from_str17hf7494214aeeef837E
                0xffff800040240b4c      0x248 bin/obj/rslib.a(core-dca77d77b03929cc.core.bbd04c23a4fa3c72-cgu.0.rcgu.o)
                0xffff800040240b4c                <core::num::nonzero::NonZero<i128> as core::str::traits::FromStr>::from_str
 .text._ZN86_$LT$core..num..nonzero..NonZero$LT$u128$GT$$u20$as$u20$core..str..traits..FromStr$GT$8from_str17h22ac3775f01e91a2E
                0xffff800040240d94      0x154 bin/obj/rslib.a(core-dca77d77b03929cc.core.bbd04c23a4fa3c72-cgu.0.rcgu.o)
                0xffff800040240d94                <core::num::nonzero::NonZero<u128> as core::str::traits::FromStr>::from_str
 .text._ZN87_$LT$core..str..lossy..Utf8Chunks$u20$as$u20$core..iter..traits..iterator..Iterator$GT$4next17h2661d887a07547b9E
                0xffff800040240ee8      0x1c0 bin/obj/rslib.a(core-dca77d77b03929cc.core.bbd04c23a4fa3c72-cgu.0.rcgu.o)
                0xffff800040240ee8                <core::str::lossy::Utf8Chunks as core::iter::traits::iterator::Iterator>::next
 .text._ZN89_$LT$core..marker..variance..PhantomContravariantLifetime$u20$as$u20$core..fmt..Debug$GT$3fmt17hc3bd66dcd6a7ffdbE
                0xffff8000402410a8       0x1c bin/obj/rslib.a(core-dca77d77b03929cc.core.bbd04c23a4fa3c72-cgu.0.rcgu.o)
                0xffff8000402410a8                <core::marker::variance::PhantomContravariantLifetime as core::fmt::Debug>::fmt
 .text._ZN97_$LT$core..char..ToLowercase$u20$as$u20$core..iter..traits..double_ended..DoubleEndedIterator$GT$15advance_back_by17heaf9619999a7d7a3E
                0xffff8000402410c4       0x28 bin/obj/rslib.a(core-dca77d77b03929cc.core.bbd04c23a4fa3c72-cgu.0.rcgu.o)
                0xffff8000402410c4                <core::char::ToLowercase as core::iter::traits::double_ended::DoubleEndedIterator>::advance_back_by
                0xffff8000402410c4                <core::char::ToUppercase as core::iter::traits::double_ended::DoubleEndedIterator>::advance_back_by
 .text._ZN97_$LT$core..char..ToLowercase$u20$as$u20$core..iter..traits..double_ended..DoubleEndedIterator$GT$9next_back17h6b0f4f127dfecf3aE
                0xffff8000402410ec       0x28 bin/obj/rslib.a(core-dca77d77b03929cc.core.bbd04c23a4fa3c72-cgu.0.rcgu.o)
                0xffff8000402410ec                <core::char::ToLowercase as core::iter::traits::double_ended::DoubleEndedIterator>::next_back
                0xffff8000402410ec                <core::char::ToUppercase as core::iter::traits::double_ended::DoubleEndedIterator>::next_back
 .text.OUTLINED_FUNCTION_0
                0xffff800040241114       0x18 bin/obj/rslib.a(core-dca77d77b03929cc.core.bbd04c23a4fa3c72-cgu.0.rcgu.o)
 .text.OUTLINED_FUNCTION_1
                0xffff80004024112c        0xc bin/obj/rslib.a(core-dca77d77b03929cc.core.bbd04c23a4fa3c72-cgu.0.rcgu.o)
 .text          0xffff800040241138        0x0 bin/obj/rslib.a(compiler_builtins-fabd8ee97a026881.compiler_builtins.f286be164c3a919f-cgu.099.rcgu.o)
 .text.memcmp   0xffff800040241138       0x28 bin/obj/rslib.a(compiler_builtins-fabd8ee97a026881.compiler_builtins.f286be164c3a919f-cgu.099.rcgu.o)
                0xffff800040241138                memcmp
 .text          0xffff800040241160        0x0 bin/obj/rslib.a(compiler_builtins-fabd8ee97a026881.compiler_builtins.f286be164c3a919f-cgu.173.rcgu.o)
 .text.memcpy   0xffff800040241160      0x20c bin/obj/rslib.a(compiler_builtins-fabd8ee97a026881.compiler_builtins.f286be164c3a919f-cgu.173.rcgu.o)
                0xffff800040241160                memcpy
 .text          0xffff80004024136c        0x0 bin/obj/rslib.a(compiler_builtins-fabd8ee97a026881.compiler_builtins.f286be164c3a919f-cgu.242.rcgu.o)
 .text.__udivti3
                0xffff80004024136c       0x24 bin/obj/rslib.a(compiler_builtins-fabd8ee97a026881.compiler_builtins.f286be164c3a919f-cgu.242.rcgu.o)
                0xffff80004024136c                __udivti3
 .text          0xffff800040241390        0x0 bin/obj/rslib.a(compiler_builtins-fabd8ee97a026881.compiler_builtins.f286be164c3a919f-cgu.295.rcgu.o)
 .text.memset   0xffff800040241390      0x154 bin/obj/rslib.a(compiler_builtins-fabd8ee97a026881.compiler_builtins.f286be164c3a919f-cgu.295.rcgu.o)
                0xffff800040241390                memset
 .text          0xffff8000402414e4        0x0 bin/obj/rslib.a(compiler_builtins-fabd8ee97a026881.compiler_builtins.f286be164c3a919f-cgu.018.rcgu.o)
 .text._ZN17compiler_builtins3int19specialized_div_rem12u128_div_rem17hf0411c212b5a2bc0E
                0xffff8000402414e4      0x324 bin/obj/rslib.a(compiler_builtins-fabd8ee97a026881.compiler_builtins.f286be164c3a919f-cgu.018.rcgu.o)
                0xffff8000402414e4                compiler_builtins::int::specialized_div_rem::u128_div_rem
                0xffff800040241808                __vectors_start = .
 *(.vectors)
 *fill*         0xffff800040241808      0x7f8 
 .vectors       0xffff800040242000      0x784 bin/obj/__arm/exceptions/el2_vectors.o
                0xffff800040242000                _el2_vector_table
 *fill*         0xffff800040242784       0x7c 
 .vectors       0xffff800040242800      0x784 bin/obj/__arm/exceptions/el1_vectors.o
                0xffff800040242800                _el1_vector_table
                0xffff800040242f84                __vectors_end = .
                0xffff800040243000                . = ALIGN (0x1000)
 *fill*         0xffff800040242f84       0x7c 
                0xffff800040243000                __text_end = .
                0x0000000000043000                __text_size = (__text_end - __text_start)

.iplt           0xffff800040243000        0x0 load address 0x0000000040243000
 .iplt          0xffff800040243000        0x0 bin/obj/__kernel/mm/reloc/reloc.o

.rela.dyn       0xffff800040243000        0x0 load address 0x0000000040243000
 .rela.iplt     0xffff800040243000        0x0 bin/obj/__kernel/mm/reloc/reloc.o
 .rela.text     0xffff800040243000        0x0 bin/obj/__kernel/mm/reloc/reloc.o
 .rela.text.boot
                0xffff800040243000        0x0 bin/obj/__kernel/mm/reloc/reloc.o
 .rela.rodata   0xffff800040243000        0x0 bin/obj/__kernel/mm/reloc/reloc.o

.rodata         0xffff800040243000    0x17000 load address 0x0000000040243000
                0xffff800040243000                __rodata_start = .
 *(.rodata*)
 .rodata        0xffff800040243000       0x26 bin/obj/kernel/irq/irq.o
 *fill*         0xffff800040243026        0x2 
 .rodata        0xffff800040243028       0x60 bin/obj/kernel/devices/drivers.o
                0xffff800040243028                GIC_DRIVER
                0xffff800040243038                UART1_DRIVER
                0xffff800040243048                UART3_DRIVER
                0xffff800040243058                UART4_DRIVER
                0xffff800040243068                TMU_DRIVER
                0xffff800040243078                AGT0_DRIVER
 *fill*         0xffff800040243088        0x8 
 .rodata        0xffff800040243090       0x20 bin/obj/kernel/init/init_drivers.o
 .rodata        0xffff8000402430b0       0x26 bin/obj/kernel/lib/smp.o
 *fill*         0xffff8000402430d6        0x2 
 .rodata        0xffff8000402430d8      0x4fc bin/obj/kernel/mm/phys/page_allocator.o
 *fill*         0xffff8000402435d4        0x4 
 .rodata        0xffff8000402435d8      0x109 bin/obj/kernel/mm/init/identity_mapping.o
 *fill*         0xffff8000402436e1        0x7 
 .rodata        0xffff8000402436e8       0xe2 bin/obj/kernel/mm/init/init.o
 *fill*         0xffff8000402437ca        0x6 
 .rodata        0xffff8000402437d0      0x862 bin/obj/kernel/mm/init/mem_regions/early_kalloc.o
 *fill*         0xffff800040244032        0x6 
 .rodata        0xffff800040244038       0xc0 bin/obj/kernel/mm/init/mem_regions/mem_regions.o
                0xffff8000402440d8                MEM_REGIONS
                0xffff8000402440e8                MEM_REGIONS_RESERVED
 .rodata        0xffff8000402440f8      0x319 bin/obj/kernel/mm/mm_info.o
                0xffff800040244178                MM_KSECTIONS
 *fill*         0xffff800040244411        0x7 
 .rodata        0xffff800040244418      0x47c bin/obj/kernel/mm/virt/containers/containers.o
 *fill*         0xffff800040244894        0x4 
 .rodata        0xffff800040244898      0xb81 bin/obj/kernel/mm/virt/vmalloc.o
 *fill*         0xffff800040245419        0x7 
 .rodata        0xffff800040245420      0x4ad bin/obj/kernel/mm/virt/mdt/mdt.o
 *fill*         0xffff8000402458cd        0x3 
 .rodata        0xffff8000402458d0      0x38b bin/obj/kernel/mm/malloc/reserve_malloc.o
                0xffff800040245960                RESERVE_MALLOC_RESERVE_SIZE
 *fill*         0xffff800040245c5b        0x5 
 .rodata        0xffff800040245c60      0x359 bin/obj/kernel/mm/malloc/raw_kmalloc.o
                0xffff800040245ce0                RAW_KMALLOC_KMAP_CFG
                0xffff800040245ce8                RAW_KMALLOC_DYNAMIC_CFG
 *fill*         0xffff800040245fb9        0x7 
 .rodata        0xffff800040245fc0       0x6b bin/obj/kernel/mm/reloc/reloc.o
 *fill*         0xffff80004024602b        0x5 
 .rodata        0xffff800040246030       0x3e bin/obj/kernel/kernel_entry.o
 *fill*         0xffff80004024606e        0x2 
 .rodata        0xffff800040246070       0x5e bin/obj/kernel/io/term.o
 *fill*         0xffff8000402460ce        0x2 
 .rodata        0xffff8000402460d0      0x175 bin/obj/kernel/panic/panic.o
 *fill*         0xffff800040246245        0x3 
 .rodata        0xffff800040246248        0x5 bin/obj/kernel/panic/panic_puts.o
 *fill*         0xffff80004024624d        0x3 
 .rodata        0xffff800040246250       0xaa bin/obj/kernel/panic/panic_exception/panic_exception_handlers.o
 *fill*         0xffff8000402462fa        0x6 
 .rodata        0xffff800040246300      0x7bc bin/obj/kernel/panic/panic_exception/esr/esr.o
 *fill*         0xffff800040246abc        0x4 
 .rodata        0xffff800040246ac0     0x1368 bin/obj/kernel/panic/panic_exception/esr/data_abort.o
 .rodata        0xffff800040247e28       0x35 bin/obj/arm/exceptions/handlers/el1/el1_low_a32_serror.o
 *fill*         0xffff800040247e5d        0x3 
 .rodata        0xffff800040247e60       0x32 bin/obj/arm/exceptions/handlers/el1/el1_low_a32_fiq.o
 *fill*         0xffff800040247e92        0x6 
 .rodata        0xffff800040247e98       0x33 bin/obj/arm/exceptions/handlers/el1/el1_low_a64_sync.o
 *fill*         0xffff800040247ecb        0x5 
 .rodata        0xffff800040247ed0       0x32 bin/obj/arm/exceptions/handlers/el1/el1_cur_spx_fiq.o
 *fill*         0xffff800040247f02        0x6 
 .rodata        0xffff800040247f08       0x35 bin/obj/arm/exceptions/handlers/el1/el1_cur_spx_serror.o
 *fill*         0xffff800040247f3d        0x3 
 .rodata        0xffff800040247f40       0x32 bin/obj/arm/exceptions/handlers/el1/el1_low_a32_irq.o
 *fill*         0xffff800040247f72        0x6 
 .rodata        0xffff800040247f78       0x32 bin/obj/arm/exceptions/handlers/el1/el1_low_a64_fiq.o
 *fill*         0xffff800040247faa        0x6 
 .rodata        0xffff800040247fb0       0x32 bin/obj/arm/exceptions/handlers/el1/el1_low_a64_irq.o
 *fill*         0xffff800040247fe2        0x6 
 .rodata        0xffff800040247fe8       0x33 bin/obj/arm/exceptions/handlers/el1/el1_cur_sp0_sync.o
 *fill*         0xffff80004024801b        0x5 
 .rodata        0xffff800040248020       0x35 bin/obj/arm/exceptions/handlers/el1/el1_low_a64_serror.o
 *fill*         0xffff800040248055        0x3 
 .rodata        0xffff800040248058       0x33 bin/obj/arm/exceptions/handlers/el1/el1_low_a32_sync.o
 *fill*         0xffff80004024808b        0x5 
 .rodata        0xffff800040248090       0x33 bin/obj/arm/exceptions/handlers/el1/el1_cur_spx_sync.o
 *fill*         0xffff8000402480c3        0x5 
 .rodata        0xffff8000402480c8       0x32 bin/obj/arm/exceptions/handlers/el1/el1_cur_sp0_fiq.o
 *fill*         0xffff8000402480fa        0x6 
 .rodata        0xffff800040248100       0x35 bin/obj/arm/exceptions/handlers/el1/el1_cur_sp0_serror.o
 *fill*         0xffff800040248135        0x3 
 .rodata        0xffff800040248138       0x32 bin/obj/arm/exceptions/handlers/el1/el1_cur_sp0_irq.o
 *fill*         0xffff80004024816a        0x6 
 .rodata        0xffff800040248170       0x34 bin/obj/arm/exceptions/handlers/el2/el2_low_a32_serror.o
 *fill*         0xffff8000402481a4        0x4 
 .rodata        0xffff8000402481a8       0x34 bin/obj/arm/exceptions/handlers/el2/el2_cur_spx_serror.o
 *fill*         0xffff8000402481dc        0x4 
 .rodata        0xffff8000402481e0       0x34 bin/obj/arm/exceptions/handlers/el2/el2_low_a64_serror.o
 *fill*         0xffff800040248214        0x4 
 .rodata        0xffff800040248218       0x32 bin/obj/arm/exceptions/handlers/el2/el2_low_a64_sync.o
 *fill*         0xffff80004024824a        0x6 
 .rodata        0xffff800040248250       0x31 bin/obj/arm/exceptions/handlers/el2/el2_cur_sp0_irq.o
 *fill*         0xffff800040248281        0x7 
 .rodata        0xffff800040248288       0x34 bin/obj/arm/exceptions/handlers/el2/el2_cur_sp0_serror.o
 *fill*         0xffff8000402482bc        0x4 
 .rodata        0xffff8000402482c0       0x31 bin/obj/arm/exceptions/handlers/el2/el2_low_a64_irq.o
 *fill*         0xffff8000402482f1        0x7 
 .rodata        0xffff8000402482f8       0x31 bin/obj/arm/exceptions/handlers/el2/el2_low_a64_fiq.o
 *fill*         0xffff800040248329        0x7 
 .rodata        0xffff800040248330       0x31 bin/obj/arm/exceptions/handlers/el2/el2_cur_spx_fiq.o
 *fill*         0xffff800040248361        0x7 
 .rodata        0xffff800040248368       0x31 bin/obj/arm/exceptions/handlers/el2/el2_low_a32_irq.o
 *fill*         0xffff800040248399        0x7 
 .rodata        0xffff8000402483a0       0x31 bin/obj/arm/exceptions/handlers/el2/el2_cur_sp0_fiq.o
 *fill*         0xffff8000402483d1        0x7 
 .rodata        0xffff8000402483d8       0x31 bin/obj/arm/exceptions/handlers/el2/el2_low_a32_fiq.o
 *fill*         0xffff800040248409        0x7 
 .rodata        0xffff800040248410       0x32 bin/obj/arm/exceptions/handlers/el2/el2_cur_spx_sync.o
 *fill*         0xffff800040248442        0x6 
 .rodata        0xffff800040248448       0x32 bin/obj/arm/exceptions/handlers/el2/el2_low_a32_sync.o
 *fill*         0xffff80004024847a        0x6 
 .rodata        0xffff800040248480       0x32 bin/obj/arm/exceptions/handlers/el2/el2_cur_sp0_sync.o
 *fill*         0xffff8000402484b2        0x6 
 .rodata        0xffff8000402484b8       0x31 bin/obj/arm/exceptions/handlers/el2/el2_cur_spx_irq.o
 *fill*         0xffff8000402484e9        0x7 
 .rodata        0xffff8000402484f0       0xbf bin/obj/arm/exceptions/handlers/exception_macros.o
 *fill*         0xffff8000402485af        0x1 
 .rodata        0xffff8000402485b0       0x41 bin/obj/arm/exceptions/exceptions.o
 *fill*         0xffff8000402485f1        0x7 
 .rodata        0xffff8000402485f8       0xdd bin/obj/arm/mmu/regs/mmu_sysregs.o
 *fill*         0xffff8000402486d5        0x3 
 .rodata        0xffff8000402486d8      0x5f0 bin/obj/arm/mmu/mmu_debugging.o
 .rodata        0xffff800040248cc8      0x888 bin/obj/arm/mmu/mmu.o
 .rodata        0xffff800040249550       0xc8 bin/obj/lib/lock/corelock.o
 .rodata        0xffff800040249618      0x14c bin/obj/lib/malloc/xalloc.o
 *fill*         0xffff800040249764        0x4 
 .rodata        0xffff800040249768      0x137 bin/obj/lib/string/fmt.o
 *fill*         0xffff80004024989f        0x1 
 .rodata        0xffff8000402498a0      0x116 bin/obj/lib/mem/memcpy/memcpy.o
 *fill*         0xffff8000402499b6        0x2 
 .rodata        0xffff8000402499b8       0x1b bin/obj/lib/mem/mem.o
 *fill*         0xffff8000402499d3        0x5 
 .rodata        0xffff8000402499d8      0x1ab bin/obj/drivers/tmu/tmu.o
                0xffff8000402499d8                TMU_MAX_SENSOR_TEMP_C
                0xffff8000402499d9                TMU_MIN_SENSOR_TEMP_C
                0xffff8000402499da                TMU_MAX_RECCOMENDED_TEMP_C
 *fill*         0xffff800040249b83        0x5 
 .rodata        0xffff800040249b88      0x2ed bin/obj/drivers/interrupts/gicv3/gicv3.o
 *fill*         0xffff800040249e75        0x3 
 .rodata        0xffff800040249e78      0x24d bin/obj/drivers/uart/uart.o
                0xffff800040249e78                USR1_IRQ_W1C_BITS_
                0xffff800040249e88                USR2_IRQ_W2C_BITS_
 .rodata.str1.1
                0xffff80004024a0c5      0x42a bin/obj/rslib.a(imx8mp_kernel-1a53598e06c50be6.imx8mp_kernel.241a9a11e0e6ae75-cgu.0.rcgu.o)
                                         0x61 (size before relaxing)
 *fill*         0xffff80004024a4ef        0x1 
 .rodata..Lanon.2fa78918b234230907a066c05dcc6487.2
                0xffff80004024a4f0       0x18 bin/obj/rslib.a(imx8mp_kernel-1a53598e06c50be6.imx8mp_kernel.241a9a11e0e6ae75-cgu.0.rcgu.o)
 .rodata..Lanon.2fa78918b234230907a066c05dcc6487.3
                0xffff80004024a508       0x18 bin/obj/rslib.a(imx8mp_kernel-1a53598e06c50be6.imx8mp_kernel.241a9a11e0e6ae75-cgu.0.rcgu.o)
 .rodata..Lanon.2fa78918b234230907a066c05dcc6487.4
                0xffff80004024a520       0x18 bin/obj/rslib.a(imx8mp_kernel-1a53598e06c50be6.imx8mp_kernel.241a9a11e0e6ae75-cgu.0.rcgu.o)
 .rodata..Lanon.2fa78918b234230907a066c05dcc6487.5
                0xffff80004024a538       0x44 bin/obj/rslib.a(imx8mp_kernel-1a53598e06c50be6.imx8mp_kernel.241a9a11e0e6ae75-cgu.0.rcgu.o)
 *fill*         0xffff80004024a57c        0x4 
 .rodata..Lanon.2fa78918b234230907a066c05dcc6487.6
                0xffff80004024a580       0x10 bin/obj/rslib.a(imx8mp_kernel-1a53598e06c50be6.imx8mp_kernel.241a9a11e0e6ae75-cgu.0.rcgu.o)
 .rodata..Lanon.2fa78918b234230907a066c05dcc6487.7
                0xffff80004024a590       0x18 bin/obj/rslib.a(imx8mp_kernel-1a53598e06c50be6.imx8mp_kernel.241a9a11e0e6ae75-cgu.0.rcgu.o)
 .rodata..Lanon.2fa78918b234230907a066c05dcc6487.8
                0xffff80004024a5a8       0x18 bin/obj/rslib.a(imx8mp_kernel-1a53598e06c50be6.imx8mp_kernel.241a9a11e0e6ae75-cgu.0.rcgu.o)
 .rodata..Lanon.2fa78918b234230907a066c05dcc6487.9
                0xffff80004024a5c0       0x10 bin/obj/rslib.a(imx8mp_kernel-1a53598e06c50be6.imx8mp_kernel.241a9a11e0e6ae75-cgu.0.rcgu.o)
 .rodata..Lanon.2fa78918b234230907a066c05dcc6487.10
                0xffff80004024a5d0       0x18 bin/obj/rslib.a(imx8mp_kernel-1a53598e06c50be6.imx8mp_kernel.241a9a11e0e6ae75-cgu.0.rcgu.o)
 .rodata..Lanon.2fa78918b234230907a066c05dcc6487.11
                0xffff80004024a5e8       0x18 bin/obj/rslib.a(imx8mp_kernel-1a53598e06c50be6.imx8mp_kernel.241a9a11e0e6ae75-cgu.0.rcgu.o)
 .rodata..Lanon.2fa78918b234230907a066c05dcc6487.12
                0xffff80004024a600        0xf bin/obj/rslib.a(imx8mp_kernel-1a53598e06c50be6.imx8mp_kernel.241a9a11e0e6ae75-cgu.0.rcgu.o)
 *fill*         0xffff80004024a60f        0x1 
 .rodata..Lanon.2fa78918b234230907a066c05dcc6487.13
                0xffff80004024a610       0x10 bin/obj/rslib.a(imx8mp_kernel-1a53598e06c50be6.imx8mp_kernel.241a9a11e0e6ae75-cgu.0.rcgu.o)
 .rodata..Lanon.2fa78918b234230907a066c05dcc6487.15
                0xffff80004024a620       0x18 bin/obj/rslib.a(imx8mp_kernel-1a53598e06c50be6.imx8mp_kernel.241a9a11e0e6ae75-cgu.0.rcgu.o)
 .rodata..Lanon.2fa78918b234230907a066c05dcc6487.16
                0xffff80004024a638        0xe bin/obj/rslib.a(imx8mp_kernel-1a53598e06c50be6.imx8mp_kernel.241a9a11e0e6ae75-cgu.0.rcgu.o)
 *fill*         0xffff80004024a646        0x2 
 .rodata..Lanon.2fa78918b234230907a066c05dcc6487.18
                0xffff80004024a648       0x18 bin/obj/rslib.a(imx8mp_kernel-1a53598e06c50be6.imx8mp_kernel.241a9a11e0e6ae75-cgu.0.rcgu.o)
 .rodata.cst16  0xffff80004024a660       0xf0 bin/obj/rslib.a(core-dca77d77b03929cc.core.bbd04c23a4fa3c72-cgu.0.rcgu.o)
                                        0x130 (size before relaxing)
 .rodata.cst8   0xffff80004024a750       0x58 bin/obj/rslib.a(core-dca77d77b03929cc.core.bbd04c23a4fa3c72-cgu.0.rcgu.o)
 .rodata        0xffff80004024a7a8        0x4 bin/obj/rslib.a(core-dca77d77b03929cc.core.bbd04c23a4fa3c72-cgu.0.rcgu.o)
 .rodata._ZN4core7unicode12unicode_data10alphabetic7OFFSETS17h6ad658de98a7b65cE
                0xffff80004024a7ac      0x5ef bin/obj/rslib.a(core-dca77d77b03929cc.core.bbd04c23a4fa3c72-cgu.0.rcgu.o)
 .rodata._ZN4core7unicode12unicode_data11white_space14WHITESPACE_MAP17h4384a9c112c0b33aE
                0xffff80004024ad9b      0x100 bin/obj/rslib.a(core-dca77d77b03929cc.core.bbd04c23a4fa3c72-cgu.0.rcgu.o)
                0xffff80004024ad9b                core::unicode::unicode_data::white_space::WHITESPACE_MAP
 .rodata._ZN4core7unicode12unicode_data14case_ignorable7OFFSETS17hda6dc735a1d56f33E
                0xffff80004024ae9b      0x397 bin/obj/rslib.a(core-dca77d77b03929cc.core.bbd04c23a4fa3c72-cgu.0.rcgu.o)
 .rodata._ZN4core7unicode12unicode_data15grapheme_extend7OFFSETS17h826aa25ae46177bbE
                0xffff80004024b232      0x2ff bin/obj/rslib.a(core-dca77d77b03929cc.core.bbd04c23a4fa3c72-cgu.0.rcgu.o)
 .rodata._ZN4core7unicode12unicode_data1n7OFFSETS17h122095fa14f2ae65E
                0xffff80004024b531      0x123 bin/obj/rslib.a(core-dca77d77b03929cc.core.bbd04c23a4fa3c72-cgu.0.rcgu.o)
 .rodata._ZN4core7unicode12unicode_data5cased7OFFSETS17h95b7494fb51ec0d4E
                0xffff80004024b654      0x139 bin/obj/rslib.a(core-dca77d77b03929cc.core.bbd04c23a4fa3c72-cgu.0.rcgu.o)
 .rodata._ZN4core7unicode12unicode_data9lowercase17BITSET_CHUNKS_MAP17h2a638f81bf8b8487E
                0xffff80004024b78d       0x7b bin/obj/rslib.a(core-dca77d77b03929cc.core.bbd04c23a4fa3c72-cgu.0.rcgu.o)
                0xffff80004024b78d                core::unicode::unicode_data::lowercase::BITSET_CHUNKS_MAP
 .rodata._ZN4core7unicode12unicode_data9uppercase17BITSET_CHUNKS_MAP17h5d7a284dac8f6918E
                0xffff80004024b808       0x7d bin/obj/rslib.a(core-dca77d77b03929cc.core.bbd04c23a4fa3c72-cgu.0.rcgu.o)
                0xffff80004024b808                core::unicode::unicode_data::uppercase::BITSET_CHUNKS_MAP
 .rodata..Lanon.f5c1b2728a3d49275cd6fdb50aaed8e0.0
                0xffff80004024b885        0x3 bin/obj/rslib.a(core-dca77d77b03929cc.core.bbd04c23a4fa3c72-cgu.0.rcgu.o)
 .rodata..Lanon.f5c1b2728a3d49275cd6fdb50aaed8e0.2
                0xffff80004024b888        0x2 bin/obj/rslib.a(core-dca77d77b03929cc.core.bbd04c23a4fa3c72-cgu.0.rcgu.o)
 *fill*         0xffff80004024b88a        0x6 
 .rodata..Lanon.f5c1b2728a3d49275cd6fdb50aaed8e0.3
                0xffff80004024b890       0x10 bin/obj/rslib.a(core-dca77d77b03929cc.core.bbd04c23a4fa3c72-cgu.0.rcgu.o)
 .rodata..Lanon.f5c1b2728a3d49275cd6fdb50aaed8e0.4
                0xffff80004024b8a0       0x30 bin/obj/rslib.a(core-dca77d77b03929cc.core.bbd04c23a4fa3c72-cgu.0.rcgu.o)
 .rodata.str1.1
                0xffff80004024b8d0      0x3ca bin/obj/rslib.a(core-dca77d77b03929cc.core.bbd04c23a4fa3c72-cgu.0.rcgu.o)
 .rodata..Lanon.f5c1b2728a3d49275cd6fdb50aaed8e0.7
                0xffff80004024b8d0       0x18 bin/obj/rslib.a(core-dca77d77b03929cc.core.bbd04c23a4fa3c72-cgu.0.rcgu.o)
 .rodata..Lanon.f5c1b2728a3d49275cd6fdb50aaed8e0.8
                0xffff80004024b8e8       0x18 bin/obj/rslib.a(core-dca77d77b03929cc.core.bbd04c23a4fa3c72-cgu.0.rcgu.o)
 .rodata..Lanon.f5c1b2728a3d49275cd6fdb50aaed8e0.9
                0xffff80004024b900        0x5 bin/obj/rslib.a(core-dca77d77b03929cc.core.bbd04c23a4fa3c72-cgu.0.rcgu.o)
 .rodata.cst4   0xffff80004024b905       0x28 bin/obj/rslib.a(core-dca77d77b03929cc.core.bbd04c23a4fa3c72-cgu.0.rcgu.o)
 .rodata..Lanon.f5c1b2728a3d49275cd6fdb50aaed8e0.11
                0xffff80004024b92d       0x2c bin/obj/rslib.a(core-dca77d77b03929cc.core.bbd04c23a4fa3c72-cgu.0.rcgu.o)
 *fill*         0xffff80004024b959        0x7 
 .rodata..Lanon.f5c1b2728a3d49275cd6fdb50aaed8e0.12
                0xffff80004024b960       0x10 bin/obj/rslib.a(core-dca77d77b03929cc.core.bbd04c23a4fa3c72-cgu.0.rcgu.o)
 .rodata..Lanon.f5c1b2728a3d49275cd6fdb50aaed8e0.13
                0xffff80004024b970       0x27 bin/obj/rslib.a(core-dca77d77b03929cc.core.bbd04c23a4fa3c72-cgu.0.rcgu.o)
 *fill*         0xffff80004024b997        0x1 
 .rodata..Lanon.f5c1b2728a3d49275cd6fdb50aaed8e0.14
                0xffff80004024b998       0x10 bin/obj/rslib.a(core-dca77d77b03929cc.core.bbd04c23a4fa3c72-cgu.0.rcgu.o)
 .rodata..Lanon.f5c1b2728a3d49275cd6fdb50aaed8e0.16
                0xffff80004024b9a8       0x18 bin/obj/rslib.a(core-dca77d77b03929cc.core.bbd04c23a4fa3c72-cgu.0.rcgu.o)
 .rodata..Lanon.f5c1b2728a3d49275cd6fdb50aaed8e0.17
                0xffff80004024b9c0       0x24 bin/obj/rslib.a(core-dca77d77b03929cc.core.bbd04c23a4fa3c72-cgu.0.rcgu.o)
 *fill*         0xffff80004024b9e4        0x4 
 .rodata..Lanon.f5c1b2728a3d49275cd6fdb50aaed8e0.19
                0xffff80004024b9e8       0x20 bin/obj/rslib.a(core-dca77d77b03929cc.core.bbd04c23a4fa3c72-cgu.0.rcgu.o)
 .rodata..Lanon.f5c1b2728a3d49275cd6fdb50aaed8e0.20
                0xffff80004024ba08       0xc8 bin/obj/rslib.a(core-dca77d77b03929cc.core.bbd04c23a4fa3c72-cgu.0.rcgu.o)
 .rodata..Lanon.f5c1b2728a3d49275cd6fdb50aaed8e0.22
                0xffff80004024bad0        0x1 bin/obj/rslib.a(core-dca77d77b03929cc.core.bbd04c23a4fa3c72-cgu.0.rcgu.o)
 *fill*         0xffff80004024bad1        0x7 
 .rodata..Lanon.f5c1b2728a3d49275cd6fdb50aaed8e0.23
                0xffff80004024bad8       0x18 bin/obj/rslib.a(core-dca77d77b03929cc.core.bbd04c23a4fa3c72-cgu.0.rcgu.o)
 .rodata..Lanon.f5c1b2728a3d49275cd6fdb50aaed8e0.24
                0xffff80004024baf0        0x1 bin/obj/rslib.a(core-dca77d77b03929cc.core.bbd04c23a4fa3c72-cgu.0.rcgu.o)
 *fill*         0xffff80004024baf1        0x7 
 .rodata..Lanon.f5c1b2728a3d49275cd6fdb50aaed8e0.25
                0xffff80004024baf8       0x18 bin/obj/rslib.a(core-dca77d77b03929cc.core.bbd04c23a4fa3c72-cgu.0.rcgu.o)
 .rodata..Lanon.f5c1b2728a3d49275cd6fdb50aaed8e0.26
                0xffff80004024bb10       0x18 bin/obj/rslib.a(core-dca77d77b03929cc.core.bbd04c23a4fa3c72-cgu.0.rcgu.o)
 .rodata..Lanon.f5c1b2728a3d49275cd6fdb50aaed8e0.27
                0xffff80004024bb28        0x1 bin/obj/rslib.a(core-dca77d77b03929cc.core.bbd04c23a4fa3c72-cgu.0.rcgu.o)
 .rodata..Lanon.f5c1b2728a3d49275cd6fdb50aaed8e0.28
                0xffff80004024bb29        0x1 bin/obj/rslib.a(core-dca77d77b03929cc.core.bbd04c23a4fa3c72-cgu.0.rcgu.o)
 .rodata..Lanon.f5c1b2728a3d49275cd6fdb50aaed8e0.30
                0xffff80004024bb2a        0x2 bin/obj/rslib.a(core-dca77d77b03929cc.core.bbd04c23a4fa3c72-cgu.0.rcgu.o)
 .rodata..Lanon.f5c1b2728a3d49275cd6fdb50aaed8e0.31
                0xffff80004024bb2c        0x2 bin/obj/rslib.a(core-dca77d77b03929cc.core.bbd04c23a4fa3c72-cgu.0.rcgu.o)
 .rodata..Lanon.f5c1b2728a3d49275cd6fdb50aaed8e0.32
                0xffff80004024bb2e        0x2 bin/obj/rslib.a(core-dca77d77b03929cc.core.bbd04c23a4fa3c72-cgu.0.rcgu.o)
 .rodata..Lanon.f5c1b2728a3d49275cd6fdb50aaed8e0.35
                0xffff80004024bb30       0x18 bin/obj/rslib.a(core-dca77d77b03929cc.core.bbd04c23a4fa3c72-cgu.0.rcgu.o)
 .rodata..Lanon.f5c1b2728a3d49275cd6fdb50aaed8e0.36
                0xffff80004024bb48       0x18 bin/obj/rslib.a(core-dca77d77b03929cc.core.bbd04c23a4fa3c72-cgu.0.rcgu.o)
 .rodata..Lanon.f5c1b2728a3d49275cd6fdb50aaed8e0.37
                0xffff80004024bb60       0x18 bin/obj/rslib.a(core-dca77d77b03929cc.core.bbd04c23a4fa3c72-cgu.0.rcgu.o)
 .rodata..Lanon.f5c1b2728a3d49275cd6fdb50aaed8e0.38
                0xffff80004024bb78       0x18 bin/obj/rslib.a(core-dca77d77b03929cc.core.bbd04c23a4fa3c72-cgu.0.rcgu.o)
 .rodata..Lanon.f5c1b2728a3d49275cd6fdb50aaed8e0.39
                0xffff80004024bb90       0x18 bin/obj/rslib.a(core-dca77d77b03929cc.core.bbd04c23a4fa3c72-cgu.0.rcgu.o)
 .rodata..Lanon.f5c1b2728a3d49275cd6fdb50aaed8e0.40
                0xffff80004024bba8        0x2 bin/obj/rslib.a(core-dca77d77b03929cc.core.bbd04c23a4fa3c72-cgu.0.rcgu.o)
 .rodata..Lanon.f5c1b2728a3d49275cd6fdb50aaed8e0.41
                0xffff80004024bbaa        0x1 bin/obj/rslib.a(core-dca77d77b03929cc.core.bbd04c23a4fa3c72-cgu.0.rcgu.o)
 .rodata..Lanon.f5c1b2728a3d49275cd6fdb50aaed8e0.42
                0xffff80004024bbab        0x2 bin/obj/rslib.a(core-dca77d77b03929cc.core.bbd04c23a4fa3c72-cgu.0.rcgu.o)
 .rodata..Lanon.f5c1b2728a3d49275cd6fdb50aaed8e0.43
                0xffff80004024bbad        0x1 bin/obj/rslib.a(core-dca77d77b03929cc.core.bbd04c23a4fa3c72-cgu.0.rcgu.o)
 .rodata..Lanon.f5c1b2728a3d49275cd6fdb50aaed8e0.44
                0xffff80004024bbae        0x2 bin/obj/rslib.a(core-dca77d77b03929cc.core.bbd04c23a4fa3c72-cgu.0.rcgu.o)
 .rodata..Lanon.f5c1b2728a3d49275cd6fdb50aaed8e0.46
                0xffff80004024bbb0        0x5 bin/obj/rslib.a(core-dca77d77b03929cc.core.bbd04c23a4fa3c72-cgu.0.rcgu.o)
 .rodata..Lanon.f5c1b2728a3d49275cd6fdb50aaed8e0.47
                0xffff80004024bbb5        0x3 bin/obj/rslib.a(core-dca77d77b03929cc.core.bbd04c23a4fa3c72-cgu.0.rcgu.o)
 .rodata..Lanon.f5c1b2728a3d49275cd6fdb50aaed8e0.48
                0xffff80004024bbb8        0x1 bin/obj/rslib.a(core-dca77d77b03929cc.core.bbd04c23a4fa3c72-cgu.0.rcgu.o)
 .rodata..Lanon.f5c1b2728a3d49275cd6fdb50aaed8e0.49
                0xffff80004024bbb9        0x1 bin/obj/rslib.a(core-dca77d77b03929cc.core.bbd04c23a4fa3c72-cgu.0.rcgu.o)
 *fill*         0xffff80004024bbba        0x6 
 .rodata..Lanon.f5c1b2728a3d49275cd6fdb50aaed8e0.50
                0xffff80004024bbc0       0x30 bin/obj/rslib.a(core-dca77d77b03929cc.core.bbd04c23a4fa3c72-cgu.0.rcgu.o)
 .rodata..Lanon.f5c1b2728a3d49275cd6fdb50aaed8e0.51
                0xffff80004024bbf0        0x3 bin/obj/rslib.a(core-dca77d77b03929cc.core.bbd04c23a4fa3c72-cgu.0.rcgu.o)
 .rodata..Lanon.f5c1b2728a3d49275cd6fdb50aaed8e0.52
                0xffff80004024bbf3        0x2 bin/obj/rslib.a(core-dca77d77b03929cc.core.bbd04c23a4fa3c72-cgu.0.rcgu.o)
 .rodata..Lanon.f5c1b2728a3d49275cd6fdb50aaed8e0.53
                0xffff80004024bbf5        0x3 bin/obj/rslib.a(core-dca77d77b03929cc.core.bbd04c23a4fa3c72-cgu.0.rcgu.o)
 .rodata..Lanon.f5c1b2728a3d49275cd6fdb50aaed8e0.54
                0xffff80004024bbf8        0x7 bin/obj/rslib.a(core-dca77d77b03929cc.core.bbd04c23a4fa3c72-cgu.0.rcgu.o)
 .rodata..Lanon.f5c1b2728a3d49275cd6fdb50aaed8e0.55
                0xffff80004024bbff        0x6 bin/obj/rslib.a(core-dca77d77b03929cc.core.bbd04c23a4fa3c72-cgu.0.rcgu.o)
 .rodata..Lanon.f5c1b2728a3d49275cd6fdb50aaed8e0.56
                0xffff80004024bc05        0x1 bin/obj/rslib.a(core-dca77d77b03929cc.core.bbd04c23a4fa3c72-cgu.0.rcgu.o)
 .rodata..Lanon.f5c1b2728a3d49275cd6fdb50aaed8e0.57
                0xffff80004024bc06        0x2 bin/obj/rslib.a(core-dca77d77b03929cc.core.bbd04c23a4fa3c72-cgu.0.rcgu.o)
 .rodata..Lanon.f5c1b2728a3d49275cd6fdb50aaed8e0.58
                0xffff80004024bc08        0x1 bin/obj/rslib.a(core-dca77d77b03929cc.core.bbd04c23a4fa3c72-cgu.0.rcgu.o)
 .rodata..Lanon.f5c1b2728a3d49275cd6fdb50aaed8e0.59
                0xffff80004024bc09        0x1 bin/obj/rslib.a(core-dca77d77b03929cc.core.bbd04c23a4fa3c72-cgu.0.rcgu.o)
 .rodata..Lanon.f5c1b2728a3d49275cd6fdb50aaed8e0.60
                0xffff80004024bc0a       0x2e bin/obj/rslib.a(core-dca77d77b03929cc.core.bbd04c23a4fa3c72-cgu.0.rcgu.o)
 .rodata..Lanon.f5c1b2728a3d49275cd6fdb50aaed8e0.61
                0xffff80004024bc38       0x10 bin/obj/rslib.a(core-dca77d77b03929cc.core.bbd04c23a4fa3c72-cgu.0.rcgu.o)
 .rodata..Lanon.f5c1b2728a3d49275cd6fdb50aaed8e0.63
                0xffff80004024bc48       0x18 bin/obj/rslib.a(core-dca77d77b03929cc.core.bbd04c23a4fa3c72-cgu.0.rcgu.o)
 .rodata..Lanon.f5c1b2728a3d49275cd6fdb50aaed8e0.64
                0xffff80004024bc60        0x3 bin/obj/rslib.a(core-dca77d77b03929cc.core.bbd04c23a4fa3c72-cgu.0.rcgu.o)
 .rodata..Lanon.f5c1b2728a3d49275cd6fdb50aaed8e0.65
                0xffff80004024bc63        0x5 bin/obj/rslib.a(core-dca77d77b03929cc.core.bbd04c23a4fa3c72-cgu.0.rcgu.o)
 .rodata..Lanon.f5c1b2728a3d49275cd6fdb50aaed8e0.66
                0xffff80004024bc68       0x2e bin/obj/rslib.a(core-dca77d77b03929cc.core.bbd04c23a4fa3c72-cgu.0.rcgu.o)
 *fill*         0xffff80004024bc96        0x2 
 .rodata..Lanon.f5c1b2728a3d49275cd6fdb50aaed8e0.67
                0xffff80004024bc98       0x10 bin/obj/rslib.a(core-dca77d77b03929cc.core.bbd04c23a4fa3c72-cgu.0.rcgu.o)
 .rodata..Lanon.f5c1b2728a3d49275cd6fdb50aaed8e0.68
                0xffff80004024bca8       0x18 bin/obj/rslib.a(core-dca77d77b03929cc.core.bbd04c23a4fa3c72-cgu.0.rcgu.o)
 .rodata..Lanon.f5c1b2728a3d49275cd6fdb50aaed8e0.69
                0xffff80004024bcc0       0x18 bin/obj/rslib.a(core-dca77d77b03929cc.core.bbd04c23a4fa3c72-cgu.0.rcgu.o)
 .rodata..Lanon.f5c1b2728a3d49275cd6fdb50aaed8e0.70
                0xffff80004024bcd8       0x46 bin/obj/rslib.a(core-dca77d77b03929cc.core.bbd04c23a4fa3c72-cgu.0.rcgu.o)
 *fill*         0xffff80004024bd1e        0x2 
 .rodata..Lanon.f5c1b2728a3d49275cd6fdb50aaed8e0.71
                0xffff80004024bd20       0x10 bin/obj/rslib.a(core-dca77d77b03929cc.core.bbd04c23a4fa3c72-cgu.0.rcgu.o)
 .rodata..Lanon.f5c1b2728a3d49275cd6fdb50aaed8e0.72
                0xffff80004024bd30       0x18 bin/obj/rslib.a(core-dca77d77b03929cc.core.bbd04c23a4fa3c72-cgu.0.rcgu.o)
 .rodata..Lanon.f5c1b2728a3d49275cd6fdb50aaed8e0.73
                0xffff80004024bd48        0x3 bin/obj/rslib.a(core-dca77d77b03929cc.core.bbd04c23a4fa3c72-cgu.0.rcgu.o)
 .rodata..Lanon.f5c1b2728a3d49275cd6fdb50aaed8e0.74
                0xffff80004024bd4b        0x5 bin/obj/rslib.a(core-dca77d77b03929cc.core.bbd04c23a4fa3c72-cgu.0.rcgu.o)
 .rodata..Lanon.f5c1b2728a3d49275cd6fdb50aaed8e0.75
                0xffff80004024bd50        0x1 bin/obj/rslib.a(core-dca77d77b03929cc.core.bbd04c23a4fa3c72-cgu.0.rcgu.o)
 .rodata..Lanon.f5c1b2728a3d49275cd6fdb50aaed8e0.76
                0xffff80004024bd51       0x40 bin/obj/rslib.a(core-dca77d77b03929cc.core.bbd04c23a4fa3c72-cgu.0.rcgu.o)
 *fill*         0xffff80004024bd91        0x7 
 .rodata..Lanon.f5c1b2728a3d49275cd6fdb50aaed8e0.77
                0xffff80004024bd98       0x18 bin/obj/rslib.a(core-dca77d77b03929cc.core.bbd04c23a4fa3c72-cgu.0.rcgu.o)
 .rodata..Lanon.f5c1b2728a3d49275cd6fdb50aaed8e0.78
                0xffff80004024bdb0       0x20 bin/obj/rslib.a(core-dca77d77b03929cc.core.bbd04c23a4fa3c72-cgu.0.rcgu.o)
 .rodata..Lanon.f5c1b2728a3d49275cd6fdb50aaed8e0.79
                0xffff80004024bdd0       0x18 bin/obj/rslib.a(core-dca77d77b03929cc.core.bbd04c23a4fa3c72-cgu.0.rcgu.o)
 .rodata..Lanon.f5c1b2728a3d49275cd6fdb50aaed8e0.80
                0xffff80004024bde8       0x21 bin/obj/rslib.a(core-dca77d77b03929cc.core.bbd04c23a4fa3c72-cgu.0.rcgu.o)
 .rodata..Lanon.f5c1b2728a3d49275cd6fdb50aaed8e0.81
                0xffff80004024be09       0x19 bin/obj/rslib.a(core-dca77d77b03929cc.core.bbd04c23a4fa3c72-cgu.0.rcgu.o)
 *fill*         0xffff80004024be22        0x6 
 .rodata..Lanon.f5c1b2728a3d49275cd6fdb50aaed8e0.82
                0xffff80004024be28       0x20 bin/obj/rslib.a(core-dca77d77b03929cc.core.bbd04c23a4fa3c72-cgu.0.rcgu.o)
 .rodata..Lanon.f5c1b2728a3d49275cd6fdb50aaed8e0.84
                0xffff80004024be48       0x18 bin/obj/rslib.a(core-dca77d77b03929cc.core.bbd04c23a4fa3c72-cgu.0.rcgu.o)
 .rodata..Lanon.f5c1b2728a3d49275cd6fdb50aaed8e0.85
                0xffff80004024be60       0x18 bin/obj/rslib.a(core-dca77d77b03929cc.core.bbd04c23a4fa3c72-cgu.0.rcgu.o)
 .rodata..Lanon.f5c1b2728a3d49275cd6fdb50aaed8e0.86
                0xffff80004024be78       0x18 bin/obj/rslib.a(core-dca77d77b03929cc.core.bbd04c23a4fa3c72-cgu.0.rcgu.o)
 .rodata..Lanon.f5c1b2728a3d49275cd6fdb50aaed8e0.87
                0xffff80004024be90       0x18 bin/obj/rslib.a(core-dca77d77b03929cc.core.bbd04c23a4fa3c72-cgu.0.rcgu.o)
 .rodata..Lanon.f5c1b2728a3d49275cd6fdb50aaed8e0.88
                0xffff80004024bea8       0x18 bin/obj/rslib.a(core-dca77d77b03929cc.core.bbd04c23a4fa3c72-cgu.0.rcgu.o)
 .rodata..Lanon.f5c1b2728a3d49275cd6fdb50aaed8e0.89
                0xffff80004024bec0       0x1c bin/obj/rslib.a(core-dca77d77b03929cc.core.bbd04c23a4fa3c72-cgu.0.rcgu.o)
 *fill*         0xffff80004024bedc        0x4 
 .rodata..Lanon.f5c1b2728a3d49275cd6fdb50aaed8e0.90
                0xffff80004024bee0       0x10 bin/obj/rslib.a(core-dca77d77b03929cc.core.bbd04c23a4fa3c72-cgu.0.rcgu.o)
 .rodata..Lanon.f5c1b2728a3d49275cd6fdb50aaed8e0.91
                0xffff80004024bef0       0x1f bin/obj/rslib.a(core-dca77d77b03929cc.core.bbd04c23a4fa3c72-cgu.0.rcgu.o)
 *fill*         0xffff80004024bf0f        0x1 
 .rodata..Lanon.f5c1b2728a3d49275cd6fdb50aaed8e0.92
                0xffff80004024bf10       0x10 bin/obj/rslib.a(core-dca77d77b03929cc.core.bbd04c23a4fa3c72-cgu.0.rcgu.o)
 .rodata..Lanon.f5c1b2728a3d49275cd6fdb50aaed8e0.93
                0xffff80004024bf20       0x21 bin/obj/rslib.a(core-dca77d77b03929cc.core.bbd04c23a4fa3c72-cgu.0.rcgu.o)
 *fill*         0xffff80004024bf41        0x7 
 .rodata..Lanon.f5c1b2728a3d49275cd6fdb50aaed8e0.94
                0xffff80004024bf48       0x10 bin/obj/rslib.a(core-dca77d77b03929cc.core.bbd04c23a4fa3c72-cgu.0.rcgu.o)
 .rodata..Lanon.f5c1b2728a3d49275cd6fdb50aaed8e0.95
                0xffff80004024bf58       0x1f bin/obj/rslib.a(core-dca77d77b03929cc.core.bbd04c23a4fa3c72-cgu.0.rcgu.o)
 *fill*         0xffff80004024bf77        0x1 
 .rodata..Lanon.f5c1b2728a3d49275cd6fdb50aaed8e0.96
                0xffff80004024bf78       0x10 bin/obj/rslib.a(core-dca77d77b03929cc.core.bbd04c23a4fa3c72-cgu.0.rcgu.o)
 .rodata..Lanon.f5c1b2728a3d49275cd6fdb50aaed8e0.97
                0xffff80004024bf88       0x30 bin/obj/rslib.a(core-dca77d77b03929cc.core.bbd04c23a4fa3c72-cgu.0.rcgu.o)
 .rodata..Lanon.f5c1b2728a3d49275cd6fdb50aaed8e0.98
                0xffff80004024bfb8       0x10 bin/obj/rslib.a(core-dca77d77b03929cc.core.bbd04c23a4fa3c72-cgu.0.rcgu.o)
 .rodata..Lanon.f5c1b2728a3d49275cd6fdb50aaed8e0.99
                0xffff80004024bfc8       0x23 bin/obj/rslib.a(core-dca77d77b03929cc.core.bbd04c23a4fa3c72-cgu.0.rcgu.o)
 *fill*         0xffff80004024bfeb        0x5 
 .rodata..Lanon.f5c1b2728a3d49275cd6fdb50aaed8e0.100
                0xffff80004024bff0       0x10 bin/obj/rslib.a(core-dca77d77b03929cc.core.bbd04c23a4fa3c72-cgu.0.rcgu.o)
 .rodata..Lanon.f5c1b2728a3d49275cd6fdb50aaed8e0.101
                0xffff80004024c000       0x24 bin/obj/rslib.a(core-dca77d77b03929cc.core.bbd04c23a4fa3c72-cgu.0.rcgu.o)
 *fill*         0xffff80004024c024        0x4 
 .rodata..Lanon.f5c1b2728a3d49275cd6fdb50aaed8e0.102
                0xffff80004024c028       0x10 bin/obj/rslib.a(core-dca77d77b03929cc.core.bbd04c23a4fa3c72-cgu.0.rcgu.o)
 .rodata..Lanon.f5c1b2728a3d49275cd6fdb50aaed8e0.103
                0xffff80004024c038       0x21 bin/obj/rslib.a(core-dca77d77b03929cc.core.bbd04c23a4fa3c72-cgu.0.rcgu.o)
 *fill*         0xffff80004024c059        0x7 
 .rodata..Lanon.f5c1b2728a3d49275cd6fdb50aaed8e0.104
                0xffff80004024c060       0x10 bin/obj/rslib.a(core-dca77d77b03929cc.core.bbd04c23a4fa3c72-cgu.0.rcgu.o)
 .rodata..Lanon.f5c1b2728a3d49275cd6fdb50aaed8e0.105
                0xffff80004024c070       0x40 bin/obj/rslib.a(core-dca77d77b03929cc.core.bbd04c23a4fa3c72-cgu.0.rcgu.o)
 .rodata..Lanon.f5c1b2728a3d49275cd6fdb50aaed8e0.106
                0xffff80004024c0b0       0x10 bin/obj/rslib.a(core-dca77d77b03929cc.core.bbd04c23a4fa3c72-cgu.0.rcgu.o)
 .rodata..Lanon.f5c1b2728a3d49275cd6fdb50aaed8e0.108
                0xffff80004024c0c0       0x18 bin/obj/rslib.a(core-dca77d77b03929cc.core.bbd04c23a4fa3c72-cgu.0.rcgu.o)
 .rodata..Lanon.f5c1b2728a3d49275cd6fdb50aaed8e0.109
                0xffff80004024c0d8       0x18 bin/obj/rslib.a(core-dca77d77b03929cc.core.bbd04c23a4fa3c72-cgu.0.rcgu.o)
 .rodata..Lanon.f5c1b2728a3d49275cd6fdb50aaed8e0.110
                0xffff80004024c0f0       0x18 bin/obj/rslib.a(core-dca77d77b03929cc.core.bbd04c23a4fa3c72-cgu.0.rcgu.o)
 .rodata..Lanon.f5c1b2728a3d49275cd6fdb50aaed8e0.111
                0xffff80004024c108       0x18 bin/obj/rslib.a(core-dca77d77b03929cc.core.bbd04c23a4fa3c72-cgu.0.rcgu.o)
 .rodata..Lanon.f5c1b2728a3d49275cd6fdb50aaed8e0.112
                0xffff80004024c120       0x1b bin/obj/rslib.a(core-dca77d77b03929cc.core.bbd04c23a4fa3c72-cgu.0.rcgu.o)
 .rodata..Lanon.f5c1b2728a3d49275cd6fdb50aaed8e0.113
                0xffff80004024c13b       0x1a bin/obj/rslib.a(core-dca77d77b03929cc.core.bbd04c23a4fa3c72-cgu.0.rcgu.o)
 .rodata..Lanon.f5c1b2728a3d49275cd6fdb50aaed8e0.114
                0xffff80004024c155       0x1c bin/obj/rslib.a(core-dca77d77b03929cc.core.bbd04c23a4fa3c72-cgu.0.rcgu.o)
 *fill*         0xffff80004024c171        0x7 
 .rodata..Lanon.f5c1b2728a3d49275cd6fdb50aaed8e0.115
                0xffff80004024c178       0x18 bin/obj/rslib.a(core-dca77d77b03929cc.core.bbd04c23a4fa3c72-cgu.0.rcgu.o)
 .rodata..Lanon.f5c1b2728a3d49275cd6fdb50aaed8e0.116
                0xffff80004024c190       0x1d bin/obj/rslib.a(core-dca77d77b03929cc.core.bbd04c23a4fa3c72-cgu.0.rcgu.o)
 *fill*         0xffff80004024c1ad        0x3 
 .rodata..Lanon.f5c1b2728a3d49275cd6fdb50aaed8e0.118
                0xffff80004024c1b0       0x18 bin/obj/rslib.a(core-dca77d77b03929cc.core.bbd04c23a4fa3c72-cgu.0.rcgu.o)
 .rodata..Lanon.f5c1b2728a3d49275cd6fdb50aaed8e0.119
                0xffff80004024c1c8       0x18 bin/obj/rslib.a(core-dca77d77b03929cc.core.bbd04c23a4fa3c72-cgu.0.rcgu.o)
 .rodata..Lanon.f5c1b2728a3d49275cd6fdb50aaed8e0.120
                0xffff80004024c1e0       0x18 bin/obj/rslib.a(core-dca77d77b03929cc.core.bbd04c23a4fa3c72-cgu.0.rcgu.o)
 .rodata..Lanon.f5c1b2728a3d49275cd6fdb50aaed8e0.121
                0xffff80004024c1f8       0x18 bin/obj/rslib.a(core-dca77d77b03929cc.core.bbd04c23a4fa3c72-cgu.0.rcgu.o)
 .rodata..Lanon.f5c1b2728a3d49275cd6fdb50aaed8e0.122
                0xffff80004024c210       0x18 bin/obj/rslib.a(core-dca77d77b03929cc.core.bbd04c23a4fa3c72-cgu.0.rcgu.o)
 .rodata..Lanon.f5c1b2728a3d49275cd6fdb50aaed8e0.123
                0xffff80004024c228       0x18 bin/obj/rslib.a(core-dca77d77b03929cc.core.bbd04c23a4fa3c72-cgu.0.rcgu.o)
 .rodata..Lanon.f5c1b2728a3d49275cd6fdb50aaed8e0.124
                0xffff80004024c240       0x82 bin/obj/rslib.a(core-dca77d77b03929cc.core.bbd04c23a4fa3c72-cgu.0.rcgu.o)
 .rodata..Lanon.f5c1b2728a3d49275cd6fdb50aaed8e0.125
                0xffff80004024c2c2      0x51c bin/obj/rslib.a(core-dca77d77b03929cc.core.bbd04c23a4fa3c72-cgu.0.rcgu.o)
 *fill*         0xffff80004024c7de        0x2 
 .rodata..Lanon.f5c1b2728a3d49275cd6fdb50aaed8e0.126
                0xffff80004024c7e0       0x18 bin/obj/rslib.a(core-dca77d77b03929cc.core.bbd04c23a4fa3c72-cgu.0.rcgu.o)
 .rodata..Lanon.f5c1b2728a3d49275cd6fdb50aaed8e0.127
                0xffff80004024c7f8       0x18 bin/obj/rslib.a(core-dca77d77b03929cc.core.bbd04c23a4fa3c72-cgu.0.rcgu.o)
 .rodata..Lanon.f5c1b2728a3d49275cd6fdb50aaed8e0.128
                0xffff80004024c810       0x13 bin/obj/rslib.a(core-dca77d77b03929cc.core.bbd04c23a4fa3c72-cgu.0.rcgu.o)
 *fill*         0xffff80004024c823        0x5 
 .rodata..Lanon.f5c1b2728a3d49275cd6fdb50aaed8e0.130
                0xffff80004024c828       0x18 bin/obj/rslib.a(core-dca77d77b03929cc.core.bbd04c23a4fa3c72-cgu.0.rcgu.o)
 .rodata._ZN4core3num7dec2flt5table17POWER_OF_FIVE_12817h18673f325556fc0aE
                0xffff80004024c840     0x28b0 bin/obj/rslib.a(core-dca77d77b03929cc.core.bbd04c23a4fa3c72-cgu.0.rcgu.o)
 .rodata..Lanon.f5c1b2728a3d49275cd6fdb50aaed8e0.132
                0xffff80004024f0f0       0x18 bin/obj/rslib.a(core-dca77d77b03929cc.core.bbd04c23a4fa3c72-cgu.0.rcgu.o)
 .rodata..Lanon.f5c1b2728a3d49275cd6fdb50aaed8e0.133
                0xffff80004024f108       0x80 bin/obj/rslib.a(core-dca77d77b03929cc.core.bbd04c23a4fa3c72-cgu.0.rcgu.o)
 .rodata..Lanon.f5c1b2728a3d49275cd6fdb50aaed8e0.134
                0xffff80004024f188       0x22 bin/obj/rslib.a(core-dca77d77b03929cc.core.bbd04c23a4fa3c72-cgu.0.rcgu.o)
 .rodata..Lanon.f5c1b2728a3d49275cd6fdb50aaed8e0.136
                0xffff80004024f1aa       0x2d bin/obj/rslib.a(core-dca77d77b03929cc.core.bbd04c23a4fa3c72-cgu.0.rcgu.o)
 .rodata..Lanon.f5c1b2728a3d49275cd6fdb50aaed8e0.137
                0xffff80004024f1d7        0x3 bin/obj/rslib.a(core-dca77d77b03929cc.core.bbd04c23a4fa3c72-cgu.0.rcgu.o)
 .rodata..Lanon.f5c1b2728a3d49275cd6fdb50aaed8e0.138
                0xffff80004024f1da        0x3 bin/obj/rslib.a(core-dca77d77b03929cc.core.bbd04c23a4fa3c72-cgu.0.rcgu.o)
 .rodata..Lanon.f5c1b2728a3d49275cd6fdb50aaed8e0.139
                0xffff80004024f1dd        0x2 bin/obj/rslib.a(core-dca77d77b03929cc.core.bbd04c23a4fa3c72-cgu.0.rcgu.o)
 .rodata..Lanon.f5c1b2728a3d49275cd6fdb50aaed8e0.140
                0xffff80004024f1df       0x22 bin/obj/rslib.a(core-dca77d77b03929cc.core.bbd04c23a4fa3c72-cgu.0.rcgu.o)
 .rodata..Lanon.f5c1b2728a3d49275cd6fdb50aaed8e0.141
                0xffff80004024f201       0x1d bin/obj/rslib.a(core-dca77d77b03929cc.core.bbd04c23a4fa3c72-cgu.0.rcgu.o)
 *fill*         0xffff80004024f21e        0x2 
 .rodata..Lanon.f5c1b2728a3d49275cd6fdb50aaed8e0.142
                0xffff80004024f220       0x18 bin/obj/rslib.a(core-dca77d77b03929cc.core.bbd04c23a4fa3c72-cgu.0.rcgu.o)
 .rodata..Lanon.f5c1b2728a3d49275cd6fdb50aaed8e0.143
                0xffff80004024f238        0x3 bin/obj/rslib.a(core-dca77d77b03929cc.core.bbd04c23a4fa3c72-cgu.0.rcgu.o)
 .rodata..Lanon.f5c1b2728a3d49275cd6fdb50aaed8e0.144
                0xffff80004024f23b        0x3 bin/obj/rslib.a(core-dca77d77b03929cc.core.bbd04c23a4fa3c72-cgu.0.rcgu.o)
 .rodata..Lanon.f5c1b2728a3d49275cd6fdb50aaed8e0.145
                0xffff80004024f23e        0x2 bin/obj/rslib.a(core-dca77d77b03929cc.core.bbd04c23a4fa3c72-cgu.0.rcgu.o)
 .rodata..Lanon.f5c1b2728a3d49275cd6fdb50aaed8e0.146
                0xffff80004024f240        0x2 bin/obj/rslib.a(core-dca77d77b03929cc.core.bbd04c23a4fa3c72-cgu.0.rcgu.o)
 .rodata..Lanon.f5c1b2728a3d49275cd6fdb50aaed8e0.147
                0xffff80004024f242       0x3d bin/obj/rslib.a(core-dca77d77b03929cc.core.bbd04c23a4fa3c72-cgu.0.rcgu.o)
 *fill*         0xffff80004024f27f        0x1 
 .rodata..Lanon.f5c1b2728a3d49275cd6fdb50aaed8e0.148
                0xffff80004024f280       0x18 bin/obj/rslib.a(core-dca77d77b03929cc.core.bbd04c23a4fa3c72-cgu.0.rcgu.o)
 .rodata..Lanon.f5c1b2728a3d49275cd6fdb50aaed8e0.149
                0xffff80004024f298       0x18 bin/obj/rslib.a(core-dca77d77b03929cc.core.bbd04c23a4fa3c72-cgu.0.rcgu.o)
 .rodata..Lanon.f5c1b2728a3d49275cd6fdb50aaed8e0.150
                0xffff80004024f2b0       0x21 bin/obj/rslib.a(core-dca77d77b03929cc.core.bbd04c23a4fa3c72-cgu.0.rcgu.o)
 *fill*         0xffff80004024f2d1        0x7 
 .rodata..Lanon.f5c1b2728a3d49275cd6fdb50aaed8e0.151
                0xffff80004024f2d8       0x18 bin/obj/rslib.a(core-dca77d77b03929cc.core.bbd04c23a4fa3c72-cgu.0.rcgu.o)
 .rodata..Lanon.f5c1b2728a3d49275cd6fdb50aaed8e0.152
                0xffff80004024f2f0       0x1f bin/obj/rslib.a(core-dca77d77b03929cc.core.bbd04c23a4fa3c72-cgu.0.rcgu.o)
 *fill*         0xffff80004024f30f        0x1 
 .rodata..Lanon.f5c1b2728a3d49275cd6fdb50aaed8e0.153
                0xffff80004024f310       0x18 bin/obj/rslib.a(core-dca77d77b03929cc.core.bbd04c23a4fa3c72-cgu.0.rcgu.o)
 .rodata..Lanon.f5c1b2728a3d49275cd6fdb50aaed8e0.154
                0xffff80004024f328       0x18 bin/obj/rslib.a(core-dca77d77b03929cc.core.bbd04c23a4fa3c72-cgu.0.rcgu.o)
 .rodata..Lanon.f5c1b2728a3d49275cd6fdb50aaed8e0.155
                0xffff80004024f340       0x18 bin/obj/rslib.a(core-dca77d77b03929cc.core.bbd04c23a4fa3c72-cgu.0.rcgu.o)
 .rodata..Lanon.f5c1b2728a3d49275cd6fdb50aaed8e0.156
                0xffff80004024f358       0x18 bin/obj/rslib.a(core-dca77d77b03929cc.core.bbd04c23a4fa3c72-cgu.0.rcgu.o)
 .rodata..Lanon.f5c1b2728a3d49275cd6fdb50aaed8e0.157
                0xffff80004024f370       0x18 bin/obj/rslib.a(core-dca77d77b03929cc.core.bbd04c23a4fa3c72-cgu.0.rcgu.o)
 .rodata..Lanon.f5c1b2728a3d49275cd6fdb50aaed8e0.158
                0xffff80004024f388        0x1 bin/obj/rslib.a(core-dca77d77b03929cc.core.bbd04c23a4fa3c72-cgu.0.rcgu.o)
 .rodata..Lanon.f5c1b2728a3d49275cd6fdb50aaed8e0.159
                0xffff80004024f389        0x1 bin/obj/rslib.a(core-dca77d77b03929cc.core.bbd04c23a4fa3c72-cgu.0.rcgu.o)
 .rodata..Lanon.f5c1b2728a3d49275cd6fdb50aaed8e0.160
                0xffff80004024f38a        0x2 bin/obj/rslib.a(core-dca77d77b03929cc.core.bbd04c23a4fa3c72-cgu.0.rcgu.o)
 .rodata..Lanon.f5c1b2728a3d49275cd6fdb50aaed8e0.161
                0xffff80004024f38c        0x2 bin/obj/rslib.a(core-dca77d77b03929cc.core.bbd04c23a4fa3c72-cgu.0.rcgu.o)
 .rodata..Lanon.f5c1b2728a3d49275cd6fdb50aaed8e0.162
                0xffff80004024f38e       0x25 bin/obj/rslib.a(core-dca77d77b03929cc.core.bbd04c23a4fa3c72-cgu.0.rcgu.o)
 *fill*         0xffff80004024f3b3        0x5 
 .rodata..Lanon.f5c1b2728a3d49275cd6fdb50aaed8e0.163
                0xffff80004024f3b8       0x18 bin/obj/rslib.a(core-dca77d77b03929cc.core.bbd04c23a4fa3c72-cgu.0.rcgu.o)
 .rodata..Lanon.f5c1b2728a3d49275cd6fdb50aaed8e0.164
                0xffff80004024f3d0       0x18 bin/obj/rslib.a(core-dca77d77b03929cc.core.bbd04c23a4fa3c72-cgu.0.rcgu.o)
 .rodata._ZN4core3num7flt2dec8strategy5grisu12CACHED_POW1017hcf67db5dacd374a4E
                0xffff80004024f3e8      0x510 bin/obj/rslib.a(core-dca77d77b03929cc.core.bbd04c23a4fa3c72-cgu.0.rcgu.o)
                0xffff80004024f3e8                core::num::flt2dec::strategy::grisu::CACHED_POW10
 .rodata..Lanon.f5c1b2728a3d49275cd6fdb50aaed8e0.166
                0xffff80004024f8f8       0x18 bin/obj/rslib.a(core-dca77d77b03929cc.core.bbd04c23a4fa3c72-cgu.0.rcgu.o)
 .rodata..Lanon.f5c1b2728a3d49275cd6fdb50aaed8e0.167
                0xffff80004024f910       0x18 bin/obj/rslib.a(core-dca77d77b03929cc.core.bbd04c23a4fa3c72-cgu.0.rcgu.o)
 .rodata..Lanon.f5c1b2728a3d49275cd6fdb50aaed8e0.168
                0xffff80004024f928       0x18 bin/obj/rslib.a(core-dca77d77b03929cc.core.bbd04c23a4fa3c72-cgu.0.rcgu.o)
 .rodata..Lanon.f5c1b2728a3d49275cd6fdb50aaed8e0.169
                0xffff80004024f940       0x18 bin/obj/rslib.a(core-dca77d77b03929cc.core.bbd04c23a4fa3c72-cgu.0.rcgu.o)
 .rodata..Lanon.f5c1b2728a3d49275cd6fdb50aaed8e0.170
                0xffff80004024f958       0x1c bin/obj/rslib.a(core-dca77d77b03929cc.core.bbd04c23a4fa3c72-cgu.0.rcgu.o)
 *fill*         0xffff80004024f974        0x4 
 .rodata..Lanon.f5c1b2728a3d49275cd6fdb50aaed8e0.171
                0xffff80004024f978       0x18 bin/obj/rslib.a(core-dca77d77b03929cc.core.bbd04c23a4fa3c72-cgu.0.rcgu.o)
 .rodata..Lanon.f5c1b2728a3d49275cd6fdb50aaed8e0.172
                0xffff80004024f990       0x24 bin/obj/rslib.a(core-dca77d77b03929cc.core.bbd04c23a4fa3c72-cgu.0.rcgu.o)
 *fill*         0xffff80004024f9b4        0x4 
 .rodata..Lanon.f5c1b2728a3d49275cd6fdb50aaed8e0.173
                0xffff80004024f9b8       0x18 bin/obj/rslib.a(core-dca77d77b03929cc.core.bbd04c23a4fa3c72-cgu.0.rcgu.o)
 .rodata..Lanon.f5c1b2728a3d49275cd6fdb50aaed8e0.174
                0xffff80004024f9d0       0x18 bin/obj/rslib.a(core-dca77d77b03929cc.core.bbd04c23a4fa3c72-cgu.0.rcgu.o)
 .rodata..Lanon.f5c1b2728a3d49275cd6fdb50aaed8e0.176
                0xffff80004024f9e8       0x18 bin/obj/rslib.a(core-dca77d77b03929cc.core.bbd04c23a4fa3c72-cgu.0.rcgu.o)
 .rodata..Lanon.f5c1b2728a3d49275cd6fdb50aaed8e0.177
                0xffff80004024fa00       0x18 bin/obj/rslib.a(core-dca77d77b03929cc.core.bbd04c23a4fa3c72-cgu.0.rcgu.o)
 .rodata..Lanon.f5c1b2728a3d49275cd6fdb50aaed8e0.178
                0xffff80004024fa18       0x18 bin/obj/rslib.a(core-dca77d77b03929cc.core.bbd04c23a4fa3c72-cgu.0.rcgu.o)
 .rodata..Lanon.f5c1b2728a3d49275cd6fdb50aaed8e0.179
                0xffff80004024fa30       0x18 bin/obj/rslib.a(core-dca77d77b03929cc.core.bbd04c23a4fa3c72-cgu.0.rcgu.o)
 .rodata..Lanon.f5c1b2728a3d49275cd6fdb50aaed8e0.180
                0xffff80004024fa48       0x1d bin/obj/rslib.a(core-dca77d77b03929cc.core.bbd04c23a4fa3c72-cgu.0.rcgu.o)
 *fill*         0xffff80004024fa65        0x3 
 .rodata..Lanon.f5c1b2728a3d49275cd6fdb50aaed8e0.181
                0xffff80004024fa68       0x18 bin/obj/rslib.a(core-dca77d77b03929cc.core.bbd04c23a4fa3c72-cgu.0.rcgu.o)
 .rodata..Lanon.f5c1b2728a3d49275cd6fdb50aaed8e0.182
                0xffff80004024fa80       0x1c bin/obj/rslib.a(core-dca77d77b03929cc.core.bbd04c23a4fa3c72-cgu.0.rcgu.o)
 *fill*         0xffff80004024fa9c        0x4 
 .rodata..Lanon.f5c1b2728a3d49275cd6fdb50aaed8e0.183
                0xffff80004024faa0       0x18 bin/obj/rslib.a(core-dca77d77b03929cc.core.bbd04c23a4fa3c72-cgu.0.rcgu.o)
 .rodata..Lanon.f5c1b2728a3d49275cd6fdb50aaed8e0.184
                0xffff80004024fab8       0x18 bin/obj/rslib.a(core-dca77d77b03929cc.core.bbd04c23a4fa3c72-cgu.0.rcgu.o)
 .rodata..Lanon.f5c1b2728a3d49275cd6fdb50aaed8e0.185
                0xffff80004024fad0       0x2d bin/obj/rslib.a(core-dca77d77b03929cc.core.bbd04c23a4fa3c72-cgu.0.rcgu.o)
 *fill*         0xffff80004024fafd        0x3 
 .rodata..Lanon.f5c1b2728a3d49275cd6fdb50aaed8e0.186
                0xffff80004024fb00       0x18 bin/obj/rslib.a(core-dca77d77b03929cc.core.bbd04c23a4fa3c72-cgu.0.rcgu.o)
 .rodata..Lanon.f5c1b2728a3d49275cd6fdb50aaed8e0.187
                0xffff80004024fb18       0x18 bin/obj/rslib.a(core-dca77d77b03929cc.core.bbd04c23a4fa3c72-cgu.0.rcgu.o)
 .rodata..Lanon.f5c1b2728a3d49275cd6fdb50aaed8e0.188
                0xffff80004024fb30       0x18 bin/obj/rslib.a(core-dca77d77b03929cc.core.bbd04c23a4fa3c72-cgu.0.rcgu.o)
 .rodata..Lanon.f5c1b2728a3d49275cd6fdb50aaed8e0.189
                0xffff80004024fb48       0x18 bin/obj/rslib.a(core-dca77d77b03929cc.core.bbd04c23a4fa3c72-cgu.0.rcgu.o)
 .rodata..Lanon.f5c1b2728a3d49275cd6fdb50aaed8e0.190
                0xffff80004024fb60       0x37 bin/obj/rslib.a(core-dca77d77b03929cc.core.bbd04c23a4fa3c72-cgu.0.rcgu.o)
 *fill*         0xffff80004024fb97        0x1 
 .rodata..Lanon.f5c1b2728a3d49275cd6fdb50aaed8e0.191
                0xffff80004024fb98       0x18 bin/obj/rslib.a(core-dca77d77b03929cc.core.bbd04c23a4fa3c72-cgu.0.rcgu.o)
 .rodata..Lanon.f5c1b2728a3d49275cd6fdb50aaed8e0.192
                0xffff80004024fbb0       0x36 bin/obj/rslib.a(core-dca77d77b03929cc.core.bbd04c23a4fa3c72-cgu.0.rcgu.o)
 *fill*         0xffff80004024fbe6        0x2 
 .rodata..Lanon.f5c1b2728a3d49275cd6fdb50aaed8e0.193
                0xffff80004024fbe8       0x18 bin/obj/rslib.a(core-dca77d77b03929cc.core.bbd04c23a4fa3c72-cgu.0.rcgu.o)
 .rodata..Lanon.f5c1b2728a3d49275cd6fdb50aaed8e0.195
                0xffff80004024fc00       0x18 bin/obj/rslib.a(core-dca77d77b03929cc.core.bbd04c23a4fa3c72-cgu.0.rcgu.o)
 .rodata..Lanon.f5c1b2728a3d49275cd6fdb50aaed8e0.196
                0xffff80004024fc18       0x18 bin/obj/rslib.a(core-dca77d77b03929cc.core.bbd04c23a4fa3c72-cgu.0.rcgu.o)
 .rodata..Lanon.f5c1b2728a3d49275cd6fdb50aaed8e0.197
                0xffff80004024fc30       0x18 bin/obj/rslib.a(core-dca77d77b03929cc.core.bbd04c23a4fa3c72-cgu.0.rcgu.o)
 .rodata..Lanon.f5c1b2728a3d49275cd6fdb50aaed8e0.198
                0xffff80004024fc48       0x18 bin/obj/rslib.a(core-dca77d77b03929cc.core.bbd04c23a4fa3c72-cgu.0.rcgu.o)
 .rodata..Lanon.f5c1b2728a3d49275cd6fdb50aaed8e0.199
                0xffff80004024fc60       0x18 bin/obj/rslib.a(core-dca77d77b03929cc.core.bbd04c23a4fa3c72-cgu.0.rcgu.o)
 .rodata..Lanon.f5c1b2728a3d49275cd6fdb50aaed8e0.200
                0xffff80004024fc78       0x18 bin/obj/rslib.a(core-dca77d77b03929cc.core.bbd04c23a4fa3c72-cgu.0.rcgu.o)
 .rodata..Lanon.f5c1b2728a3d49275cd6fdb50aaed8e0.201
                0xffff80004024fc90       0x18 bin/obj/rslib.a(core-dca77d77b03929cc.core.bbd04c23a4fa3c72-cgu.0.rcgu.o)
 .rodata..Lanon.f5c1b2728a3d49275cd6fdb50aaed8e0.202
                0xffff80004024fca8       0x18 bin/obj/rslib.a(core-dca77d77b03929cc.core.bbd04c23a4fa3c72-cgu.0.rcgu.o)
 .rodata..Lanon.f5c1b2728a3d49275cd6fdb50aaed8e0.203
                0xffff80004024fcc0       0x18 bin/obj/rslib.a(core-dca77d77b03929cc.core.bbd04c23a4fa3c72-cgu.0.rcgu.o)
 .rodata..Lanon.f5c1b2728a3d49275cd6fdb50aaed8e0.204
                0xffff80004024fcd8       0x18 bin/obj/rslib.a(core-dca77d77b03929cc.core.bbd04c23a4fa3c72-cgu.0.rcgu.o)
 .rodata..Lanon.f5c1b2728a3d49275cd6fdb50aaed8e0.205
                0xffff80004024fcf0       0x18 bin/obj/rslib.a(core-dca77d77b03929cc.core.bbd04c23a4fa3c72-cgu.0.rcgu.o)
 .rodata..Lanon.f5c1b2728a3d49275cd6fdb50aaed8e0.206
                0xffff80004024fd08       0x18 bin/obj/rslib.a(core-dca77d77b03929cc.core.bbd04c23a4fa3c72-cgu.0.rcgu.o)
 .rodata..Lanon.f5c1b2728a3d49275cd6fdb50aaed8e0.207
                0xffff80004024fd20       0x18 bin/obj/rslib.a(core-dca77d77b03929cc.core.bbd04c23a4fa3c72-cgu.0.rcgu.o)
 .rodata..Lanon.f5c1b2728a3d49275cd6fdb50aaed8e0.208
                0xffff80004024fd38       0x18 bin/obj/rslib.a(core-dca77d77b03929cc.core.bbd04c23a4fa3c72-cgu.0.rcgu.o)
 .rodata..Lanon.f5c1b2728a3d49275cd6fdb50aaed8e0.209
                0xffff80004024fd50       0x18 bin/obj/rslib.a(core-dca77d77b03929cc.core.bbd04c23a4fa3c72-cgu.0.rcgu.o)
 .rodata..Lanon.f5c1b2728a3d49275cd6fdb50aaed8e0.210
                0xffff80004024fd68       0x18 bin/obj/rslib.a(core-dca77d77b03929cc.core.bbd04c23a4fa3c72-cgu.0.rcgu.o)
 .rodata..Lanon.f5c1b2728a3d49275cd6fdb50aaed8e0.211
                0xffff80004024fd80       0x18 bin/obj/rslib.a(core-dca77d77b03929cc.core.bbd04c23a4fa3c72-cgu.0.rcgu.o)
 .rodata..Lanon.f5c1b2728a3d49275cd6fdb50aaed8e0.212
                0xffff80004024fd98       0x18 bin/obj/rslib.a(core-dca77d77b03929cc.core.bbd04c23a4fa3c72-cgu.0.rcgu.o)
 .rodata..Lanon.f5c1b2728a3d49275cd6fdb50aaed8e0.213
                0xffff80004024fdb0       0x18 bin/obj/rslib.a(core-dca77d77b03929cc.core.bbd04c23a4fa3c72-cgu.0.rcgu.o)
 .rodata._ZN4core3num7flt2dec8strategy6dragon5POW1017h5f5d559c8bd8b44fE
                0xffff80004024fdc8       0x28 bin/obj/rslib.a(core-dca77d77b03929cc.core.bbd04c23a4fa3c72-cgu.0.rcgu.o)
 .rodata._ZN4core3num7flt2dec8strategy6dragon8POW5TO1617h2fd5bfb1d80454daE
                0xffff80004024fdf0        0x8 bin/obj/rslib.a(core-dca77d77b03929cc.core.bbd04c23a4fa3c72-cgu.0.rcgu.o)
 .rodata._ZN4core3num7flt2dec8strategy6dragon8POW5TO3217h81321867817768eeE
                0xffff80004024fdf8        0xc bin/obj/rslib.a(core-dca77d77b03929cc.core.bbd04c23a4fa3c72-cgu.0.rcgu.o)
 .rodata._ZN4core3num7flt2dec8strategy6dragon8POW5TO6417h9d87f63fe8e9f23eE
                0xffff80004024fe04       0x14 bin/obj/rslib.a(core-dca77d77b03929cc.core.bbd04c23a4fa3c72-cgu.0.rcgu.o)
 .rodata._ZN4core3num7flt2dec8strategy6dragon9POW5TO12817h20e8ea28ab25cbb4E
                0xffff80004024fe18       0x28 bin/obj/rslib.a(core-dca77d77b03929cc.core.bbd04c23a4fa3c72-cgu.0.rcgu.o)
 .rodata._ZN4core3num7flt2dec8strategy6dragon9POW5TO25617h4074b8ecbdf1ee4bE
                0xffff80004024fe40       0x4c bin/obj/rslib.a(core-dca77d77b03929cc.core.bbd04c23a4fa3c72-cgu.0.rcgu.o)
 .rodata..Lanon.f5c1b2728a3d49275cd6fdb50aaed8e0.214
                0xffff80004024fe8c       0x32 bin/obj/rslib.a(core-dca77d77b03929cc.core.bbd04c23a4fa3c72-cgu.0.rcgu.o)
 *fill*         0xffff80004024febe        0x2 
 .rodata..Lanon.f5c1b2728a3d49275cd6fdb50aaed8e0.215
                0xffff80004024fec0       0x10 bin/obj/rslib.a(core-dca77d77b03929cc.core.bbd04c23a4fa3c72-cgu.0.rcgu.o)
 .rodata..Lanon.f5c1b2728a3d49275cd6fdb50aaed8e0.216
                0xffff80004024fed0       0x1d bin/obj/rslib.a(core-dca77d77b03929cc.core.bbd04c23a4fa3c72-cgu.0.rcgu.o)
 *fill*         0xffff80004024feed        0x3 
 .rodata..Lanon.f5c1b2728a3d49275cd6fdb50aaed8e0.218
                0xffff80004024fef0       0x18 bin/obj/rslib.a(core-dca77d77b03929cc.core.bbd04c23a4fa3c72-cgu.0.rcgu.o)
 .rodata..Lanon.f5c1b2728a3d49275cd6fdb50aaed8e0.219
                0xffff80004024ff08       0x18 bin/obj/rslib.a(core-dca77d77b03929cc.core.bbd04c23a4fa3c72-cgu.0.rcgu.o)
 .rodata..Lanon.f5c1b2728a3d49275cd6fdb50aaed8e0.220
                0xffff80004024ff20       0x2e bin/obj/rslib.a(core-dca77d77b03929cc.core.bbd04c23a4fa3c72-cgu.0.rcgu.o)
 *fill*         0xffff80004024ff4e        0x2 
 .rodata..Lanon.f5c1b2728a3d49275cd6fdb50aaed8e0.221
                0xffff80004024ff50       0x10 bin/obj/rslib.a(core-dca77d77b03929cc.core.bbd04c23a4fa3c72-cgu.0.rcgu.o)
 .rodata..Lanon.f5c1b2728a3d49275cd6fdb50aaed8e0.222
                0xffff80004024ff60      0x100 bin/obj/rslib.a(core-dca77d77b03929cc.core.bbd04c23a4fa3c72-cgu.0.rcgu.o)
 .rodata..Lanon.f5c1b2728a3d49275cd6fdb50aaed8e0.223
                0xffff800040250060       0x16 bin/obj/rslib.a(core-dca77d77b03929cc.core.bbd04c23a4fa3c72-cgu.0.rcgu.o)
 *fill*         0xffff800040250076        0x2 
 .rodata..Lanon.f5c1b2728a3d49275cd6fdb50aaed8e0.224
                0xffff800040250078       0x10 bin/obj/rslib.a(core-dca77d77b03929cc.core.bbd04c23a4fa3c72-cgu.0.rcgu.o)
 .rodata..Lanon.f5c1b2728a3d49275cd6fdb50aaed8e0.225
                0xffff800040250088        0x5 bin/obj/rslib.a(core-dca77d77b03929cc.core.bbd04c23a4fa3c72-cgu.0.rcgu.o)
 .rodata..Lanon.f5c1b2728a3d49275cd6fdb50aaed8e0.226
                0xffff80004025008d        0xe bin/obj/rslib.a(core-dca77d77b03929cc.core.bbd04c23a4fa3c72-cgu.0.rcgu.o)
 .rodata..Lanon.f5c1b2728a3d49275cd6fdb50aaed8e0.229
                0xffff80004025009b        0x1 bin/obj/rslib.a(core-dca77d77b03929cc.core.bbd04c23a4fa3c72-cgu.0.rcgu.o)
 *fill*         0xffff80004025009c        0x4 
 .rodata..Lanon.f5c1b2728a3d49275cd6fdb50aaed8e0.230
                0xffff8000402500a0       0x40 bin/obj/rslib.a(core-dca77d77b03929cc.core.bbd04c23a4fa3c72-cgu.0.rcgu.o)
 .rodata..Lanon.f5c1b2728a3d49275cd6fdb50aaed8e0.231
                0xffff8000402500e0        0xb bin/obj/rslib.a(core-dca77d77b03929cc.core.bbd04c23a4fa3c72-cgu.0.rcgu.o)
 .rodata..Lanon.f5c1b2728a3d49275cd6fdb50aaed8e0.232
                0xffff8000402500eb       0x26 bin/obj/rslib.a(core-dca77d77b03929cc.core.bbd04c23a4fa3c72-cgu.0.rcgu.o)
 .rodata..Lanon.f5c1b2728a3d49275cd6fdb50aaed8e0.234
                0xffff800040250111        0x6 bin/obj/rslib.a(core-dca77d77b03929cc.core.bbd04c23a4fa3c72-cgu.0.rcgu.o)
 *fill*         0xffff800040250117        0x1 
 .rodata..Lanon.f5c1b2728a3d49275cd6fdb50aaed8e0.235
                0xffff800040250118       0x50 bin/obj/rslib.a(core-dca77d77b03929cc.core.bbd04c23a4fa3c72-cgu.0.rcgu.o)
 .rodata..Lanon.f5c1b2728a3d49275cd6fdb50aaed8e0.236
                0xffff800040250168       0x16 bin/obj/rslib.a(core-dca77d77b03929cc.core.bbd04c23a4fa3c72-cgu.0.rcgu.o)
 *fill*         0xffff80004025017e        0x2 
 .rodata..Lanon.f5c1b2728a3d49275cd6fdb50aaed8e0.237
                0xffff800040250180       0x30 bin/obj/rslib.a(core-dca77d77b03929cc.core.bbd04c23a4fa3c72-cgu.0.rcgu.o)
 .rodata..Lanon.f5c1b2728a3d49275cd6fdb50aaed8e0.238
                0xffff8000402501b0       0x2a bin/obj/rslib.a(core-dca77d77b03929cc.core.bbd04c23a4fa3c72-cgu.0.rcgu.o)
 *fill*         0xffff8000402501da        0x6 
 .rodata..Lanon.f5c1b2728a3d49275cd6fdb50aaed8e0.239
                0xffff8000402501e0       0x10 bin/obj/rslib.a(core-dca77d77b03929cc.core.bbd04c23a4fa3c72-cgu.0.rcgu.o)
 .rodata..Lanon.f5c1b2728a3d49275cd6fdb50aaed8e0.241
                0xffff8000402501f0       0x18 bin/obj/rslib.a(core-dca77d77b03929cc.core.bbd04c23a4fa3c72-cgu.0.rcgu.o)
 .rodata..Lanon.f5c1b2728a3d49275cd6fdb50aaed8e0.242
                0xffff800040250208       0x18 bin/obj/rslib.a(core-dca77d77b03929cc.core.bbd04c23a4fa3c72-cgu.0.rcgu.o)
 .rodata..Lanon.f5c1b2728a3d49275cd6fdb50aaed8e0.243
                0xffff800040250220       0x18 bin/obj/rslib.a(core-dca77d77b03929cc.core.bbd04c23a4fa3c72-cgu.0.rcgu.o)
 .rodata..Lanon.f5c1b2728a3d49275cd6fdb50aaed8e0.244
                0xffff800040250238       0x18 bin/obj/rslib.a(core-dca77d77b03929cc.core.bbd04c23a4fa3c72-cgu.0.rcgu.o)
 .rodata..Lanon.f5c1b2728a3d49275cd6fdb50aaed8e0.245
                0xffff800040250250       0x18 bin/obj/rslib.a(core-dca77d77b03929cc.core.bbd04c23a4fa3c72-cgu.0.rcgu.o)
 .rodata..Lanon.f5c1b2728a3d49275cd6fdb50aaed8e0.246
                0xffff800040250268       0x2e bin/obj/rslib.a(core-dca77d77b03929cc.core.bbd04c23a4fa3c72-cgu.0.rcgu.o)
 *fill*         0xffff800040250296        0x2 
 .rodata..Lanon.f5c1b2728a3d49275cd6fdb50aaed8e0.247
                0xffff800040250298       0x10 bin/obj/rslib.a(core-dca77d77b03929cc.core.bbd04c23a4fa3c72-cgu.0.rcgu.o)
 .rodata..Lanon.f5c1b2728a3d49275cd6fdb50aaed8e0.249
                0xffff8000402502a8       0x18 bin/obj/rslib.a(core-dca77d77b03929cc.core.bbd04c23a4fa3c72-cgu.0.rcgu.o)
 .rodata..Lanon.f5c1b2728a3d49275cd6fdb50aaed8e0.250
                0xffff8000402502c0       0x12 bin/obj/rslib.a(core-dca77d77b03929cc.core.bbd04c23a4fa3c72-cgu.0.rcgu.o)
 .rodata..Lanon.f5c1b2728a3d49275cd6fdb50aaed8e0.251
                0xffff8000402502d2       0x13 bin/obj/rslib.a(core-dca77d77b03929cc.core.bbd04c23a4fa3c72-cgu.0.rcgu.o)
 .rodata..Lanon.f5c1b2728a3d49275cd6fdb50aaed8e0.252
                0xffff8000402502e5       0x15 bin/obj/rslib.a(core-dca77d77b03929cc.core.bbd04c23a4fa3c72-cgu.0.rcgu.o)
 *fill*         0xffff8000402502fa        0x6 
 .rodata..Lanon.f5c1b2728a3d49275cd6fdb50aaed8e0.253
                0xffff800040250300       0x30 bin/obj/rslib.a(core-dca77d77b03929cc.core.bbd04c23a4fa3c72-cgu.0.rcgu.o)
 .rodata..Lanon.f5c1b2728a3d49275cd6fdb50aaed8e0.254
                0xffff800040250330       0x90 bin/obj/rslib.a(core-dca77d77b03929cc.core.bbd04c23a4fa3c72-cgu.0.rcgu.o)
 .rodata..Lanon.f5c1b2728a3d49275cd6fdb50aaed8e0.255
                0xffff8000402503c0       0x13 bin/obj/rslib.a(core-dca77d77b03929cc.core.bbd04c23a4fa3c72-cgu.0.rcgu.o)
 *fill*         0xffff8000402503d3        0x5 
 .rodata..Lanon.f5c1b2728a3d49275cd6fdb50aaed8e0.256
                0xffff8000402503d8       0x30 bin/obj/rslib.a(core-dca77d77b03929cc.core.bbd04c23a4fa3c72-cgu.0.rcgu.o)
 .rodata..Lanon.f5c1b2728a3d49275cd6fdb50aaed8e0.257
                0xffff800040250408       0x47 bin/obj/rslib.a(core-dca77d77b03929cc.core.bbd04c23a4fa3c72-cgu.0.rcgu.o)
 *fill*         0xffff80004025044f        0x1 
 .rodata..Lanon.f5c1b2728a3d49275cd6fdb50aaed8e0.258
                0xffff800040250450       0x10 bin/obj/rslib.a(core-dca77d77b03929cc.core.bbd04c23a4fa3c72-cgu.0.rcgu.o)
 .rodata..Lanon.f5c1b2728a3d49275cd6fdb50aaed8e0.259
                0xffff800040250460       0x18 bin/obj/rslib.a(core-dca77d77b03929cc.core.bbd04c23a4fa3c72-cgu.0.rcgu.o)
 .rodata..Lanon.f5c1b2728a3d49275cd6fdb50aaed8e0.260
                0xffff800040250478       0x1e bin/obj/rslib.a(core-dca77d77b03929cc.core.bbd04c23a4fa3c72-cgu.0.rcgu.o)
 *fill*         0xffff800040250496        0x2 
 .rodata..Lanon.f5c1b2728a3d49275cd6fdb50aaed8e0.262
                0xffff800040250498       0x18 bin/obj/rslib.a(core-dca77d77b03929cc.core.bbd04c23a4fa3c72-cgu.0.rcgu.o)
 .rodata..Lanon.f5c1b2728a3d49275cd6fdb50aaed8e0.263
                0xffff8000402504b0        0x6 bin/obj/rslib.a(core-dca77d77b03929cc.core.bbd04c23a4fa3c72-cgu.0.rcgu.o)
 .rodata..Lanon.f5c1b2728a3d49275cd6fdb50aaed8e0.265
                0xffff8000402504b6        0x5 bin/obj/rslib.a(core-dca77d77b03929cc.core.bbd04c23a4fa3c72-cgu.0.rcgu.o)
 .rodata..Lanon.f5c1b2728a3d49275cd6fdb50aaed8e0.266
                0xffff8000402504bb       0x22 bin/obj/rslib.a(core-dca77d77b03929cc.core.bbd04c23a4fa3c72-cgu.0.rcgu.o)
 *fill*         0xffff8000402504dd        0x3 
 .rodata..Lanon.f5c1b2728a3d49275cd6fdb50aaed8e0.267
                0xffff8000402504e0       0x40 bin/obj/rslib.a(core-dca77d77b03929cc.core.bbd04c23a4fa3c72-cgu.0.rcgu.o)
 .rodata..Lanon.f5c1b2728a3d49275cd6fdb50aaed8e0.268
                0xffff800040250520       0x18 bin/obj/rslib.a(core-dca77d77b03929cc.core.bbd04c23a4fa3c72-cgu.0.rcgu.o)
 .rodata..Lanon.f5c1b2728a3d49275cd6fdb50aaed8e0.269
                0xffff800040250538       0x18 bin/obj/rslib.a(core-dca77d77b03929cc.core.bbd04c23a4fa3c72-cgu.0.rcgu.o)
 .rodata..Lanon.f5c1b2728a3d49275cd6fdb50aaed8e0.270
                0xffff800040250550       0x26 bin/obj/rslib.a(core-dca77d77b03929cc.core.bbd04c23a4fa3c72-cgu.0.rcgu.o)
 .rodata..Lanon.f5c1b2728a3d49275cd6fdb50aaed8e0.271
                0xffff800040250576       0x2b bin/obj/rslib.a(core-dca77d77b03929cc.core.bbd04c23a4fa3c72-cgu.0.rcgu.o)
 *fill*         0xffff8000402505a1        0x7 
 .rodata..Lanon.f5c1b2728a3d49275cd6fdb50aaed8e0.272
                0xffff8000402505a8       0x30 bin/obj/rslib.a(core-dca77d77b03929cc.core.bbd04c23a4fa3c72-cgu.0.rcgu.o)
 .rodata..Lanon.f5c1b2728a3d49275cd6fdb50aaed8e0.273
                0xffff8000402505d8       0x4c bin/obj/rslib.a(core-dca77d77b03929cc.core.bbd04c23a4fa3c72-cgu.0.rcgu.o)
 *fill*         0xffff800040250624        0x4 
 .rodata..Lanon.f5c1b2728a3d49275cd6fdb50aaed8e0.274
                0xffff800040250628       0x10 bin/obj/rslib.a(core-dca77d77b03929cc.core.bbd04c23a4fa3c72-cgu.0.rcgu.o)
 .rodata..Lanon.f5c1b2728a3d49275cd6fdb50aaed8e0.276
                0xffff800040250638       0x18 bin/obj/rslib.a(core-dca77d77b03929cc.core.bbd04c23a4fa3c72-cgu.0.rcgu.o)
 .rodata..Lanon.f5c1b2728a3d49275cd6fdb50aaed8e0.278
                0xffff800040250650       0x18 bin/obj/rslib.a(core-dca77d77b03929cc.core.bbd04c23a4fa3c72-cgu.0.rcgu.o)
 .rodata..Lanon.f5c1b2728a3d49275cd6fdb50aaed8e0.279
                0xffff800040250668       0x18 bin/obj/rslib.a(core-dca77d77b03929cc.core.bbd04c23a4fa3c72-cgu.0.rcgu.o)
 .rodata..Lanon.f5c1b2728a3d49275cd6fdb50aaed8e0.280
                0xffff800040250680       0x18 bin/obj/rslib.a(core-dca77d77b03929cc.core.bbd04c23a4fa3c72-cgu.0.rcgu.o)
 .rodata..Lanon.f5c1b2728a3d49275cd6fdb50aaed8e0.281
                0xffff800040250698       0x18 bin/obj/rslib.a(core-dca77d77b03929cc.core.bbd04c23a4fa3c72-cgu.0.rcgu.o)
 .rodata..Lanon.f5c1b2728a3d49275cd6fdb50aaed8e0.282
                0xffff8000402506b0       0x16 bin/obj/rslib.a(core-dca77d77b03929cc.core.bbd04c23a4fa3c72-cgu.0.rcgu.o)
 .rodata..Lanon.f5c1b2728a3d49275cd6fdb50aaed8e0.283
                0xffff8000402506c6        0xd bin/obj/rslib.a(core-dca77d77b03929cc.core.bbd04c23a4fa3c72-cgu.0.rcgu.o)
 *fill*         0xffff8000402506d3        0x5 
 .rodata..Lanon.f5c1b2728a3d49275cd6fdb50aaed8e0.284
                0xffff8000402506d8       0x20 bin/obj/rslib.a(core-dca77d77b03929cc.core.bbd04c23a4fa3c72-cgu.0.rcgu.o)
 .rodata..Lanon.f5c1b2728a3d49275cd6fdb50aaed8e0.286
                0xffff8000402506f8       0x22 bin/obj/rslib.a(core-dca77d77b03929cc.core.bbd04c23a4fa3c72-cgu.0.rcgu.o)
 *fill*         0xffff80004025071a        0x6 
 .rodata..Lanon.f5c1b2728a3d49275cd6fdb50aaed8e0.287
                0xffff800040250720       0x20 bin/obj/rslib.a(core-dca77d77b03929cc.core.bbd04c23a4fa3c72-cgu.0.rcgu.o)
 .rodata..Lanon.f5c1b2728a3d49275cd6fdb50aaed8e0.288
                0xffff800040250740       0x12 bin/obj/rslib.a(core-dca77d77b03929cc.core.bbd04c23a4fa3c72-cgu.0.rcgu.o)
 *fill*         0xffff800040250752        0x6 
 .rodata..Lanon.f5c1b2728a3d49275cd6fdb50aaed8e0.289
                0xffff800040250758       0x20 bin/obj/rslib.a(core-dca77d77b03929cc.core.bbd04c23a4fa3c72-cgu.0.rcgu.o)
 .rodata..Lanon.f5c1b2728a3d49275cd6fdb50aaed8e0.291
                0xffff800040250778       0x18 bin/obj/rslib.a(core-dca77d77b03929cc.core.bbd04c23a4fa3c72-cgu.0.rcgu.o)
 .rodata..Lanon.f5c1b2728a3d49275cd6fdb50aaed8e0.292
                0xffff800040250790       0x18 bin/obj/rslib.a(core-dca77d77b03929cc.core.bbd04c23a4fa3c72-cgu.0.rcgu.o)
 .rodata..Lanon.f5c1b2728a3d49275cd6fdb50aaed8e0.293
                0xffff8000402507a8      0x100 bin/obj/rslib.a(core-dca77d77b03929cc.core.bbd04c23a4fa3c72-cgu.0.rcgu.o)
 .rodata..Lanon.f5c1b2728a3d49275cd6fdb50aaed8e0.294
                0xffff8000402508a8       0x2b bin/obj/rslib.a(core-dca77d77b03929cc.core.bbd04c23a4fa3c72-cgu.0.rcgu.o)
 *fill*         0xffff8000402508d3        0x5 
 .rodata..Lanon.f5c1b2728a3d49275cd6fdb50aaed8e0.295
                0xffff8000402508d8       0x20 bin/obj/rslib.a(core-dca77d77b03929cc.core.bbd04c23a4fa3c72-cgu.0.rcgu.o)
 .rodata._ZN4core7unicode12unicode_data10alphabetic17SHORT_OFFSET_RUNS17h7b947fc57ed29be8E
                0xffff8000402508f8       0xcc bin/obj/rslib.a(core-dca77d77b03929cc.core.bbd04c23a4fa3c72-cgu.0.rcgu.o)
 .rodata..Lanon.f5c1b2728a3d49275cd6fdb50aaed8e0.296
                0xffff8000402509c4     0x2db0 bin/obj/rslib.a(core-dca77d77b03929cc.core.bbd04c23a4fa3c72-cgu.0.rcgu.o)
 .rodata..Lanon.f5c1b2728a3d49275cd6fdb50aaed8e0.297
                0xffff800040253774     0x3090 bin/obj/rslib.a(core-dca77d77b03929cc.core.bbd04c23a4fa3c72-cgu.0.rcgu.o)
 .rodata..Lanon.f5c1b2728a3d49275cd6fdb50aaed8e0.298
                0xffff800040256804      0x4c8 bin/obj/rslib.a(core-dca77d77b03929cc.core.bbd04c23a4fa3c72-cgu.0.rcgu.o)
 *fill*         0xffff800040256ccc        0x4 
 .rodata..Lanon.f5c1b2728a3d49275cd6fdb50aaed8e0.300
                0xffff800040256cd0       0x18 bin/obj/rslib.a(core-dca77d77b03929cc.core.bbd04c23a4fa3c72-cgu.0.rcgu.o)
 .rodata..Lanon.f5c1b2728a3d49275cd6fdb50aaed8e0.301
                0xffff800040256ce8       0x18 bin/obj/rslib.a(core-dca77d77b03929cc.core.bbd04c23a4fa3c72-cgu.0.rcgu.o)
 .rodata..Lanon.f5c1b2728a3d49275cd6fdb50aaed8e0.302
                0xffff800040256d00       0x18 bin/obj/rslib.a(core-dca77d77b03929cc.core.bbd04c23a4fa3c72-cgu.0.rcgu.o)
 .rodata..Lanon.f5c1b2728a3d49275cd6fdb50aaed8e0.303
                0xffff800040256d18       0x18 bin/obj/rslib.a(core-dca77d77b03929cc.core.bbd04c23a4fa3c72-cgu.0.rcgu.o)
 .rodata..Lanon.f5c1b2728a3d49275cd6fdb50aaed8e0.304
                0xffff800040256d30       0x18 bin/obj/rslib.a(core-dca77d77b03929cc.core.bbd04c23a4fa3c72-cgu.0.rcgu.o)
 .rodata._ZN4core7unicode12unicode_data14case_ignorable17SHORT_OFFSET_RUNS17hdb565dff6129ea68E
                0xffff800040256d48       0x90 bin/obj/rslib.a(core-dca77d77b03929cc.core.bbd04c23a4fa3c72-cgu.0.rcgu.o)
 .rodata._ZN4core7unicode12unicode_data15grapheme_extend17SHORT_OFFSET_RUNS17h8c6d6a58bb907fa8E
                0xffff800040256dd8       0x84 bin/obj/rslib.a(core-dca77d77b03929cc.core.bbd04c23a4fa3c72-cgu.0.rcgu.o)
 .rodata._ZN4core7unicode12unicode_data1n17SHORT_OFFSET_RUNS17h007abe587b18fe69E
                0xffff800040256e5c       0xac bin/obj/rslib.a(core-dca77d77b03929cc.core.bbd04c23a4fa3c72-cgu.0.rcgu.o)
 .rodata._ZN4core7unicode12unicode_data5cased17SHORT_OFFSET_RUNS17h0443efe81a8c45e7E
                0xffff800040256f08       0x58 bin/obj/rslib.a(core-dca77d77b03929cc.core.bbd04c23a4fa3c72-cgu.0.rcgu.o)
 .rodata._ZN4core7unicode12unicode_data9lowercase14BITSET_MAPPING17hcecc91c2a6b1d730E
                0xffff800040256f60       0x2c bin/obj/rslib.a(core-dca77d77b03929cc.core.bbd04c23a4fa3c72-cgu.0.rcgu.o)
                0xffff800040256f60                core::unicode::unicode_data::lowercase::BITSET_MAPPING
 *fill*         0xffff800040256f8c        0x4 
 .rodata._ZN4core7unicode12unicode_data9lowercase16BITSET_CANONICAL17h851c6ec187b7f1c7E
                0xffff800040256f90      0x1c8 bin/obj/rslib.a(core-dca77d77b03929cc.core.bbd04c23a4fa3c72-cgu.0.rcgu.o)
                0xffff800040256f90                core::unicode::unicode_data::lowercase::BITSET_CANONICAL
 .rodata._ZN4core7unicode12unicode_data9lowercase19BITSET_INDEX_CHUNKS17h8b0ee408f7f96120E
                0xffff800040257158      0x140 bin/obj/rslib.a(core-dca77d77b03929cc.core.bbd04c23a4fa3c72-cgu.0.rcgu.o)
                0xffff800040257158                core::unicode::unicode_data::lowercase::BITSET_INDEX_CHUNKS
 .rodata._ZN4core7unicode12unicode_data9uppercase14BITSET_MAPPING17h5d42b0715ff8312eE
                0xffff800040257298       0x32 bin/obj/rslib.a(core-dca77d77b03929cc.core.bbd04c23a4fa3c72-cgu.0.rcgu.o)
                0xffff800040257298                core::unicode::unicode_data::uppercase::BITSET_MAPPING
 *fill*         0xffff8000402572ca        0x6 
 .rodata._ZN4core7unicode12unicode_data9uppercase16BITSET_CANONICAL17hab53f872ed537646E
                0xffff8000402572d0      0x160 bin/obj/rslib.a(core-dca77d77b03929cc.core.bbd04c23a4fa3c72-cgu.0.rcgu.o)
                0xffff8000402572d0                core::unicode::unicode_data::uppercase::BITSET_CANONICAL
 .rodata._ZN4core7unicode12unicode_data9uppercase19BITSET_INDEX_CHUNKS17ha1f3b40ace6887c2E
                0xffff800040257430      0x110 bin/obj/rslib.a(core-dca77d77b03929cc.core.bbd04c23a4fa3c72-cgu.0.rcgu.o)
                0xffff800040257430                core::unicode::unicode_data::uppercase::BITSET_INDEX_CHUNKS
 .rodata..Lanon.f5c1b2728a3d49275cd6fdb50aaed8e0.305
                0xffff800040257540       0x5c bin/obj/rslib.a(core-dca77d77b03929cc.core.bbd04c23a4fa3c72-cgu.0.rcgu.o)
 .rodata..Lanon.f5c1b2728a3d49275cd6fdb50aaed8e0.306
                0xffff80004025759c       0xd4 bin/obj/rslib.a(core-dca77d77b03929cc.core.bbd04c23a4fa3c72-cgu.0.rcgu.o)
 .rodata..Lanon.f5c1b2728a3d49275cd6fdb50aaed8e0.307
                0xffff800040257670      0x1f8 bin/obj/rslib.a(core-dca77d77b03929cc.core.bbd04c23a4fa3c72-cgu.0.rcgu.o)
 .rodata..Lanon.f5c1b2728a3d49275cd6fdb50aaed8e0.308
                0xffff800040257868       0x4c bin/obj/rslib.a(core-dca77d77b03929cc.core.bbd04c23a4fa3c72-cgu.0.rcgu.o)
 .rodata..Lanon.f5c1b2728a3d49275cd6fdb50aaed8e0.309
                0xffff8000402578b4      0x11c bin/obj/rslib.a(core-dca77d77b03929cc.core.bbd04c23a4fa3c72-cgu.0.rcgu.o)
 .rodata..Lanon.f5c1b2728a3d49275cd6fdb50aaed8e0.310
                0xffff8000402579d0      0x124 bin/obj/rslib.a(core-dca77d77b03929cc.core.bbd04c23a4fa3c72-cgu.0.rcgu.o)
 *fill*         0xffff800040257af4        0x4 
 .rodata..Lanon.f5c1b2728a3d49275cd6fdb50aaed8e0.312
                0xffff800040257af8       0x18 bin/obj/rslib.a(core-dca77d77b03929cc.core.bbd04c23a4fa3c72-cgu.0.rcgu.o)
 .rodata..Lanon.f5c1b2728a3d49275cd6fdb50aaed8e0.313
                0xffff800040257b10       0x18 bin/obj/rslib.a(core-dca77d77b03929cc.core.bbd04c23a4fa3c72-cgu.0.rcgu.o)
 .rodata..Lanon.f5c1b2728a3d49275cd6fdb50aaed8e0.314
                0xffff800040257b28       0x19 bin/obj/rslib.a(core-dca77d77b03929cc.core.bbd04c23a4fa3c72-cgu.0.rcgu.o)
 *fill*         0xffff800040257b41        0x7 
 .rodata..Lanon.f5c1b2728a3d49275cd6fdb50aaed8e0.315
                0xffff800040257b48       0x10 bin/obj/rslib.a(core-dca77d77b03929cc.core.bbd04c23a4fa3c72-cgu.0.rcgu.o)
 .rodata..Lanon.f5c1b2728a3d49275cd6fdb50aaed8e0.316
                0xffff800040257b58       0x3b bin/obj/rslib.a(core-dca77d77b03929cc.core.bbd04c23a4fa3c72-cgu.0.rcgu.o)
 *fill*         0xffff800040257b93        0x5 
 .rodata..Lanon.f5c1b2728a3d49275cd6fdb50aaed8e0.317
                0xffff800040257b98       0x10 bin/obj/rslib.a(core-dca77d77b03929cc.core.bbd04c23a4fa3c72-cgu.0.rcgu.o)
 .rodata..Lanon.f5c1b2728a3d49275cd6fdb50aaed8e0.318
                0xffff800040257ba8       0x39 bin/obj/rslib.a(core-dca77d77b03929cc.core.bbd04c23a4fa3c72-cgu.0.rcgu.o)
 *fill*         0xffff800040257be1        0x7 
 .rodata..Lanon.f5c1b2728a3d49275cd6fdb50aaed8e0.319
                0xffff800040257be8       0x10 bin/obj/rslib.a(core-dca77d77b03929cc.core.bbd04c23a4fa3c72-cgu.0.rcgu.o)
 .rodata..Lanon.f5c1b2728a3d49275cd6fdb50aaed8e0.320
                0xffff800040257bf8       0x23 bin/obj/rslib.a(core-dca77d77b03929cc.core.bbd04c23a4fa3c72-cgu.0.rcgu.o)
 *fill*         0xffff800040257c1b        0x5 
 .rodata..Lanon.f5c1b2728a3d49275cd6fdb50aaed8e0.321
                0xffff800040257c20       0x10 bin/obj/rslib.a(core-dca77d77b03929cc.core.bbd04c23a4fa3c72-cgu.0.rcgu.o)
 .rodata..Lanon.f5c1b2728a3d49275cd6fdb50aaed8e0.322
                0xffff800040257c30       0x21 bin/obj/rslib.a(core-dca77d77b03929cc.core.bbd04c23a4fa3c72-cgu.0.rcgu.o)
 *fill*         0xffff800040257c51        0x7 
 .rodata..Lanon.f5c1b2728a3d49275cd6fdb50aaed8e0.323
                0xffff800040257c58       0x10 bin/obj/rslib.a(core-dca77d77b03929cc.core.bbd04c23a4fa3c72-cgu.0.rcgu.o)
 .rodata..Lanon.f5c1b2728a3d49275cd6fdb50aaed8e0.324
                0xffff800040257c68       0x22 bin/obj/rslib.a(core-dca77d77b03929cc.core.bbd04c23a4fa3c72-cgu.0.rcgu.o)
 *fill*         0xffff800040257c8a        0x6 
 .rodata..Lanon.f5c1b2728a3d49275cd6fdb50aaed8e0.325
                0xffff800040257c90       0x10 bin/obj/rslib.a(core-dca77d77b03929cc.core.bbd04c23a4fa3c72-cgu.0.rcgu.o)
 .rodata..Lanon.f5c1b2728a3d49275cd6fdb50aaed8e0.326
                0xffff800040257ca0       0x3a bin/obj/rslib.a(core-dca77d77b03929cc.core.bbd04c23a4fa3c72-cgu.0.rcgu.o)
 *fill*         0xffff800040257cda        0x6 
 .rodata..Lanon.f5c1b2728a3d49275cd6fdb50aaed8e0.327
                0xffff800040257ce0       0x10 bin/obj/rslib.a(core-dca77d77b03929cc.core.bbd04c23a4fa3c72-cgu.0.rcgu.o)
 .rodata..Lanon.f5c1b2728a3d49275cd6fdb50aaed8e0.328
                0xffff800040257cf0       0x27 bin/obj/rslib.a(core-dca77d77b03929cc.core.bbd04c23a4fa3c72-cgu.0.rcgu.o)
 *fill*         0xffff800040257d17        0x1 
 .rodata..Lanon.f5c1b2728a3d49275cd6fdb50aaed8e0.329
                0xffff800040257d18       0x10 bin/obj/rslib.a(core-dca77d77b03929cc.core.bbd04c23a4fa3c72-cgu.0.rcgu.o)
 .rodata..Lanon.f5c1b2728a3d49275cd6fdb50aaed8e0.330
                0xffff800040257d28       0x23 bin/obj/rslib.a(core-dca77d77b03929cc.core.bbd04c23a4fa3c72-cgu.0.rcgu.o)
 *fill*         0xffff800040257d4b        0x5 
 .rodata..Lanon.f5c1b2728a3d49275cd6fdb50aaed8e0.331
                0xffff800040257d50       0x10 bin/obj/rslib.a(core-dca77d77b03929cc.core.bbd04c23a4fa3c72-cgu.0.rcgu.o)
 .rodata..Lanon.f5c1b2728a3d49275cd6fdb50aaed8e0.332
                0xffff800040257d60       0x22 bin/obj/rslib.a(core-dca77d77b03929cc.core.bbd04c23a4fa3c72-cgu.0.rcgu.o)
 *fill*         0xffff800040257d82        0x6 
 .rodata..Lanon.f5c1b2728a3d49275cd6fdb50aaed8e0.333
                0xffff800040257d88       0x10 bin/obj/rslib.a(core-dca77d77b03929cc.core.bbd04c23a4fa3c72-cgu.0.rcgu.o)
 .rodata..Lanon.f5c1b2728a3d49275cd6fdb50aaed8e0.334
                0xffff800040257d98       0x22 bin/obj/rslib.a(core-dca77d77b03929cc.core.bbd04c23a4fa3c72-cgu.0.rcgu.o)
 *fill*         0xffff800040257dba        0x6 
 .rodata..Lanon.f5c1b2728a3d49275cd6fdb50aaed8e0.335
                0xffff800040257dc0       0x10 bin/obj/rslib.a(core-dca77d77b03929cc.core.bbd04c23a4fa3c72-cgu.0.rcgu.o)
 .rodata..Lanon.f5c1b2728a3d49275cd6fdb50aaed8e0.336
                0xffff800040257dd0       0x21 bin/obj/rslib.a(core-dca77d77b03929cc.core.bbd04c23a4fa3c72-cgu.0.rcgu.o)
 *fill*         0xffff800040257df1        0x7 
 .rodata..Lanon.f5c1b2728a3d49275cd6fdb50aaed8e0.337
                0xffff800040257df8       0x10 bin/obj/rslib.a(core-dca77d77b03929cc.core.bbd04c23a4fa3c72-cgu.0.rcgu.o)
 .rodata..Lanon.f5c1b2728a3d49275cd6fdb50aaed8e0.338
                0xffff800040257e08       0x27 bin/obj/rslib.a(core-dca77d77b03929cc.core.bbd04c23a4fa3c72-cgu.0.rcgu.o)
 *fill*         0xffff800040257e2f        0x1 
 .rodata..Lanon.f5c1b2728a3d49275cd6fdb50aaed8e0.339
                0xffff800040257e30       0x10 bin/obj/rslib.a(core-dca77d77b03929cc.core.bbd04c23a4fa3c72-cgu.0.rcgu.o)
 .rodata..Lanon.f5c1b2728a3d49275cd6fdb50aaed8e0.340
                0xffff800040257e40       0x26 bin/obj/rslib.a(core-dca77d77b03929cc.core.bbd04c23a4fa3c72-cgu.0.rcgu.o)
 *fill*         0xffff800040257e66        0x2 
 .rodata..Lanon.f5c1b2728a3d49275cd6fdb50aaed8e0.341
                0xffff800040257e68       0x10 bin/obj/rslib.a(core-dca77d77b03929cc.core.bbd04c23a4fa3c72-cgu.0.rcgu.o)
 .rodata..Lanon.f5c1b2728a3d49275cd6fdb50aaed8e0.342
                0xffff800040257e78       0x20 bin/obj/rslib.a(core-dca77d77b03929cc.core.bbd04c23a4fa3c72-cgu.0.rcgu.o)
 .rodata..Lanon.f5c1b2728a3d49275cd6fdb50aaed8e0.343
                0xffff800040257e98       0x20 bin/obj/rslib.a(core-dca77d77b03929cc.core.bbd04c23a4fa3c72-cgu.0.rcgu.o)
 .rodata..Lanon.f5c1b2728a3d49275cd6fdb50aaed8e0.344
                0xffff800040257eb8       0x20 bin/obj/rslib.a(core-dca77d77b03929cc.core.bbd04c23a4fa3c72-cgu.0.rcgu.o)
 .rodata..Lanon.f5c1b2728a3d49275cd6fdb50aaed8e0.346
                0xffff800040257ed8       0x18 bin/obj/rslib.a(core-dca77d77b03929cc.core.bbd04c23a4fa3c72-cgu.0.rcgu.o)
 .rodata..Lanon.f5c1b2728a3d49275cd6fdb50aaed8e0.347
                0xffff800040257ef0       0x18 bin/obj/rslib.a(core-dca77d77b03929cc.core.bbd04c23a4fa3c72-cgu.0.rcgu.o)
 .rodata..Lanon.f5c1b2728a3d49275cd6fdb50aaed8e0.348
                0xffff800040257f08       0x24 bin/obj/rslib.a(core-dca77d77b03929cc.core.bbd04c23a4fa3c72-cgu.0.rcgu.o)
 *fill*         0xffff800040257f2c        0x4 
 .rodata.cst32  0xffff800040257f30       0x80 bin/obj/rslib.a(core-dca77d77b03929cc.core.bbd04c23a4fa3c72-cgu.0.rcgu.o)
 .rodata..Lanon.f5c1b2728a3d49275cd6fdb50aaed8e0.350
                0xffff800040257fb0       0x12 bin/obj/rslib.a(core-dca77d77b03929cc.core.bbd04c23a4fa3c72-cgu.0.rcgu.o)
 *fill*         0xffff800040257fc2        0x6 
 .rodata..Lanon.f5c1b2728a3d49275cd6fdb50aaed8e0.351
                0xffff800040257fc8       0x20 bin/obj/rslib.a(core-dca77d77b03929cc.core.bbd04c23a4fa3c72-cgu.0.rcgu.o)
 .rodata..Lanon.f5c1b2728a3d49275cd6fdb50aaed8e0.352
                0xffff800040257fe8        0x2 bin/obj/rslib.a(core-dca77d77b03929cc.core.bbd04c23a4fa3c72-cgu.0.rcgu.o)
 .rodata..Lanon.f5c1b2728a3d49275cd6fdb50aaed8e0.353
                0xffff800040257fea        0x2 bin/obj/rslib.a(core-dca77d77b03929cc.core.bbd04c23a4fa3c72-cgu.0.rcgu.o)
 .rodata..Lanon.f5c1b2728a3d49275cd6fdb50aaed8e0.354
                0xffff800040257fec        0x7 bin/obj/rslib.a(core-dca77d77b03929cc.core.bbd04c23a4fa3c72-cgu.0.rcgu.o)
 .rodata..Lanon.f5c1b2728a3d49275cd6fdb50aaed8e0.356
                0xffff800040257ff3       0x17 bin/obj/rslib.a(core-dca77d77b03929cc.core.bbd04c23a4fa3c72-cgu.0.rcgu.o)
 .rodata..Lanon.f5c1b2728a3d49275cd6fdb50aaed8e0.357
                0xffff80004025800a        0x9 bin/obj/rslib.a(core-dca77d77b03929cc.core.bbd04c23a4fa3c72-cgu.0.rcgu.o)
 *fill*         0xffff800040258013        0x5 
 .rodata..Lanon.f5c1b2728a3d49275cd6fdb50aaed8e0.358
                0xffff800040258018       0x30 bin/obj/rslib.a(core-dca77d77b03929cc.core.bbd04c23a4fa3c72-cgu.0.rcgu.o)
 .rodata..Lanon.f5c1b2728a3d49275cd6fdb50aaed8e0.360
                0xffff800040258048        0x9 bin/obj/rslib.a(core-dca77d77b03929cc.core.bbd04c23a4fa3c72-cgu.0.rcgu.o)
 *fill*         0xffff800040258051        0x7 
 .rodata..Lanon.f5c1b2728a3d49275cd6fdb50aaed8e0.361
                0xffff800040258058       0x40 bin/obj/rslib.a(core-dca77d77b03929cc.core.bbd04c23a4fa3c72-cgu.0.rcgu.o)
 .rodata..Lanon.f5c1b2728a3d49275cd6fdb50aaed8e0.362
                0xffff800040258098       0x26 bin/obj/rslib.a(core-dca77d77b03929cc.core.bbd04c23a4fa3c72-cgu.0.rcgu.o)
 *fill*         0xffff8000402580be        0x2 
 .rodata..Lanon.f5c1b2728a3d49275cd6fdb50aaed8e0.363
                0xffff8000402580c0       0x18 bin/obj/rslib.a(core-dca77d77b03929cc.core.bbd04c23a4fa3c72-cgu.0.rcgu.o)
 .rodata..Lanon.f5c1b2728a3d49275cd6fdb50aaed8e0.364
                0xffff8000402580d8       0x21 bin/obj/rslib.a(core-dca77d77b03929cc.core.bbd04c23a4fa3c72-cgu.0.rcgu.o)
 *fill*         0xffff8000402580f9        0x7 
 .rodata..Lanon.f5c1b2728a3d49275cd6fdb50aaed8e0.365
                0xffff800040258100       0x10 bin/obj/rslib.a(core-dca77d77b03929cc.core.bbd04c23a4fa3c72-cgu.0.rcgu.o)
 .rodata..Lanon.f5c1b2728a3d49275cd6fdb50aaed8e0.366
                0xffff800040258110       0x32 bin/obj/rslib.a(core-dca77d77b03929cc.core.bbd04c23a4fa3c72-cgu.0.rcgu.o)
 *fill*         0xffff800040258142        0x6 
 .rodata..Lanon.f5c1b2728a3d49275cd6fdb50aaed8e0.367
                0xffff800040258148       0x10 bin/obj/rslib.a(core-dca77d77b03929cc.core.bbd04c23a4fa3c72-cgu.0.rcgu.o)
 .rodata..Lanon.f5c1b2728a3d49275cd6fdb50aaed8e0.368
                0xffff800040258158       0x30 bin/obj/rslib.a(core-dca77d77b03929cc.core.bbd04c23a4fa3c72-cgu.0.rcgu.o)
 .rodata..Lanon.f5c1b2728a3d49275cd6fdb50aaed8e0.369
                0xffff800040258188       0x3e bin/obj/rslib.a(core-dca77d77b03929cc.core.bbd04c23a4fa3c72-cgu.0.rcgu.o)
 *fill*         0xffff8000402581c6        0x2 
 .rodata..Lanon.f5c1b2728a3d49275cd6fdb50aaed8e0.371
                0xffff8000402581c8       0x20 bin/obj/rslib.a(core-dca77d77b03929cc.core.bbd04c23a4fa3c72-cgu.0.rcgu.o)
 .rodata..Lanon.f5c1b2728a3d49275cd6fdb50aaed8e0.372
                0xffff8000402581e8       0x60 bin/obj/rslib.a(core-dca77d77b03929cc.core.bbd04c23a4fa3c72-cgu.0.rcgu.o)
 .rodata..Lanon.f5c1b2728a3d49275cd6fdb50aaed8e0.373
                0xffff800040258248        0x5 bin/obj/rslib.a(core-dca77d77b03929cc.core.bbd04c23a4fa3c72-cgu.0.rcgu.o)
 .rodata..Lanon.f5c1b2728a3d49275cd6fdb50aaed8e0.374
                0xffff80004025824d        0x1 bin/obj/rslib.a(core-dca77d77b03929cc.core.bbd04c23a4fa3c72-cgu.0.rcgu.o)
 .rodata..Lanon.f5c1b2728a3d49275cd6fdb50aaed8e0.375
                0xffff80004025824e        0x3 bin/obj/rslib.a(core-dca77d77b03929cc.core.bbd04c23a4fa3c72-cgu.0.rcgu.o)
 *fill*         0xffff800040258251        0x7 
 .rodata..Lanon.f5c1b2728a3d49275cd6fdb50aaed8e0.376
                0xffff800040258258       0x20 bin/obj/rslib.a(core-dca77d77b03929cc.core.bbd04c23a4fa3c72-cgu.0.rcgu.o)
 .rodata..Lanon.f5c1b2728a3d49275cd6fdb50aaed8e0.377
                0xffff800040258278       0x18 bin/obj/rslib.a(core-dca77d77b03929cc.core.bbd04c23a4fa3c72-cgu.0.rcgu.o)
 .rodata..Lanon.f5c1b2728a3d49275cd6fdb50aaed8e0.378
                0xffff800040258290        0x7 bin/obj/rslib.a(core-dca77d77b03929cc.core.bbd04c23a4fa3c72-cgu.0.rcgu.o)
 *fill*         0xffff800040258297        0x1 
 .rodata..Lanon.f5c1b2728a3d49275cd6fdb50aaed8e0.379
                0xffff800040258298       0x20 bin/obj/rslib.a(core-dca77d77b03929cc.core.bbd04c23a4fa3c72-cgu.0.rcgu.o)
 .rodata..Lanon.f5c1b2728a3d49275cd6fdb50aaed8e0.380
                0xffff8000402582b8       0x30 bin/obj/rslib.a(core-dca77d77b03929cc.core.bbd04c23a4fa3c72-cgu.0.rcgu.o)
 .rodata..Lanon.f5c1b2728a3d49275cd6fdb50aaed8e0.381
                0xffff8000402582e8        0x6 bin/obj/rslib.a(core-dca77d77b03929cc.core.bbd04c23a4fa3c72-cgu.0.rcgu.o)
 .rodata..Lanon.f5c1b2728a3d49275cd6fdb50aaed8e0.382
                0xffff8000402582ee       0x2d bin/obj/rslib.a(core-dca77d77b03929cc.core.bbd04c23a4fa3c72-cgu.0.rcgu.o)
 *fill*         0xffff80004025831b        0x5 
 .rodata..Lanon.f5c1b2728a3d49275cd6fdb50aaed8e0.383
                0xffff800040258320       0x18 bin/obj/rslib.a(core-dca77d77b03929cc.core.bbd04c23a4fa3c72-cgu.0.rcgu.o)
 .rodata..Lanon.f5c1b2728a3d49275cd6fdb50aaed8e0.384
                0xffff800040258338        0x2 bin/obj/rslib.a(core-dca77d77b03929cc.core.bbd04c23a4fa3c72-cgu.0.rcgu.o)
 .rodata..Lanon.f5c1b2728a3d49275cd6fdb50aaed8e0.385
                0xffff80004025833a        0x7 bin/obj/rslib.a(core-dca77d77b03929cc.core.bbd04c23a4fa3c72-cgu.0.rcgu.o)
 *fill*         0xffff800040258341        0x7 
 .rodata..Lanon.f5c1b2728a3d49275cd6fdb50aaed8e0.387
                0xffff800040258348       0x18 bin/obj/rslib.a(core-dca77d77b03929cc.core.bbd04c23a4fa3c72-cgu.0.rcgu.o)
 .rodata..Lanon.f5c1b2728a3d49275cd6fdb50aaed8e0.389
                0xffff800040258360       0x14 bin/obj/rslib.a(core-dca77d77b03929cc.core.bbd04c23a4fa3c72-cgu.0.rcgu.o)
 *fill*         0xffff800040258374        0x4 
 .rodata..Lanon.f5c1b2728a3d49275cd6fdb50aaed8e0.390
                0xffff800040258378       0x20 bin/obj/rslib.a(core-dca77d77b03929cc.core.bbd04c23a4fa3c72-cgu.0.rcgu.o)
 .rodata..Lanon.f5c1b2728a3d49275cd6fdb50aaed8e0.391
                0xffff800040258398       0x10 bin/obj/rslib.a(core-dca77d77b03929cc.core.bbd04c23a4fa3c72-cgu.0.rcgu.o)
 .rodata..Lanon.f5c1b2728a3d49275cd6fdb50aaed8e0.392
                0xffff8000402583a8       0x30 bin/obj/rslib.a(core-dca77d77b03929cc.core.bbd04c23a4fa3c72-cgu.0.rcgu.o)
 .rodata..Lanon.f5c1b2728a3d49275cd6fdb50aaed8e0.394
                0xffff8000402583d8       0x10 bin/obj/rslib.a(core-dca77d77b03929cc.core.bbd04c23a4fa3c72-cgu.0.rcgu.o)
 .rodata..Lanon.f5c1b2728a3d49275cd6fdb50aaed8e0.395
                0xffff8000402583e8       0x18 bin/obj/rslib.a(core-dca77d77b03929cc.core.bbd04c23a4fa3c72-cgu.0.rcgu.o)
 .rodata..Lanon.f5c1b2728a3d49275cd6fdb50aaed8e0.396
                0xffff800040258400       0x18 bin/obj/rslib.a(core-dca77d77b03929cc.core.bbd04c23a4fa3c72-cgu.0.rcgu.o)
 .rodata..Lanon.f5c1b2728a3d49275cd6fdb50aaed8e0.397
                0xffff800040258418        0x2 bin/obj/rslib.a(core-dca77d77b03929cc.core.bbd04c23a4fa3c72-cgu.0.rcgu.o)
 .rodata..Lanon.f5c1b2728a3d49275cd6fdb50aaed8e0.398
                0xffff80004025841a        0x3 bin/obj/rslib.a(core-dca77d77b03929cc.core.bbd04c23a4fa3c72-cgu.0.rcgu.o)
 .rodata..Lanon.f5c1b2728a3d49275cd6fdb50aaed8e0.399
                0xffff80004025841d        0x2 bin/obj/rslib.a(core-dca77d77b03929cc.core.bbd04c23a4fa3c72-cgu.0.rcgu.o)
 .rodata..Lanon.f5c1b2728a3d49275cd6fdb50aaed8e0.400
                0xffff80004025841f        0x1 bin/obj/rslib.a(core-dca77d77b03929cc.core.bbd04c23a4fa3c72-cgu.0.rcgu.o)
 .rodata..Lanon.f5c1b2728a3d49275cd6fdb50aaed8e0.401
                0xffff800040258420        0x3 bin/obj/rslib.a(core-dca77d77b03929cc.core.bbd04c23a4fa3c72-cgu.0.rcgu.o)
 .rodata..Lanon.f5c1b2728a3d49275cd6fdb50aaed8e0.402
                0xffff800040258423        0x6 bin/obj/rslib.a(core-dca77d77b03929cc.core.bbd04c23a4fa3c72-cgu.0.rcgu.o)
 .rodata..Lanon.f5c1b2728a3d49275cd6fdb50aaed8e0.403
                0xffff800040258429        0xb bin/obj/rslib.a(core-dca77d77b03929cc.core.bbd04c23a4fa3c72-cgu.0.rcgu.o)
 .rodata..Lanon.f5c1b2728a3d49275cd6fdb50aaed8e0.405
                0xffff800040258434       0x40 bin/obj/rslib.a(core-dca77d77b03929cc.core.bbd04c23a4fa3c72-cgu.0.rcgu.o)
 *fill*         0xffff800040258474        0x4 
 .rodata..Lanon.f5c1b2728a3d49275cd6fdb50aaed8e0.406
                0xffff800040258478      0x100 bin/obj/rslib.a(core-dca77d77b03929cc.core.bbd04c23a4fa3c72-cgu.0.rcgu.o)
 .rodata..Lanon.f5c1b2728a3d49275cd6fdb50aaed8e0.408
                0xffff800040258578       0x18 bin/obj/rslib.a(core-dca77d77b03929cc.core.bbd04c23a4fa3c72-cgu.0.rcgu.o)
 .rodata..Lanon.f5c1b2728a3d49275cd6fdb50aaed8e0.409
                0xffff800040258590        0x2 bin/obj/rslib.a(core-dca77d77b03929cc.core.bbd04c23a4fa3c72-cgu.0.rcgu.o)
 *fill*         0xffff800040258592        0x6 
 .rodata..Lanon.f5c1b2728a3d49275cd6fdb50aaed8e0.410
                0xffff800040258598       0x10 bin/obj/rslib.a(core-dca77d77b03929cc.core.bbd04c23a4fa3c72-cgu.0.rcgu.o)
 .rodata..Lanon.f5c1b2728a3d49275cd6fdb50aaed8e0.411
                0xffff8000402585a8       0x30 bin/obj/rslib.a(core-dca77d77b03929cc.core.bbd04c23a4fa3c72-cgu.0.rcgu.o)
 .rodata..Lanon.f5c1b2728a3d49275cd6fdb50aaed8e0.412
                0xffff8000402585d8       0x18 bin/obj/rslib.a(core-dca77d77b03929cc.core.bbd04c23a4fa3c72-cgu.0.rcgu.o)
 .rodata..Lanon.f5c1b2728a3d49275cd6fdb50aaed8e0.413
                0xffff8000402585f0        0x5 bin/obj/rslib.a(core-dca77d77b03929cc.core.bbd04c23a4fa3c72-cgu.0.rcgu.o)
 *fill*         0xffff8000402585f5        0x3 
 .rodata..Lanon.f5c1b2728a3d49275cd6fdb50aaed8e0.414
                0xffff8000402585f8       0x20 bin/obj/rslib.a(core-dca77d77b03929cc.core.bbd04c23a4fa3c72-cgu.0.rcgu.o)
 .rodata..Lanon.f5c1b2728a3d49275cd6fdb50aaed8e0.416
                0xffff800040258618       0x20 bin/obj/rslib.a(core-dca77d77b03929cc.core.bbd04c23a4fa3c72-cgu.0.rcgu.o)
 .rodata..Lanon.f5c1b2728a3d49275cd6fdb50aaed8e0.417
                0xffff800040258638        0x6 bin/obj/rslib.a(core-dca77d77b03929cc.core.bbd04c23a4fa3c72-cgu.0.rcgu.o)
 .rodata..Lanon.f5c1b2728a3d49275cd6fdb50aaed8e0.418
                0xffff80004025863e       0x18 bin/obj/rslib.a(core-dca77d77b03929cc.core.bbd04c23a4fa3c72-cgu.0.rcgu.o)
 .rodata..Lanon.f5c1b2728a3d49275cd6fdb50aaed8e0.420
                0xffff800040258656        0x7 bin/obj/rslib.a(core-dca77d77b03929cc.core.bbd04c23a4fa3c72-cgu.0.rcgu.o)
 *fill*         0xffff80004025865d        0x3 
 .rodata..Lanon.f5c1b2728a3d49275cd6fdb50aaed8e0.421
                0xffff800040258660       0x20 bin/obj/rslib.a(core-dca77d77b03929cc.core.bbd04c23a4fa3c72-cgu.0.rcgu.o)
 .rodata..Lanon.f5c1b2728a3d49275cd6fdb50aaed8e0.422
                0xffff800040258680        0x5 bin/obj/rslib.a(core-dca77d77b03929cc.core.bbd04c23a4fa3c72-cgu.0.rcgu.o)
 .rodata..Lanon.f5c1b2728a3d49275cd6fdb50aaed8e0.423
                0xffff800040258685        0xd bin/obj/rslib.a(core-dca77d77b03929cc.core.bbd04c23a4fa3c72-cgu.0.rcgu.o)
 .rodata..Lanon.f5c1b2728a3d49275cd6fdb50aaed8e0.424
                0xffff800040258692        0xe bin/obj/rslib.a(core-dca77d77b03929cc.core.bbd04c23a4fa3c72-cgu.0.rcgu.o)
 .rodata..Lanon.f5c1b2728a3d49275cd6fdb50aaed8e0.425
                0xffff8000402586a0        0x1 bin/obj/rslib.a(core-dca77d77b03929cc.core.bbd04c23a4fa3c72-cgu.0.rcgu.o)
 *fill*         0xffff8000402586a1        0x7 
 .rodata..Lanon.f5c1b2728a3d49275cd6fdb50aaed8e0.426
                0xffff8000402586a8       0x10 bin/obj/rslib.a(core-dca77d77b03929cc.core.bbd04c23a4fa3c72-cgu.0.rcgu.o)
 .rodata..Lanon.f5c1b2728a3d49275cd6fdb50aaed8e0.427
                0xffff8000402586b8       0x30 bin/obj/rslib.a(core-dca77d77b03929cc.core.bbd04c23a4fa3c72-cgu.0.rcgu.o)
 .rodata..Lanon.f5c1b2728a3d49275cd6fdb50aaed8e0.428
                0xffff8000402586e8        0x2 bin/obj/rslib.a(core-dca77d77b03929cc.core.bbd04c23a4fa3c72-cgu.0.rcgu.o)
 .rodata..Lanon.f5c1b2728a3d49275cd6fdb50aaed8e0.429
                0xffff8000402586ea       0x18 bin/obj/rslib.a(core-dca77d77b03929cc.core.bbd04c23a4fa3c72-cgu.0.rcgu.o)
 .rodata..Lanon.f5c1b2728a3d49275cd6fdb50aaed8e0.430
                0xffff800040258702        0xb bin/obj/rslib.a(core-dca77d77b03929cc.core.bbd04c23a4fa3c72-cgu.0.rcgu.o)
 .rodata..Lanon.f5c1b2728a3d49275cd6fdb50aaed8e0.431
                0xffff80004025870d        0xa bin/obj/rslib.a(core-dca77d77b03929cc.core.bbd04c23a4fa3c72-cgu.0.rcgu.o)
 *fill*         0xffff800040258717        0x1 
 .rodata..Lanon.f5c1b2728a3d49275cd6fdb50aaed8e0.432
                0xffff800040258718       0x20 bin/obj/rslib.a(core-dca77d77b03929cc.core.bbd04c23a4fa3c72-cgu.0.rcgu.o)
 .rodata..Lanon.f5c1b2728a3d49275cd6fdb50aaed8e0.433
                0xffff800040258738        0x6 bin/obj/rslib.a(core-dca77d77b03929cc.core.bbd04c23a4fa3c72-cgu.0.rcgu.o)
 .rodata..Lanon.f5c1b2728a3d49275cd6fdb50aaed8e0.434
                0xffff80004025873e        0xa bin/obj/rslib.a(core-dca77d77b03929cc.core.bbd04c23a4fa3c72-cgu.0.rcgu.o)
 .rodata..Lanon.f5c1b2728a3d49275cd6fdb50aaed8e0.437
                0xffff800040258748       0x1a bin/obj/rslib.a(core-dca77d77b03929cc.core.bbd04c23a4fa3c72-cgu.0.rcgu.o)
 .rodata..Lanon.f5c1b2728a3d49275cd6fdb50aaed8e0.438
                0xffff800040258762       0x12 bin/obj/rslib.a(core-dca77d77b03929cc.core.bbd04c23a4fa3c72-cgu.0.rcgu.o)
 *fill*         0xffff800040258774        0x4 
 .rodata..Lanon.f5c1b2728a3d49275cd6fdb50aaed8e0.439
                0xffff800040258778       0x20 bin/obj/rslib.a(core-dca77d77b03929cc.core.bbd04c23a4fa3c72-cgu.0.rcgu.o)
 .rodata..Lanon.f5c1b2728a3d49275cd6fdb50aaed8e0.440
                0xffff800040258798       0x2a bin/obj/rslib.a(core-dca77d77b03929cc.core.bbd04c23a4fa3c72-cgu.0.rcgu.o)
 *fill*         0xffff8000402587c2        0x6 
 .rodata..Lanon.f5c1b2728a3d49275cd6fdb50aaed8e0.441
                0xffff8000402587c8       0x10 bin/obj/rslib.a(core-dca77d77b03929cc.core.bbd04c23a4fa3c72-cgu.0.rcgu.o)
 .rodata..Lanon.f5c1b2728a3d49275cd6fdb50aaed8e0.442
                0xffff8000402587d8       0x1f bin/obj/rslib.a(core-dca77d77b03929cc.core.bbd04c23a4fa3c72-cgu.0.rcgu.o)
 *fill*         0xffff8000402587f7        0x1 
 .rodata..Lanon.f5c1b2728a3d49275cd6fdb50aaed8e0.443
                0xffff8000402587f8       0x40 bin/obj/rslib.a(core-dca77d77b03929cc.core.bbd04c23a4fa3c72-cgu.0.rcgu.o)
 .rodata..Lanon.f5c1b2728a3d49275cd6fdb50aaed8e0.445
                0xffff800040258838       0x18 bin/obj/rslib.a(core-dca77d77b03929cc.core.bbd04c23a4fa3c72-cgu.0.rcgu.o)
 .rodata..Lanon.f5c1b2728a3d49275cd6fdb50aaed8e0.446
                0xffff800040258850       0x20 bin/obj/rslib.a(core-dca77d77b03929cc.core.bbd04c23a4fa3c72-cgu.0.rcgu.o)
 .rodata..Lanon.f5c1b2728a3d49275cd6fdb50aaed8e0.447
                0xffff800040258870       0x2b bin/obj/rslib.a(core-dca77d77b03929cc.core.bbd04c23a4fa3c72-cgu.0.rcgu.o)
 *fill*         0xffff80004025889b        0x5 
 .rodata..Lanon.f5c1b2728a3d49275cd6fdb50aaed8e0.449
                0xffff8000402588a0       0x18 bin/obj/rslib.a(core-dca77d77b03929cc.core.bbd04c23a4fa3c72-cgu.0.rcgu.o)
 .rodata..Lanon.f5c1b2728a3d49275cd6fdb50aaed8e0.450
                0xffff8000402588b8       0x18 bin/obj/rslib.a(core-dca77d77b03929cc.core.bbd04c23a4fa3c72-cgu.0.rcgu.o)
 .rodata..Lanon.f5c1b2728a3d49275cd6fdb50aaed8e0.451
                0xffff8000402588d0        0x7 bin/obj/rslib.a(core-dca77d77b03929cc.core.bbd04c23a4fa3c72-cgu.0.rcgu.o)
 *fill*         0xffff8000402588d7        0x1 
 .rodata..Lanon.f5c1b2728a3d49275cd6fdb50aaed8e0.452
                0xffff8000402588d8       0x10 bin/obj/rslib.a(core-dca77d77b03929cc.core.bbd04c23a4fa3c72-cgu.0.rcgu.o)
 .rodata..Lanon.f5c1b2728a3d49275cd6fdb50aaed8e0.453
                0xffff8000402588e8        0x2 bin/obj/rslib.a(core-dca77d77b03929cc.core.bbd04c23a4fa3c72-cgu.0.rcgu.o)
 *fill*         0xffff8000402588ea        0x6 
 .rodata..Lanon.f5c1b2728a3d49275cd6fdb50aaed8e0.454
                0xffff8000402588f0       0x18 bin/obj/rslib.a(core-dca77d77b03929cc.core.bbd04c23a4fa3c72-cgu.0.rcgu.o)
 .rodata..Lanon.f5c1b2728a3d49275cd6fdb50aaed8e0.457
                0xffff800040258908       0x20 bin/obj/rslib.a(core-dca77d77b03929cc.core.bbd04c23a4fa3c72-cgu.0.rcgu.o)
 .rodata..Lanon.f5c1b2728a3d49275cd6fdb50aaed8e0.459
                0xffff800040258928       0x20 bin/obj/rslib.a(core-dca77d77b03929cc.core.bbd04c23a4fa3c72-cgu.0.rcgu.o)
 .rodata..Lanon.f5c1b2728a3d49275cd6fdb50aaed8e0.461
                0xffff800040258948        0x6 bin/obj/rslib.a(core-dca77d77b03929cc.core.bbd04c23a4fa3c72-cgu.0.rcgu.o)
 .rodata..Lanon.f5c1b2728a3d49275cd6fdb50aaed8e0.462
                0xffff80004025894e        0x7 bin/obj/rslib.a(core-dca77d77b03929cc.core.bbd04c23a4fa3c72-cgu.0.rcgu.o)
 *fill*         0xffff800040258955        0x3 
 .rodata..Lanon.f5c1b2728a3d49275cd6fdb50aaed8e0.463
                0xffff800040258958       0x30 bin/obj/rslib.a(core-dca77d77b03929cc.core.bbd04c23a4fa3c72-cgu.0.rcgu.o)
 .rodata..Lanon.f5c1b2728a3d49275cd6fdb50aaed8e0.464
                0xffff800040258988        0xb bin/obj/rslib.a(core-dca77d77b03929cc.core.bbd04c23a4fa3c72-cgu.0.rcgu.o)
 .rodata..Lanon.f5c1b2728a3d49275cd6fdb50aaed8e0.465
                0xffff800040258993       0x26 bin/obj/rslib.a(core-dca77d77b03929cc.core.bbd04c23a4fa3c72-cgu.0.rcgu.o)
 .rodata..Lanon.f5c1b2728a3d49275cd6fdb50aaed8e0.466
                0xffff8000402589b9       0x1d bin/obj/rslib.a(core-dca77d77b03929cc.core.bbd04c23a4fa3c72-cgu.0.rcgu.o)
 .rodata..Lanon.f5c1b2728a3d49275cd6fdb50aaed8e0.467
                0xffff8000402589d6       0x26 bin/obj/rslib.a(core-dca77d77b03929cc.core.bbd04c23a4fa3c72-cgu.0.rcgu.o)
 .rodata..Lanon.f5c1b2728a3d49275cd6fdb50aaed8e0.468
                0xffff8000402589fc       0x26 bin/obj/rslib.a(core-dca77d77b03929cc.core.bbd04c23a4fa3c72-cgu.0.rcgu.o)
 .rodata..Lanon.f5c1b2728a3d49275cd6fdb50aaed8e0.469
                0xffff800040258a22       0x26 bin/obj/rslib.a(core-dca77d77b03929cc.core.bbd04c23a4fa3c72-cgu.0.rcgu.o)
 .rodata..Lanon.f5c1b2728a3d49275cd6fdb50aaed8e0.470
                0xffff800040258a48        0x1 bin/obj/rslib.a(core-dca77d77b03929cc.core.bbd04c23a4fa3c72-cgu.0.rcgu.o)
 *fill*         0xffff800040258a49        0x7 
 .rodata..Lanon.f5c1b2728a3d49275cd6fdb50aaed8e0.471
                0xffff800040258a50       0x30 bin/obj/rslib.a(core-dca77d77b03929cc.core.bbd04c23a4fa3c72-cgu.0.rcgu.o)
 .rodata..Lanon.f5c1b2728a3d49275cd6fdb50aaed8e0.472
                0xffff800040258a80       0x2d bin/obj/rslib.a(core-dca77d77b03929cc.core.bbd04c23a4fa3c72-cgu.0.rcgu.o)
 .rodata..Lanon.f5c1b2728a3d49275cd6fdb50aaed8e0.473
                0xffff800040258aad       0x19 bin/obj/rslib.a(core-dca77d77b03929cc.core.bbd04c23a4fa3c72-cgu.0.rcgu.o)
 .rodata..Lanon.f5c1b2728a3d49275cd6fdb50aaed8e0.474
                0xffff800040258ac6       0x1e bin/obj/rslib.a(core-dca77d77b03929cc.core.bbd04c23a4fa3c72-cgu.0.rcgu.o)
 .rodata..Lanon.f5c1b2728a3d49275cd6fdb50aaed8e0.475
                0xffff800040258ae4       0x29 bin/obj/rslib.a(core-dca77d77b03929cc.core.bbd04c23a4fa3c72-cgu.0.rcgu.o)
 .rodata..Lanon.f5c1b2728a3d49275cd6fdb50aaed8e0.476
                0xffff800040258b0d        0xb bin/obj/rslib.a(core-dca77d77b03929cc.core.bbd04c23a4fa3c72-cgu.0.rcgu.o)
 .rodata..Lanon.f5c1b2728a3d49275cd6fdb50aaed8e0.477
                0xffff800040258b18       0x20 bin/obj/rslib.a(core-dca77d77b03929cc.core.bbd04c23a4fa3c72-cgu.0.rcgu.o)
 .rodata..Lanon.f5c1b2728a3d49275cd6fdb50aaed8e0.479
                0xffff800040258b38        0x6 bin/obj/rslib.a(core-dca77d77b03929cc.core.bbd04c23a4fa3c72-cgu.0.rcgu.o)
 .rodata..Lanon.f5c1b2728a3d49275cd6fdb50aaed8e0.481
                0xffff800040258b3e       0x19 bin/obj/rslib.a(core-dca77d77b03929cc.core.bbd04c23a4fa3c72-cgu.0.rcgu.o)
 .rodata..Lanon.f5c1b2728a3d49275cd6fdb50aaed8e0.482
                0xffff800040258b57       0x1b bin/obj/rslib.a(core-dca77d77b03929cc.core.bbd04c23a4fa3c72-cgu.0.rcgu.o)
 .rodata..Lanon.f5c1b2728a3d49275cd6fdb50aaed8e0.483
                0xffff800040258b72       0x1b bin/obj/rslib.a(core-dca77d77b03929cc.core.bbd04c23a4fa3c72-cgu.0.rcgu.o)
 .rodata..Lanon.f5c1b2728a3d49275cd6fdb50aaed8e0.484
                0xffff800040258b8d       0x1d bin/obj/rslib.a(core-dca77d77b03929cc.core.bbd04c23a4fa3c72-cgu.0.rcgu.o)
 .rodata..Lanon.f5c1b2728a3d49275cd6fdb50aaed8e0.485
                0xffff800040258baa       0x22 bin/obj/rslib.a(core-dca77d77b03929cc.core.bbd04c23a4fa3c72-cgu.0.rcgu.o)
 .rodata..Lanon.f5c1b2728a3d49275cd6fdb50aaed8e0.486
                0xffff800040258bcc       0x22 bin/obj/rslib.a(core-dca77d77b03929cc.core.bbd04c23a4fa3c72-cgu.0.rcgu.o)
 .rodata..Lanon.f5c1b2728a3d49275cd6fdb50aaed8e0.487
                0xffff800040258bee       0x2f bin/obj/rslib.a(core-dca77d77b03929cc.core.bbd04c23a4fa3c72-cgu.0.rcgu.o)
 .rodata..Lanon.f5c1b2728a3d49275cd6fdb50aaed8e0.488
                0xffff800040258c1d       0x3b bin/obj/rslib.a(core-dca77d77b03929cc.core.bbd04c23a4fa3c72-cgu.0.rcgu.o)
 .rodata..Lanon.f5c1b2728a3d49275cd6fdb50aaed8e0.489
                0xffff800040258c58       0x48 bin/obj/rslib.a(core-dca77d77b03929cc.core.bbd04c23a4fa3c72-cgu.0.rcgu.o)
 .rodata..Lanon.f5c1b2728a3d49275cd6fdb50aaed8e0.490
                0xffff800040258ca0        0xc bin/obj/rslib.a(core-dca77d77b03929cc.core.bbd04c23a4fa3c72-cgu.0.rcgu.o)
 .rodata..Lanon.f5c1b2728a3d49275cd6fdb50aaed8e0.491
                0xffff800040258cac        0x2 bin/obj/rslib.a(core-dca77d77b03929cc.core.bbd04c23a4fa3c72-cgu.0.rcgu.o)
 .rodata..Lanon.f5c1b2728a3d49275cd6fdb50aaed8e0.492
                0xffff800040258cae       0x23 bin/obj/rslib.a(core-dca77d77b03929cc.core.bbd04c23a4fa3c72-cgu.0.rcgu.o)
 .rodata..Lanon.f5c1b2728a3d49275cd6fdb50aaed8e0.493
                0xffff800040258cd1       0x1d bin/obj/rslib.a(core-dca77d77b03929cc.core.bbd04c23a4fa3c72-cgu.0.rcgu.o)
 .rodata..Lanon.f5c1b2728a3d49275cd6fdb50aaed8e0.494
                0xffff800040258cee       0x24 bin/obj/rslib.a(core-dca77d77b03929cc.core.bbd04c23a4fa3c72-cgu.0.rcgu.o)
 .rodata..Lanon.f5c1b2728a3d49275cd6fdb50aaed8e0.495
                0xffff800040258d12       0x15 bin/obj/rslib.a(core-dca77d77b03929cc.core.bbd04c23a4fa3c72-cgu.0.rcgu.o)
 *fill*         0xffff800040258d27        0x1 
 .rodata..Lanon.f5c1b2728a3d49275cd6fdb50aaed8e0.496
                0xffff800040258d28       0x30 bin/obj/rslib.a(core-dca77d77b03929cc.core.bbd04c23a4fa3c72-cgu.0.rcgu.o)
 .rodata..Lanon.f5c1b2728a3d49275cd6fdb50aaed8e0.497
                0xffff800040258d58       0x30 bin/obj/rslib.a(core-dca77d77b03929cc.core.bbd04c23a4fa3c72-cgu.0.rcgu.o)
 .rodata..Lanon.f5c1b2728a3d49275cd6fdb50aaed8e0.498
                0xffff800040258d88       0x30 bin/obj/rslib.a(core-dca77d77b03929cc.core.bbd04c23a4fa3c72-cgu.0.rcgu.o)
 .rodata..Lanon.f5c1b2728a3d49275cd6fdb50aaed8e0.499
                0xffff800040258db8       0x30 bin/obj/rslib.a(core-dca77d77b03929cc.core.bbd04c23a4fa3c72-cgu.0.rcgu.o)
 .rodata..Lanon.f5c1b2728a3d49275cd6fdb50aaed8e0.500
                0xffff800040258de8       0x1a bin/obj/rslib.a(core-dca77d77b03929cc.core.bbd04c23a4fa3c72-cgu.0.rcgu.o)
 *fill*         0xffff800040258e02        0x6 
 .rodata..Lanon.f5c1b2728a3d49275cd6fdb50aaed8e0.501
                0xffff800040258e08       0x10 bin/obj/rslib.a(core-dca77d77b03929cc.core.bbd04c23a4fa3c72-cgu.0.rcgu.o)
 .rodata..Lanon.f5c1b2728a3d49275cd6fdb50aaed8e0.502
                0xffff800040258e18       0x20 bin/obj/rslib.a(core-dca77d77b03929cc.core.bbd04c23a4fa3c72-cgu.0.rcgu.o)
 .rodata..Lanon.f5c1b2728a3d49275cd6fdb50aaed8e0.504
                0xffff800040258e38       0x18 bin/obj/rslib.a(core-dca77d77b03929cc.core.bbd04c23a4fa3c72-cgu.0.rcgu.o)
 .rodata..Lanon.f5c1b2728a3d49275cd6fdb50aaed8e0.505
                0xffff800040258e50        0x2 bin/obj/rslib.a(core-dca77d77b03929cc.core.bbd04c23a4fa3c72-cgu.0.rcgu.o)
 *fill*         0xffff800040258e52        0x6 
 .rodata..Lanon.f5c1b2728a3d49275cd6fdb50aaed8e0.506
                0xffff800040258e58       0x20 bin/obj/rslib.a(core-dca77d77b03929cc.core.bbd04c23a4fa3c72-cgu.0.rcgu.o)
 .rodata..Lanon.f5c1b2728a3d49275cd6fdb50aaed8e0.507
                0xffff800040258e78        0x1 bin/obj/rslib.a(core-dca77d77b03929cc.core.bbd04c23a4fa3c72-cgu.0.rcgu.o)
 *fill*         0xffff800040258e79        0x7 
 .rodata..Lanon.f5c1b2728a3d49275cd6fdb50aaed8e0.508
                0xffff800040258e80       0x30 bin/obj/rslib.a(core-dca77d77b03929cc.core.bbd04c23a4fa3c72-cgu.0.rcgu.o)
 .rodata..Lanon.f5c1b2728a3d49275cd6fdb50aaed8e0.509
                0xffff800040258eb0       0x18 bin/obj/rslib.a(core-dca77d77b03929cc.core.bbd04c23a4fa3c72-cgu.0.rcgu.o)
 .rodata..Lanon.f5c1b2728a3d49275cd6fdb50aaed8e0.510
                0xffff800040258ec8       0x29 bin/obj/rslib.a(core-dca77d77b03929cc.core.bbd04c23a4fa3c72-cgu.0.rcgu.o)
 .rodata..Lanon.f5c1b2728a3d49275cd6fdb50aaed8e0.511
                0xffff800040258ef1       0x3d bin/obj/rslib.a(core-dca77d77b03929cc.core.bbd04c23a4fa3c72-cgu.0.rcgu.o)
 *fill*         0xffff800040258f2e        0x2 
 .rodata..Lanon.f5c1b2728a3d49275cd6fdb50aaed8e0.512
                0xffff800040258f30       0x10 bin/obj/rslib.a(core-dca77d77b03929cc.core.bbd04c23a4fa3c72-cgu.0.rcgu.o)
 .rodata..Lanon.f5c1b2728a3d49275cd6fdb50aaed8e0.513
                0xffff800040258f40       0x23 bin/obj/rslib.a(core-dca77d77b03929cc.core.bbd04c23a4fa3c72-cgu.0.rcgu.o)
 .rodata..Lanon.f5c1b2728a3d49275cd6fdb50aaed8e0.514
                0xffff800040258f63       0x24 bin/obj/rslib.a(core-dca77d77b03929cc.core.bbd04c23a4fa3c72-cgu.0.rcgu.o)
 .rodata..Lanon.f5c1b2728a3d49275cd6fdb50aaed8e0.515
                0xffff800040258f87       0x18 bin/obj/rslib.a(core-dca77d77b03929cc.core.bbd04c23a4fa3c72-cgu.0.rcgu.o)
 .rodata..Lanon.f5c1b2728a3d49275cd6fdb50aaed8e0.516
                0xffff800040258f9f       0x18 bin/obj/rslib.a(core-dca77d77b03929cc.core.bbd04c23a4fa3c72-cgu.0.rcgu.o)
 .rodata..Lanon.f5c1b2728a3d49275cd6fdb50aaed8e0.518
                0xffff800040258fb7       0x1c bin/obj/rslib.a(core-dca77d77b03929cc.core.bbd04c23a4fa3c72-cgu.0.rcgu.o)
 *fill*         0xffff800040258fd3        0x5 
 .rodata..Lswitch.table._ZN4core9panicking19assert_failed_inner17h09d676bdb30b5f2cE
                0xffff800040258fd8       0x18 bin/obj/rslib.a(core-dca77d77b03929cc.core.bbd04c23a4fa3c72-cgu.0.rcgu.o)
 .rodata..Lswitch.table._ZN4core9panicking19assert_failed_inner17h09d676bdb30b5f2cE.210
                0xffff800040258ff0       0x18 bin/obj/rslib.a(core-dca77d77b03929cc.core.bbd04c23a4fa3c72-cgu.0.rcgu.o)
 .rodata..Lswitch.table._ZN70_$LT$core..num..error..ParseIntError$u20$as$u20$core..fmt..Display$GT$3fmt17hc33f567679727834E
                0xffff800040259008       0x28 bin/obj/rslib.a(core-dca77d77b03929cc.core.bbd04c23a4fa3c72-cgu.0.rcgu.o)
 .rodata..Lswitch.table._ZN70_$LT$core..num..error..ParseIntError$u20$as$u20$core..fmt..Display$GT$3fmt17hc33f567679727834E.211
                0xffff800040259030       0x28 bin/obj/rslib.a(core-dca77d77b03929cc.core.bbd04c23a4fa3c72-cgu.0.rcgu.o)
 .rodata..Lswitch.table._ZN72_$LT$core..net..parser..AddrParseError$u20$as$u20$core..fmt..Display$GT$3fmt17h2ca00bd4bb12a433E
                0xffff800040259058       0x30 bin/obj/rslib.a(core-dca77d77b03929cc.core.bbd04c23a4fa3c72-cgu.0.rcgu.o)
 .rodata..Lswitch.table._ZN72_$LT$core..net..parser..AddrParseError$u20$as$u20$core..fmt..Display$GT$3fmt17h2ca00bd4bb12a433E.212
                0xffff800040259088       0x30 bin/obj/rslib.a(core-dca77d77b03929cc.core.bbd04c23a4fa3c72-cgu.0.rcgu.o)
 *(.rodata.*)
 *(.platform_info)
                0xffff8000402590b8                . = ALIGN (0x8)
                0xffff8000402590b8                __kernel_init_stage0_start = .
 *(.kernel_init_stage0)
 .kernel_init_stage0
                0xffff8000402590b8        0x8 bin/obj/kernel/irq/irq.o
 .kernel_init_stage0
                0xffff8000402590c0       0x18 bin/obj/kernel/init/init_drivers.o
 .kernel_init_stage0
                0xffff8000402590d8        0x8 bin/obj/kernel/init/init.o
                0xffff8000402590e0                __kernel_init_stage0_end = .
                0xffff8000402590e0                . = ALIGN (0x8)
                0xffff8000402590e0                __kernel_init_stage1_start = .
 *(.kernel_init_stage1)
 .kernel_init_stage1
                0xffff8000402590e0       0x10 bin/obj/kernel/init/init_drivers.o
 .kernel_init_stage1
                0xffff8000402590f0        0x8 bin/obj/kernel/init/init.o
                0xffff8000402590f8                __kernel_init_stage1_end = .
                0xffff8000402590f8                . = ALIGN (0x8)
                0xffff8000402590f8                __kernel_init_stage2_start = .
 *(.kernel_init_stage2)
 .kernel_init_stage2
                0xffff8000402590f8       0x18 bin/obj/kernel/init/init_drivers.o
 .kernel_init_stage2
                0xffff800040259110        0x8 bin/obj/kernel/init/init.o
                0xffff800040259118                __kernel_init_stage2_end = .
                0xffff80004025a000                . = ALIGN (0x1000)
 *fill*         0xffff800040259118      0xee8 
                0xffff80004025a000                __rodata_end = .
                0x0000000000017000                __rodata_size = (__rodata_end - __rodata_start)

.data           0xffff80004025a000     0x1000 load address 0x000000004025a000
                0xffff80004025a000                __data_start = .
 *(.data*)
 .data          0xffff80004025a000        0x0 bin/obj/__kernel/mm/mm.o
 .data          0xffff80004025a000        0x0 bin/obj/__kernel/mm/reloc/reloc.o
 .data          0xffff80004025a000        0x0 bin/obj/__arm/cache/cache.o
 .data          0xffff80004025a000        0x0 bin/obj/__arm/cache/icache.o
 .data          0xffff80004025a000        0x0 bin/obj/__arm/cache/dcache.o
 .data          0xffff80004025a000        0x0 bin/obj/__arm/tfa/smccc.o
 .data          0xffff80004025a000        0x0 bin/obj/__arm/sysregs/arm_generic_timer.o
 .data          0xffff80004025a000        0x0 bin/obj/__arm/sysregs/sysregs.o
 .data          0xffff80004025a000        0x0 bin/obj/__arm/exceptions/el2_vectors.o
 .data          0xffff80004025a000        0x0 bin/obj/__arm/exceptions/exceptions.o
 .data          0xffff80004025a000        0x0 bin/obj/__arm/exceptions/el1_vectors.o
 .data          0xffff80004025a000        0x0 bin/obj/__arm/cpu.o
 .data          0xffff80004025a000        0x0 bin/obj/__arm/mmu/regs/mmu_sysregs.o
 .data          0xffff80004025a000        0x0 bin/obj/__lib/lock/spinlock_irq.o
 .data          0xffff80004025a000        0x0 bin/obj/__lib/lock/spinlock.o
 .data          0xffff80004025a000        0x0 bin/obj/__lib/lock/irqlock.o
 .data          0xffff80004025a000        0x0 bin/obj/__lib/lock/corelock.o
 .data          0xffff80004025a000        0x0 bin/obj/__lib/mem/memcpy/memcpy.o
 .data          0xffff80004025a000        0x0 bin/obj/__lib/mem/memzero/memzero.o
 .data          0xffff80004025a000        0x0 bin/obj/__lib/mem/mem.o
 .data          0xffff80004025a000        0x0 bin/obj/__boot/clean_bss.o
 .data          0xffff80004025a000        0x0 bin/obj/__boot/boot.o
 .data          0xffff80004025a000        0x0 bin/obj/__boot/el1.o
 .data          0xffff80004025a000        0x0 bin/obj/__boot/stacks.o
 .data          0xffff80004025a000        0x0 bin/obj/__boot/secondary_entry.o
 .data          0xffff80004025a000        0x0 bin/obj/__boot/gpr.o
 .data          0xffff80004025a000        0x0 bin/obj/__drivers/tmu/tmu_critical_default.o
 .data          0xffff80004025a000        0x0 bin/obj/__drivers/interrupts/gicv3/gicv3_arm_interface.o
 .data          0xffff80004025a000        0x0 bin/obj/kernel/irq/irq.o
 .data          0xffff80004025a000       0x10 bin/obj/kernel/devices/drivers.o
                0xffff80004025a000                UART2_DRIVER
 .data          0xffff80004025a010        0x0 bin/obj/kernel/init/early_init.o
 .data          0xffff80004025a010        0x0 bin/obj/kernel/init/init_drivers.o
 .data          0xffff80004025a010        0x0 bin/obj/kernel/init/init.o
 .data          0xffff80004025a010        0x0 bin/obj/kernel/lib/smp.o
 .data          0xffff80004025a010        0x0 bin/obj/kernel/mm/phys/page_allocator.o
 .data          0xffff80004025a010        0x0 bin/obj/kernel/mm/init/identity_mapping.o
 .data          0xffff80004025a010        0x0 bin/obj/kernel/mm/init/init.o
 .data          0xffff80004025a010        0x0 bin/obj/kernel/mm/init/mem_regions/early_kalloc.o
 .data          0xffff80004025a010        0x0 bin/obj/kernel/mm/init/mem_regions/mem_regions.o
 .data          0xffff80004025a010        0x0 bin/obj/kernel/mm/mm_info.o
 .data          0xffff80004025a010        0x0 bin/obj/kernel/mm/mm.o
 .data          0xffff80004025a010        0x0 bin/obj/kernel/mm/virt/containers/containers.o
 .data          0xffff80004025a010        0x0 bin/obj/kernel/mm/virt/vmalloc.o
 .data          0xffff80004025a010        0x0 bin/obj/kernel/mm/virt/mdt/mdt.o
 .data          0xffff80004025a010        0x8 bin/obj/kernel/mm/malloc/reserve_malloc.o
 .data          0xffff80004025a018        0x0 bin/obj/kernel/mm/malloc/raw_kmalloc.o
 .data          0xffff80004025a018        0x0 bin/obj/kernel/mm/reloc/reloc.o
 .data          0xffff80004025a018        0x0 bin/obj/kernel/kernel_entry.o
 .data          0xffff80004025a018        0x0 bin/obj/kernel/io/term.o
 .data          0xffff80004025a018        0x0 bin/obj/kernel/panic/panic.o
 .data          0xffff80004025a018        0x0 bin/obj/kernel/panic/panic_puts.o
 .data          0xffff80004025a018        0x0 bin/obj/kernel/panic/panic_exception/panic_exception_handlers.o
 .data          0xffff80004025a018        0x0 bin/obj/kernel/panic/panic_exception/esr/esr.o
 .data          0xffff80004025a018        0x0 bin/obj/kernel/panic/panic_exception/esr/data_abort.o
 .data          0xffff80004025a018        0x0 bin/obj/arm/tfa/smccc.o
 .data          0xffff80004025a018        0x0 bin/obj/arm/cpu.o
 .data          0xffff80004025a018        0x0 bin/obj/arm/exceptions/handlers/el1/el1_low_a32_serror.o
 .data          0xffff80004025a018        0x0 bin/obj/arm/exceptions/handlers/el1/el1_low_a32_fiq.o
 .data          0xffff80004025a018        0x0 bin/obj/arm/exceptions/handlers/el1/el1_low_a64_sync.o
 .data          0xffff80004025a018        0x0 bin/obj/arm/exceptions/handlers/el1/el1_cur_spx_fiq.o
 .data          0xffff80004025a018        0x0 bin/obj/arm/exceptions/handlers/el1/el1_cur_spx_irq.o
 .data          0xffff80004025a018        0x0 bin/obj/arm/exceptions/handlers/el1/el1_cur_spx_serror.o
 .data          0xffff80004025a018        0x0 bin/obj/arm/exceptions/handlers/el1/el1_low_a32_irq.o
 .data          0xffff80004025a018        0x0 bin/obj/arm/exceptions/handlers/el1/el1_low_a64_fiq.o
 .data          0xffff80004025a018        0x0 bin/obj/arm/exceptions/handlers/el1/el1_low_a64_irq.o
 .data          0xffff80004025a018        0x0 bin/obj/arm/exceptions/handlers/el1/el1_cur_sp0_sync.o
 .data          0xffff80004025a018        0x0 bin/obj/arm/exceptions/handlers/el1/el1_low_a64_serror.o
 .data          0xffff80004025a018        0x0 bin/obj/arm/exceptions/handlers/el1/el1_low_a32_sync.o
 .data          0xffff80004025a018        0x0 bin/obj/arm/exceptions/handlers/el1/el1_cur_spx_sync.o
 .data          0xffff80004025a018        0x0 bin/obj/arm/exceptions/handlers/el1/el1_cur_sp0_fiq.o
 .data          0xffff80004025a018        0x0 bin/obj/arm/exceptions/handlers/el1/el1_cur_sp0_serror.o
 .data          0xffff80004025a018        0x0 bin/obj/arm/exceptions/handlers/el1/el1_cur_sp0_irq.o
 .data          0xffff80004025a018        0x0 bin/obj/arm/exceptions/handlers/el2/el2_low_a32_serror.o
 .data          0xffff80004025a018        0x0 bin/obj/arm/exceptions/handlers/el2/el2_cur_spx_serror.o
 .data          0xffff80004025a018        0x0 bin/obj/arm/exceptions/handlers/el2/el2_low_a64_serror.o
 .data          0xffff80004025a018        0x0 bin/obj/arm/exceptions/handlers/el2/el2_low_a64_sync.o
 .data          0xffff80004025a018        0x0 bin/obj/arm/exceptions/handlers/el2/el2_cur_sp0_irq.o
 .data          0xffff80004025a018        0x0 bin/obj/arm/exceptions/handlers/el2/el2_cur_sp0_serror.o
 .data          0xffff80004025a018        0x0 bin/obj/arm/exceptions/handlers/el2/el2_low_a64_irq.o
 .data          0xffff80004025a018        0x0 bin/obj/arm/exceptions/handlers/el2/el2_low_a64_fiq.o
 .data          0xffff80004025a018        0x0 bin/obj/arm/exceptions/handlers/el2/el2_cur_spx_fiq.o
 .data          0xffff80004025a018        0x0 bin/obj/arm/exceptions/handlers/el2/el2_low_a32_irq.o
 .data          0xffff80004025a018        0x0 bin/obj/arm/exceptions/handlers/el2/el2_cur_sp0_fiq.o
 .data          0xffff80004025a018        0x0 bin/obj/arm/exceptions/handlers/el2/el2_low_a32_fiq.o
 .data          0xffff80004025a018        0x0 bin/obj/arm/exceptions/handlers/el2/el2_cur_spx_sync.o
 .data          0xffff80004025a018        0x0 bin/obj/arm/exceptions/handlers/el2/el2_low_a32_sync.o
 .data          0xffff80004025a018        0x0 bin/obj/arm/exceptions/handlers/el2/el2_cur_sp0_sync.o
 .data          0xffff80004025a018        0x0 bin/obj/arm/exceptions/handlers/el2/el2_cur_spx_irq.o
 .data          0xffff80004025a018        0x0 bin/obj/arm/exceptions/handlers/exception_macros.o
 .data          0xffff80004025a018        0x0 bin/obj/arm/exceptions/exceptions.o
 .data          0xffff80004025a018        0x0 bin/obj/arm/mmu/regs/mmu_sysregs.o
 .data          0xffff80004025a018        0x0 bin/obj/arm/mmu/mmu_debugging.o
 .data          0xffff80004025a018        0x0 bin/obj/arm/mmu/mmu.o
 .data          0xffff80004025a018        0x0 bin/obj/lib/lock/corelock.o
 .data          0xffff80004025a018        0x0 bin/obj/lib/malloc/xalloc.o
 .data          0xffff80004025a018        0x0 bin/obj/lib/string/string.o
 .data          0xffff80004025a018        0x0 bin/obj/lib/string/fmt.o
 .data          0xffff80004025a018        0x0 bin/obj/lib/mem/memcpy/memcpy.o
 .data          0xffff80004025a018        0x0 bin/obj/lib/mem/mem.o
 .data          0xffff80004025a018        0x0 bin/obj/drivers/arm_generic_timer/arm_generic_timer.o
 .data          0xffff80004025a018        0x0 bin/obj/drivers/tmu/tmu.o
 .data          0xffff80004025a018        0x0 bin/obj/drivers/interrupts/gicv3/gicv3.o
 .data          0xffff80004025a018        0x0 bin/obj/drivers/uart/uart.o
                0xffff80004025b000                . = ALIGN (0x1000)
 *fill*         0xffff80004025a018      0xfe8 
                0xffff80004025b000                __data_end = .
                0x0000000000001000                __data_size = (__data_end - __data_start)

.igot.plt       0xffff80004025b000        0x0 load address 0x000000004025b000
 .igot.plt      0xffff80004025b000        0x0 bin/obj/__kernel/mm/reloc/reloc.o

.bss            0xffff80004025b000   0xc0c000 load address 0x000000004025b000
                0xffff80004025b000                __bss_start = .
 *(.bss*)
 .bss           0xffff80004025b000        0x0 bin/obj/__kernel/mm/mm.o
 .bss           0xffff80004025b000        0x0 bin/obj/__kernel/mm/reloc/reloc.o
 .bss           0xffff80004025b000        0x0 bin/obj/__arm/cache/cache.o
 .bss           0xffff80004025b000        0x0 bin/obj/__arm/cache/icache.o
 .bss           0xffff80004025b000        0x0 bin/obj/__arm/cache/dcache.o
 .bss           0xffff80004025b000        0x0 bin/obj/__arm/tfa/smccc.o
 .bss           0xffff80004025b000        0x0 bin/obj/__arm/sysregs/arm_generic_timer.o
 .bss           0xffff80004025b000        0x0 bin/obj/__arm/sysregs/sysregs.o
 .bss           0xffff80004025b000        0x0 bin/obj/__arm/exceptions/el2_vectors.o
 .bss           0xffff80004025b000        0x0 bin/obj/__arm/exceptions/exceptions.o
 .bss           0xffff80004025b000        0x0 bin/obj/__arm/exceptions/el1_vectors.o
 .bss           0xffff80004025b000        0x0 bin/obj/__arm/cpu.o
 .bss           0xffff80004025b000        0x0 bin/obj/__arm/mmu/regs/mmu_sysregs.o
 .bss           0xffff80004025b000        0x0 bin/obj/__lib/lock/spinlock_irq.o
 .bss           0xffff80004025b000        0x0 bin/obj/__lib/lock/spinlock.o
 .bss           0xffff80004025b000        0x0 bin/obj/__lib/lock/irqlock.o
 .bss           0xffff80004025b000        0x0 bin/obj/__lib/lock/corelock.o
 .bss           0xffff80004025b000        0x0 bin/obj/__lib/mem/memcpy/memcpy.o
 .bss           0xffff80004025b000        0x0 bin/obj/__lib/mem/memzero/memzero.o
 .bss           0xffff80004025b000        0x0 bin/obj/__lib/mem/mem.o
 .bss           0xffff80004025b000        0x0 bin/obj/__boot/clean_bss.o
 .bss           0xffff80004025b000        0x0 bin/obj/__boot/boot.o
 .bss           0xffff80004025b000        0x0 bin/obj/__boot/el1.o
 .bss           0xffff80004025b000        0x0 bin/obj/__boot/stacks.o
 .bss           0xffff80004025b000        0x0 bin/obj/__boot/secondary_entry.o
 .bss           0xffff80004025b000        0x0 bin/obj/__boot/gpr.o
 .bss           0xffff80004025b000        0x0 bin/obj/__drivers/tmu/tmu_critical_default.o
 .bss           0xffff80004025b000        0x0 bin/obj/__drivers/interrupts/gicv3/gicv3_arm_interface.o
 .bss           0xffff80004025b000      0xc00 bin/obj/kernel/irq/irq.o
 .bss           0xffff80004025bc00     0x93a0 bin/obj/kernel/devices/drivers.o
 .bss           0xffff800040264fa0        0x0 bin/obj/kernel/init/early_init.o
 .bss           0xffff800040264fa0        0x0 bin/obj/kernel/init/init_drivers.o
 .bss           0xffff800040264fa0        0x0 bin/obj/kernel/init/init.o
 .bss           0xffff800040264fa0        0x0 bin/obj/kernel/lib/smp.o
 .bss           0xffff800040264fa0       0x20 bin/obj/kernel/mm/phys/page_allocator.o
 .bss           0xffff800040264fc0        0x0 bin/obj/kernel/mm/init/identity_mapping.o
 .bss           0xffff800040264fc0        0x0 bin/obj/kernel/mm/init/init.o
 .bss           0xffff800040264fc0       0x28 bin/obj/kernel/mm/init/mem_regions/early_kalloc.o
 .bss           0xffff800040264fe8        0x0 bin/obj/kernel/mm/init/mem_regions/mem_regions.o
 .bss           0xffff800040264fe8       0x30 bin/obj/kernel/mm/mm_info.o
 *fill*         0xffff800040265018        0x8 
 .bss           0xffff800040265020       0xa0 bin/obj/kernel/mm/mm.o
                0xffff800040265020                mm_mmu_h
 .bss           0xffff8000402650c0       0x10 bin/obj/kernel/mm/virt/containers/containers.o
 .bss           0xffff8000402650d0       0x20 bin/obj/kernel/mm/virt/vmalloc.o
 .bss           0xffff8000402650f0        0x8 bin/obj/kernel/mm/virt/mdt/mdt.o
 .bss           0xffff8000402650f8      0x204 bin/obj/kernel/mm/malloc/reserve_malloc.o
 *fill*         0xffff8000402652fc        0x4 
 .bss           0xffff800040265300        0x8 bin/obj/kernel/mm/malloc/raw_kmalloc.o
 .bss           0xffff800040265308        0x0 bin/obj/kernel/mm/reloc/reloc.o
 .bss           0xffff800040265308        0x0 bin/obj/kernel/kernel_entry.o
 .bss           0xffff800040265308     0x1028 bin/obj/kernel/io/term.o
 .bss           0xffff800040266330        0x0 bin/obj/kernel/panic/panic.o
 .bss           0xffff800040266330        0x0 bin/obj/kernel/panic/panic_puts.o
 .bss           0xffff800040266330        0x0 bin/obj/kernel/panic/panic_exception/panic_exception_handlers.o
 .bss           0xffff800040266330        0x0 bin/obj/kernel/panic/panic_exception/esr/esr.o
 .bss           0xffff800040266330        0x0 bin/obj/kernel/panic/panic_exception/esr/data_abort.o
 .bss           0xffff800040266330        0x0 bin/obj/arm/tfa/smccc.o
 .bss           0xffff800040266330        0x0 bin/obj/arm/cpu.o
 .bss           0xffff800040266330        0x0 bin/obj/arm/exceptions/handlers/el1/el1_low_a32_serror.o
 .bss           0xffff800040266330        0x0 bin/obj/arm/exceptions/handlers/el1/el1_low_a32_fiq.o
 .bss           0xffff800040266330        0x0 bin/obj/arm/exceptions/handlers/el1/el1_low_a64_sync.o
 .bss           0xffff800040266330        0x0 bin/obj/arm/exceptions/handlers/el1/el1_cur_spx_fiq.o
 .bss           0xffff800040266330        0x0 bin/obj/arm/exceptions/handlers/el1/el1_cur_spx_irq.o
 .bss           0xffff800040266330        0x0 bin/obj/arm/exceptions/handlers/el1/el1_cur_spx_serror.o
 .bss           0xffff800040266330        0x0 bin/obj/arm/exceptions/handlers/el1/el1_low_a32_irq.o
 .bss           0xffff800040266330        0x0 bin/obj/arm/exceptions/handlers/el1/el1_low_a64_fiq.o
 .bss           0xffff800040266330        0x0 bin/obj/arm/exceptions/handlers/el1/el1_low_a64_irq.o
 .bss           0xffff800040266330        0x0 bin/obj/arm/exceptions/handlers/el1/el1_cur_sp0_sync.o
 .bss           0xffff800040266330        0x0 bin/obj/arm/exceptions/handlers/el1/el1_low_a64_serror.o
 .bss           0xffff800040266330        0x0 bin/obj/arm/exceptions/handlers/el1/el1_low_a32_sync.o
 .bss           0xffff800040266330        0x0 bin/obj/arm/exceptions/handlers/el1/el1_cur_spx_sync.o
 .bss           0xffff800040266330        0x0 bin/obj/arm/exceptions/handlers/el1/el1_cur_sp0_fiq.o
 .bss           0xffff800040266330        0x0 bin/obj/arm/exceptions/handlers/el1/el1_cur_sp0_serror.o
 .bss           0xffff800040266330        0x0 bin/obj/arm/exceptions/handlers/el1/el1_cur_sp0_irq.o
 .bss           0xffff800040266330        0x0 bin/obj/arm/exceptions/handlers/el2/el2_low_a32_serror.o
 .bss           0xffff800040266330        0x0 bin/obj/arm/exceptions/handlers/el2/el2_cur_spx_serror.o
 .bss           0xffff800040266330        0x0 bin/obj/arm/exceptions/handlers/el2/el2_low_a64_serror.o
 .bss           0xffff800040266330        0x0 bin/obj/arm/exceptions/handlers/el2/el2_low_a64_sync.o
 .bss           0xffff800040266330        0x0 bin/obj/arm/exceptions/handlers/el2/el2_cur_sp0_irq.o
 .bss           0xffff800040266330        0x0 bin/obj/arm/exceptions/handlers/el2/el2_cur_sp0_serror.o
 .bss           0xffff800040266330        0x0 bin/obj/arm/exceptions/handlers/el2/el2_low_a64_irq.o
 .bss           0xffff800040266330        0x0 bin/obj/arm/exceptions/handlers/el2/el2_low_a64_fiq.o
 .bss           0xffff800040266330        0x0 bin/obj/arm/exceptions/handlers/el2/el2_cur_spx_fiq.o
 .bss           0xffff800040266330        0x0 bin/obj/arm/exceptions/handlers/el2/el2_low_a32_irq.o
 .bss           0xffff800040266330        0x0 bin/obj/arm/exceptions/handlers/el2/el2_cur_sp0_fiq.o
 .bss           0xffff800040266330        0x0 bin/obj/arm/exceptions/handlers/el2/el2_low_a32_fiq.o
 .bss           0xffff800040266330        0x0 bin/obj/arm/exceptions/handlers/el2/el2_cur_spx_sync.o
 .bss           0xffff800040266330        0x0 bin/obj/arm/exceptions/handlers/el2/el2_low_a32_sync.o
 .bss           0xffff800040266330        0x0 bin/obj/arm/exceptions/handlers/el2/el2_cur_sp0_sync.o
 .bss           0xffff800040266330        0x0 bin/obj/arm/exceptions/handlers/el2/el2_cur_spx_irq.o
 .bss           0xffff800040266330        0x0 bin/obj/arm/exceptions/handlers/exception_macros.o
 .bss           0xffff800040266330        0x0 bin/obj/arm/exceptions/exceptions.o
 .bss           0xffff800040266330        0x0 bin/obj/arm/mmu/regs/mmu_sysregs.o
 .bss           0xffff800040266330        0x0 bin/obj/arm/mmu/mmu_debugging.o
 .bss           0xffff800040266330        0x0 bin/obj/arm/mmu/mmu.o
 .bss           0xffff800040266330        0x0 bin/obj/lib/lock/corelock.o
 .bss           0xffff800040266330        0x0 bin/obj/lib/malloc/xalloc.o
 .bss           0xffff800040266330        0x0 bin/obj/lib/string/string.o
 .bss           0xffff800040266330        0x0 bin/obj/lib/string/fmt.o
 *fill*         0xffff800040266330       0x10 
 .bss           0xffff800040266340   0xc00000 bin/obj/lib/mem/memcpy/memcpy.o
                0xffff800040266340                src
                0xffff800040666340                dst
                0xffff800040a66340                ref
 .bss           0xffff800040e66340        0x0 bin/obj/lib/mem/mem.o
 .bss           0xffff800040e66340        0x0 bin/obj/drivers/arm_generic_timer/arm_generic_timer.o
 .bss           0xffff800040e66340        0x0 bin/obj/drivers/tmu/tmu.o
 .bss           0xffff800040e66340        0x0 bin/obj/drivers/interrupts/gicv3/gicv3.o
 .bss           0xffff800040e66340        0x8 bin/obj/drivers/uart/uart.o
 *(COMMON)
                0xffff800040e67000                . = ALIGN (0x1000)
 *fill*         0xffff800040e66348      0xcb8 
                0xffff800040e67000                __bss_end = .
                0x0000000000c0c000                __bss_size = (__bss_end - __bss_start)

.stacks         0xffff800040e67000   0x480000 load address 0x000000004025b000
                0xffff800040e67000                __stacks_start = .
                0xffff800040e67000                __stacks_el2_start = .
                0xffff800040ee7000                . = (. + (__NUM_CORES * __EL2_STACK_SIZE))
 *fill*         0xffff800040e67000    0x80000 
                0xffff800040ee7000                __stacks_el2_end = .
                0xffff800040ee7000                . = ALIGN (0x10)
                0xffff800040ee7000                __stacks_el1_start = .
                0xffff8000412e7000                . = (. + (__NUM_CORES * __EL1_STACK_SIZE))
 *fill*         0xffff800040ee7000   0x400000 
                0xffff8000412e7000                __stacks_el1_end = .
                0xffff8000412e7000                . = ALIGN (0x1000)
                0xffff8000412e7000                __stacks_end = .
                0x0000000000480000                __stacks_size = (__stacks_end - __stacks_start)
                0xffff8000412e7000                __heap_start = .
                0xffffffffffffffff                __heap_end = 0xffffffffffffffff
                0x00007fffbed18fff                __heap_size = (__heap_end - __heap_start)
LOAD bin/obj/__kernel/mm/mm.o
LOAD bin/obj/__kernel/mm/reloc/reloc.o
LOAD bin/obj/__arm/cache/cache.o
LOAD bin/obj/__arm/cache/icache.o
LOAD bin/obj/__arm/cache/dcache.o
LOAD bin/obj/__arm/tfa/smccc.o
LOAD bin/obj/__arm/sysregs/arm_generic_timer.o
LOAD bin/obj/__arm/sysregs/sysregs.o
LOAD bin/obj/__arm/exceptions/el2_vectors.o
LOAD bin/obj/__arm/exceptions/exceptions.o
LOAD bin/obj/__arm/exceptions/el1_vectors.o
LOAD bin/obj/__arm/cpu.o
LOAD bin/obj/__arm/mmu/regs/mmu_sysregs.o
LOAD bin/obj/__lib/lock/spinlock_irq.o
LOAD bin/obj/__lib/lock/spinlock.o
LOAD bin/obj/__lib/lock/irqlock.o
LOAD bin/obj/__lib/lock/corelock.o
LOAD bin/obj/__lib/mem/memcpy/memcpy.o
LOAD bin/obj/__lib/mem/memzero/memzero.o
LOAD bin/obj/__lib/mem/mem.o
LOAD bin/obj/__boot/clean_bss.o
LOAD bin/obj/__boot/boot.o
LOAD bin/obj/__boot/el1.o
LOAD bin/obj/__boot/stacks.o
LOAD bin/obj/__boot/secondary_entry.o
LOAD bin/obj/__boot/gpr.o
LOAD bin/obj/__drivers/tmu/tmu_critical_default.o
LOAD bin/obj/__drivers/interrupts/gicv3/gicv3_arm_interface.o
LOAD bin/obj/kernel/irq/irq.o
LOAD bin/obj/kernel/devices/drivers.o
LOAD bin/obj/kernel/init/early_init.o
LOAD bin/obj/kernel/init/init_drivers.o
LOAD bin/obj/kernel/init/init.o
LOAD bin/obj/kernel/lib/smp.o
LOAD bin/obj/kernel/mm/phys/page_allocator.o
LOAD bin/obj/kernel/mm/init/identity_mapping.o
LOAD bin/obj/kernel/mm/init/init.o
LOAD bin/obj/kernel/mm/init/mem_regions/early_kalloc.o
LOAD bin/obj/kernel/mm/init/mem_regions/mem_regions.o
LOAD bin/obj/kernel/mm/mm_info.o
LOAD bin/obj/kernel/mm/mm.o
LOAD bin/obj/kernel/mm/virt/containers/containers.o
LOAD bin/obj/kernel/mm/virt/vmalloc.o
LOAD bin/obj/kernel/mm/virt/mdt/mdt.o
LOAD bin/obj/kernel/mm/malloc/reserve_malloc.o
LOAD bin/obj/kernel/mm/malloc/raw_kmalloc.o
LOAD bin/obj/kernel/mm/reloc/reloc.o
LOAD bin/obj/kernel/kernel_entry.o
LOAD bin/obj/kernel/io/term.o
LOAD bin/obj/kernel/panic/panic.o
LOAD bin/obj/kernel/panic/panic_puts.o
LOAD bin/obj/kernel/panic/panic_exception/panic_exception_handlers.o
LOAD bin/obj/kernel/panic/panic_exception/esr/esr.o
LOAD bin/obj/kernel/panic/panic_exception/esr/data_abort.o
LOAD bin/obj/arm/tfa/smccc.o
LOAD bin/obj/arm/cpu.o
LOAD bin/obj/arm/exceptions/handlers/el1/el1_low_a32_serror.o
LOAD bin/obj/arm/exceptions/handlers/el1/el1_low_a32_fiq.o
LOAD bin/obj/arm/exceptions/handlers/el1/el1_low_a64_sync.o
LOAD bin/obj/arm/exceptions/handlers/el1/el1_cur_spx_fiq.o
LOAD bin/obj/arm/exceptions/handlers/el1/el1_cur_spx_irq.o
LOAD bin/obj/arm/exceptions/handlers/el1/el1_cur_spx_serror.o
LOAD bin/obj/arm/exceptions/handlers/el1/el1_low_a32_irq.o
LOAD bin/obj/arm/exceptions/handlers/el1/el1_low_a64_fiq.o
LOAD bin/obj/arm/exceptions/handlers/el1/el1_low_a64_irq.o
LOAD bin/obj/arm/exceptions/handlers/el1/el1_cur_sp0_sync.o
LOAD bin/obj/arm/exceptions/handlers/el1/el1_low_a64_serror.o
LOAD bin/obj/arm/exceptions/handlers/el1/el1_low_a32_sync.o
LOAD bin/obj/arm/exceptions/handlers/el1/el1_cur_spx_sync.o
LOAD bin/obj/arm/exceptions/handlers/el1/el1_cur_sp0_fiq.o
LOAD bin/obj/arm/exceptions/handlers/el1/el1_cur_sp0_serror.o
LOAD bin/obj/arm/exceptions/handlers/el1/el1_cur_sp0_irq.o
LOAD bin/obj/arm/exceptions/handlers/el2/el2_low_a32_serror.o
LOAD bin/obj/arm/exceptions/handlers/el2/el2_cur_spx_serror.o
LOAD bin/obj/arm/exceptions/handlers/el2/el2_low_a64_serror.o
LOAD bin/obj/arm/exceptions/handlers/el2/el2_low_a64_sync.o
LOAD bin/obj/arm/exceptions/handlers/el2/el2_cur_sp0_irq.o
LOAD bin/obj/arm/exceptions/handlers/el2/el2_cur_sp0_serror.o
LOAD bin/obj/arm/exceptions/handlers/el2/el2_low_a64_irq.o
LOAD bin/obj/arm/exceptions/handlers/el2/el2_low_a64_fiq.o
LOAD bin/obj/arm/exceptions/handlers/el2/el2_cur_spx_fiq.o
LOAD bin/obj/arm/exceptions/handlers/el2/el2_low_a32_irq.o
LOAD bin/obj/arm/exceptions/handlers/el2/el2_cur_sp0_fiq.o
LOAD bin/obj/arm/exceptions/handlers/el2/el2_low_a32_fiq.o
LOAD bin/obj/arm/exceptions/handlers/el2/el2_cur_spx_sync.o
LOAD bin/obj/arm/exceptions/handlers/el2/el2_low_a32_sync.o
LOAD bin/obj/arm/exceptions/handlers/el2/el2_cur_sp0_sync.o
LOAD bin/obj/arm/exceptions/handlers/el2/el2_cur_spx_irq.o
LOAD bin/obj/arm/exceptions/handlers/exception_macros.o
LOAD bin/obj/arm/exceptions/exceptions.o
LOAD bin/obj/arm/mmu/regs/mmu_sysregs.o
LOAD bin/obj/arm/mmu/mmu_debugging.o
LOAD bin/obj/arm/mmu/mmu.o
LOAD bin/obj/lib/lock/corelock.o
LOAD bin/obj/lib/malloc/xalloc.o
LOAD bin/obj/lib/string/string.o
LOAD bin/obj/lib/string/fmt.o
LOAD bin/obj/lib/mem/memcpy/memcpy.o
LOAD bin/obj/lib/mem/mem.o
LOAD bin/obj/drivers/arm_generic_timer/arm_generic_timer.o
LOAD bin/obj/drivers/tmu/tmu.o
LOAD bin/obj/drivers/interrupts/gicv3/gicv3.o
LOAD bin/obj/drivers/uart/uart.o
LOAD bin/obj/rslib.a
OUTPUT(bin/kernel.elf elf64-littleaarch64)
LOAD linker stubs

.debug_line     0x0000000000000000    0x25699
 .debug_line    0x0000000000000000       0x52 bin/obj/__kernel/mm/mm.o
 .debug_line    0x0000000000000052       0x5a bin/obj/__kernel/mm/reloc/reloc.o
 .debug_line    0x00000000000000ac       0x5a bin/obj/__arm/cache/cache.o
 .debug_line    0x0000000000000106       0x59 bin/obj/__arm/cache/icache.o
 .debug_line    0x000000000000015f       0x59 bin/obj/__arm/cache/dcache.o
 .debug_line    0x00000000000001b8       0x50 bin/obj/__arm/tfa/smccc.o
 .debug_line    0x0000000000000208       0x9b bin/obj/__arm/sysregs/arm_generic_timer.o
 .debug_line    0x00000000000002a3       0x67 bin/obj/__arm/sysregs/sysregs.o
 .debug_line    0x000000000000030a       0xb3 bin/obj/__arm/exceptions/el2_vectors.o
 .debug_line    0x00000000000003bd       0x64 bin/obj/__arm/exceptions/exceptions.o
 .debug_line    0x0000000000000421       0xb3 bin/obj/__arm/exceptions/el1_vectors.o
 .debug_line    0x00000000000004d4       0x4c bin/obj/__arm/cpu.o
 .debug_line    0x0000000000000520       0x72 bin/obj/__arm/mmu/regs/mmu_sysregs.o
 .debug_line    0x0000000000000592       0x59 bin/obj/__lib/lock/spinlock_irq.o
 .debug_line    0x00000000000005eb       0x65 bin/obj/__lib/lock/spinlock.o
 .debug_line    0x0000000000000650       0x4f bin/obj/__lib/lock/irqlock.o
 .debug_line    0x000000000000069f       0x7a bin/obj/__lib/lock/corelock.o
 .debug_line    0x0000000000000719       0xd4 bin/obj/__lib/mem/memcpy/memcpy.o
 .debug_line    0x00000000000007ed       0x4c bin/obj/__lib/mem/mem.o
 .debug_line    0x0000000000000839       0x5e bin/obj/__boot/clean_bss.o
 .debug_line    0x0000000000000897       0x70 bin/obj/__boot/boot.o
 .debug_line    0x0000000000000907       0x6b bin/obj/__boot/el1.o
 .debug_line    0x0000000000000972       0x69 bin/obj/__boot/stacks.o
 .debug_line    0x00000000000009db       0x5e bin/obj/__boot/secondary_entry.o
 .debug_line    0x0000000000000a39       0x8c bin/obj/__boot/gpr.o
 .debug_line    0x0000000000000ac5       0x4c bin/obj/__drivers/tmu/tmu_critical_default.o
 .debug_line    0x0000000000000b11       0x59 bin/obj/__drivers/interrupts/gicv3/gicv3_arm_interface.o
 .debug_line    0x0000000000000b6a      0x12a bin/obj/kernel/irq/irq.o
 .debug_line    0x0000000000000c94       0xc6 bin/obj/kernel/devices/drivers.o
 .debug_line    0x0000000000000d5a       0xe8 bin/obj/kernel/init/early_init.o
 .debug_line    0x0000000000000e42      0x168 bin/obj/kernel/init/init_drivers.o
 .debug_line    0x0000000000000faa      0x156 bin/obj/kernel/init/init.o
 .debug_line    0x0000000000001100       0xba bin/obj/kernel/lib/smp.o
 .debug_line    0x00000000000011ba      0x6dd bin/obj/kernel/mm/phys/page_allocator.o
 .debug_line    0x0000000000001897      0x200 bin/obj/kernel/mm/init/identity_mapping.o
 .debug_line    0x0000000000001a97      0x18a bin/obj/kernel/mm/init/init.o
 .debug_line    0x0000000000001c21      0x647 bin/obj/kernel/mm/init/mem_regions/early_kalloc.o
 .debug_line    0x0000000000002268       0x8e bin/obj/kernel/mm/init/mem_regions/mem_regions.o
 .debug_line    0x00000000000022f6      0x279 bin/obj/kernel/mm/mm_info.o
 .debug_line    0x000000000000256f       0xbb bin/obj/kernel/mm/mm.o
 .debug_line    0x000000000000262a      0x332 bin/obj/kernel/mm/virt/containers/containers.o
 .debug_line    0x000000000000295c      0xc5e bin/obj/kernel/mm/virt/vmalloc.o
 .debug_line    0x00000000000035ba      0x543 bin/obj/kernel/mm/virt/mdt/mdt.o
 .debug_line    0x0000000000003afd      0x272 bin/obj/kernel/mm/malloc/reserve_malloc.o
 .debug_line    0x0000000000003d6f      0x418 bin/obj/kernel/mm/malloc/raw_kmalloc.o
 .debug_line    0x0000000000004187      0x120 bin/obj/kernel/mm/reloc/reloc.o
 .debug_line    0x00000000000042a7      0x1bf bin/obj/kernel/kernel_entry.o
 .debug_line    0x0000000000004466      0x176 bin/obj/kernel/io/term.o
 .debug_line    0x00000000000045dc      0x1fa bin/obj/kernel/panic/panic.o
 .debug_line    0x00000000000047d6       0x95 bin/obj/kernel/panic/panic_puts.o
 .debug_line    0x000000000000486b      0x103 bin/obj/kernel/panic/panic_exception/panic_exception_handlers.o
 .debug_line    0x000000000000496e      0x11f bin/obj/kernel/panic/panic_exception/esr/esr.o
 .debug_line    0x0000000000004a8d      0x1dd bin/obj/kernel/panic/panic_exception/esr/data_abort.o
 .debug_line    0x0000000000004c6a       0x4c bin/obj/arm/tfa/smccc.o
 .debug_line    0x0000000000004cb6       0x83 bin/obj/arm/cpu.o
 .debug_line    0x0000000000004d39       0x92 bin/obj/arm/exceptions/handlers/el1/el1_low_a32_serror.o
 .debug_line    0x0000000000004dcb       0x92 bin/obj/arm/exceptions/handlers/el1/el1_low_a32_fiq.o
 .debug_line    0x0000000000004e5d       0x92 bin/obj/arm/exceptions/handlers/el1/el1_low_a64_sync.o
 .debug_line    0x0000000000004eef       0x92 bin/obj/arm/exceptions/handlers/el1/el1_cur_spx_fiq.o
 .debug_line    0x0000000000004f81       0xb8 bin/obj/arm/exceptions/handlers/el1/el1_cur_spx_irq.o
 .debug_line    0x0000000000005039       0x92 bin/obj/arm/exceptions/handlers/el1/el1_cur_spx_serror.o
 .debug_line    0x00000000000050cb       0x92 bin/obj/arm/exceptions/handlers/el1/el1_low_a32_irq.o
 .debug_line    0x000000000000515d       0x92 bin/obj/arm/exceptions/handlers/el1/el1_low_a64_fiq.o
 .debug_line    0x00000000000051ef       0x92 bin/obj/arm/exceptions/handlers/el1/el1_low_a64_irq.o
 .debug_line    0x0000000000005281       0x92 bin/obj/arm/exceptions/handlers/el1/el1_cur_sp0_sync.o
 .debug_line    0x0000000000005313       0x92 bin/obj/arm/exceptions/handlers/el1/el1_low_a64_serror.o
 .debug_line    0x00000000000053a5       0x92 bin/obj/arm/exceptions/handlers/el1/el1_low_a32_sync.o
 .debug_line    0x0000000000005437       0x92 bin/obj/arm/exceptions/handlers/el1/el1_cur_spx_sync.o
 .debug_line    0x00000000000054c9       0x92 bin/obj/arm/exceptions/handlers/el1/el1_cur_sp0_fiq.o
 .debug_line    0x000000000000555b       0x92 bin/obj/arm/exceptions/handlers/el1/el1_cur_sp0_serror.o
 .debug_line    0x00000000000055ed       0x92 bin/obj/arm/exceptions/handlers/el1/el1_cur_sp0_irq.o
 .debug_line    0x000000000000567f       0x92 bin/obj/arm/exceptions/handlers/el2/el2_low_a32_serror.o
 .debug_line    0x0000000000005711       0x92 bin/obj/arm/exceptions/handlers/el2/el2_cur_spx_serror.o
 .debug_line    0x00000000000057a3       0x92 bin/obj/arm/exceptions/handlers/el2/el2_low_a64_serror.o
 .debug_line    0x0000000000005835       0x92 bin/obj/arm/exceptions/handlers/el2/el2_low_a64_sync.o
 .debug_line    0x00000000000058c7       0x92 bin/obj/arm/exceptions/handlers/el2/el2_cur_sp0_irq.o
 .debug_line    0x0000000000005959       0x92 bin/obj/arm/exceptions/handlers/el2/el2_cur_sp0_serror.o
 .debug_line    0x00000000000059eb       0x92 bin/obj/arm/exceptions/handlers/el2/el2_low_a64_irq.o
 .debug_line    0x0000000000005a7d       0x92 bin/obj/arm/exceptions/handlers/el2/el2_low_a64_fiq.o
 .debug_line    0x0000000000005b0f       0x92 bin/obj/arm/exceptions/handlers/el2/el2_cur_spx_fiq.o
 .debug_line    0x0000000000005ba1       0x92 bin/obj/arm/exceptions/handlers/el2/el2_low_a32_irq.o
 .debug_line    0x0000000000005c33       0x92 bin/obj/arm/exceptions/handlers/el2/el2_cur_sp0_fiq.o
 .debug_line    0x0000000000005cc5       0x92 bin/obj/arm/exceptions/handlers/el2/el2_low_a32_fiq.o
 .debug_line    0x0000000000005d57       0x92 bin/obj/arm/exceptions/handlers/el2/el2_cur_spx_sync.o
 .debug_line    0x0000000000005de9       0x92 bin/obj/arm/exceptions/handlers/el2/el2_low_a32_sync.o
 .debug_line    0x0000000000005e7b       0x92 bin/obj/arm/exceptions/handlers/el2/el2_cur_sp0_sync.o
 .debug_line    0x0000000000005f0d       0x92 bin/obj/arm/exceptions/handlers/el2/el2_cur_spx_irq.o
 .debug_line    0x0000000000005f9f      0x12b bin/obj/arm/exceptions/handlers/exception_macros.o
 .debug_line    0x00000000000060ca      0x163 bin/obj/arm/exceptions/exceptions.o
 .debug_line    0x000000000000622d      0x1d7 bin/obj/arm/mmu/regs/mmu_sysregs.o
 .debug_line    0x0000000000006404      0x4e6 bin/obj/arm/mmu/mmu_debugging.o
 .debug_line    0x00000000000068ea      0xe90 bin/obj/arm/mmu/mmu.o
 .debug_line    0x000000000000777a       0xf1 bin/obj/lib/lock/corelock.o
 .debug_line    0x000000000000786b      0x477 bin/obj/lib/malloc/xalloc.o
 .debug_line    0x0000000000007ce2      0x116 bin/obj/lib/string/string.o
 .debug_line    0x0000000000007df8      0x332 bin/obj/lib/string/fmt.o
 .debug_line    0x000000000000812a      0x189 bin/obj/lib/mem/memcpy/memcpy.o
 .debug_line    0x00000000000082b3       0x9e bin/obj/lib/mem/mem.o
 .debug_line    0x0000000000008351      0x298 bin/obj/drivers/arm_generic_timer/arm_generic_timer.o
 .debug_line    0x00000000000085e9      0x74d bin/obj/drivers/tmu/tmu.o
 .debug_line    0x0000000000008d36      0x4c2 bin/obj/drivers/interrupts/gicv3/gicv3.o
 .debug_line    0x00000000000091f8      0xa2c bin/obj/drivers/uart/uart.o
 .debug_line    0x0000000000009c24      0x5c5 bin/obj/rslib.a(imx8mp_kernel-1a53598e06c50be6.imx8mp_kernel.241a9a11e0e6ae75-cgu.0.rcgu.o)
 .debug_line    0x000000000000a1e9    0x1a93a bin/obj/rslib.a(core-dca77d77b03929cc.core.bbd04c23a4fa3c72-cgu.0.rcgu.o)
 .debug_line    0x0000000000024b23       0xd4 bin/obj/rslib.a(compiler_builtins-fabd8ee97a026881.compiler_builtins.f286be164c3a919f-cgu.099.rcgu.o)
 .debug_line    0x0000000000024bf7      0x392 bin/obj/rslib.a(compiler_builtins-fabd8ee97a026881.compiler_builtins.f286be164c3a919f-cgu.173.rcgu.o)
 .debug_line    0x0000000000024f89      0x11b bin/obj/rslib.a(compiler_builtins-fabd8ee97a026881.compiler_builtins.f286be164c3a919f-cgu.242.rcgu.o)
 .debug_line    0x00000000000250a4      0x2e4 bin/obj/rslib.a(compiler_builtins-fabd8ee97a026881.compiler_builtins.f286be164c3a919f-cgu.295.rcgu.o)
 .debug_line    0x0000000000025388      0x311 bin/obj/rslib.a(compiler_builtins-fabd8ee97a026881.compiler_builtins.f286be164c3a919f-cgu.018.rcgu.o)

.debug_line_str
                0x0000000000000000     0x1b3d
 .debug_line_str
                0x0000000000000000     0x1b3d bin/obj/__kernel/mm/mm.o
                                         0x3f (size before relaxing)
 .debug_line_str
                0x0000000000001b3d       0x48 bin/obj/__kernel/mm/reloc/reloc.o
 .debug_line_str
                0x0000000000001b3d       0x42 bin/obj/__arm/cache/cache.o
 .debug_line_str
                0x0000000000001b3d       0x43 bin/obj/__arm/cache/icache.o
 .debug_line_str
                0x0000000000001b3d       0x43 bin/obj/__arm/cache/dcache.o
 .debug_line_str
                0x0000000000001b3d       0x40 bin/obj/__arm/tfa/smccc.o
 .debug_line_str
                0x0000000000001b3d       0x50 bin/obj/__arm/sysregs/arm_generic_timer.o
 .debug_line_str
                0x0000000000001b3d       0x46 bin/obj/__arm/sysregs/sysregs.o
 .debug_line_str
                0x0000000000001b3d       0x4d bin/obj/__arm/exceptions/el2_vectors.o
 .debug_line_str
                0x0000000000001b3d       0x4c bin/obj/__arm/exceptions/exceptions.o
 .debug_line_str
                0x0000000000001b3d       0x4d bin/obj/__arm/exceptions/el1_vectors.o
 .debug_line_str
                0x0000000000001b3d       0x3a bin/obj/__arm/cpu.o
 .debug_line_str
                0x0000000000001b3d       0x4b bin/obj/__arm/mmu/regs/mmu_sysregs.o
 .debug_line_str
                0x0000000000001b3d       0x48 bin/obj/__lib/lock/spinlock_irq.o
 .debug_line_str
                0x0000000000001b3d       0x44 bin/obj/__lib/lock/spinlock.o
 .debug_line_str
                0x0000000000001b3d       0x43 bin/obj/__lib/lock/irqlock.o
 .debug_line_str
                0x0000000000001b3d       0x44 bin/obj/__lib/lock/corelock.o
 .debug_line_str
                0x0000000000001b3d       0x48 bin/obj/__lib/mem/memcpy/memcpy.o
 .debug_line_str
                0x0000000000001b3d       0x3e bin/obj/__lib/mem/mem.o
 .debug_line_str
                0x0000000000001b3d       0x41 bin/obj/__boot/clean_bss.o
 .debug_line_str
                0x0000000000001b3d       0x3c bin/obj/__boot/boot.o
 .debug_line_str
                0x0000000000001b3d       0x3b bin/obj/__boot/el1.o
 .debug_line_str
                0x0000000000001b3d       0x3e bin/obj/__boot/stacks.o
 .debug_line_str
                0x0000000000001b3d       0x47 bin/obj/__boot/secondary_entry.o
 .debug_line_str
                0x0000000000001b3d       0x3b bin/obj/__boot/gpr.o
 .debug_line_str
                0x0000000000001b3d       0x53 bin/obj/__drivers/tmu/tmu_critical_default.o
 .debug_line_str
                0x0000000000001b3d       0x5f bin/obj/__drivers/interrupts/gicv3/gicv3_arm_interface.o
 .debug_line_str
                0x0000000000001b3d      0x23e bin/obj/kernel/irq/irq.o
 .debug_line_str
                0x0000000000001b3d      0x231 bin/obj/kernel/devices/drivers.o
 .debug_line_str
                0x0000000000001b3d      0x215 bin/obj/kernel/init/early_init.o
 .debug_line_str
                0x0000000000001b3d      0x2bb bin/obj/kernel/init/init_drivers.o
 .debug_line_str
                0x0000000000001b3d      0x239 bin/obj/kernel/init/init.o
 .debug_line_str
                0x0000000000001b3d      0x134 bin/obj/kernel/lib/smp.o
 .debug_line_str
                0x0000000000001b3d      0x221 bin/obj/kernel/mm/phys/page_allocator.o
 .debug_line_str
                0x0000000000001b3d      0x253 bin/obj/kernel/mm/init/identity_mapping.o
 .debug_line_str
                0x0000000000001b3d      0x2b6 bin/obj/kernel/mm/init/init.o
 .debug_line_str
                0x0000000000001b3d      0x235 bin/obj/kernel/mm/init/mem_regions/early_kalloc.o
 .debug_line_str
                0x0000000000001b3d      0x199 bin/obj/kernel/mm/init/mem_regions/mem_regions.o
 .debug_line_str
                0x0000000000001b3d      0x1b3 bin/obj/kernel/mm/mm_info.o
 .debug_line_str
                0x0000000000001b3d      0x165 bin/obj/kernel/mm/mm.o
 .debug_line_str
                0x0000000000001b3d      0x25b bin/obj/kernel/mm/virt/containers/containers.o
 .debug_line_str
                0x0000000000001b3d      0x256 bin/obj/kernel/mm/virt/vmalloc.o
 .debug_line_str
                0x0000000000001b3d      0x2a2 bin/obj/kernel/mm/virt/mdt/mdt.o
 .debug_line_str
                0x0000000000001b3d      0x241 bin/obj/kernel/mm/malloc/reserve_malloc.o
 .debug_line_str
                0x0000000000001b3d      0x276 bin/obj/kernel/mm/malloc/raw_kmalloc.o
 .debug_line_str
                0x0000000000001b3d      0x247 bin/obj/kernel/mm/reloc/reloc.o
 .debug_line_str
                0x0000000000001b3d      0x337 bin/obj/kernel/kernel_entry.o
 .debug_line_str
                0x0000000000001b3d      0x16c bin/obj/kernel/io/term.o
 .debug_line_str
                0x0000000000001b3d      0x1cf bin/obj/kernel/panic/panic.o
 .debug_line_str
                0x0000000000001b3d       0xfb bin/obj/kernel/panic/panic_puts.o
 .debug_line_str
                0x0000000000001b3d      0x1bd bin/obj/kernel/panic/panic_exception/panic_exception_handlers.o
 .debug_line_str
                0x0000000000001b3d      0x1bc bin/obj/kernel/panic/panic_exception/esr/esr.o
 .debug_line_str
                0x0000000000001b3d      0x11e bin/obj/kernel/panic/panic_exception/esr/data_abort.o
 .debug_line_str
                0x0000000000001b3d       0xb7 bin/obj/arm/tfa/smccc.o
 .debug_line_str
                0x0000000000001b3d       0xc2 bin/obj/arm/cpu.o
 .debug_line_str
                0x0000000000001b3d      0x182 bin/obj/arm/exceptions/handlers/el1/el1_low_a32_serror.o
 .debug_line_str
                0x0000000000001b3d      0x179 bin/obj/arm/exceptions/handlers/el1/el1_low_a32_fiq.o
 .debug_line_str
                0x0000000000001b3d      0x17c bin/obj/arm/exceptions/handlers/el1/el1_low_a64_sync.o
 .debug_line_str
                0x0000000000001b3d      0x179 bin/obj/arm/exceptions/handlers/el1/el1_cur_spx_fiq.o
 .debug_line_str
                0x0000000000001b3d      0x1fe bin/obj/arm/exceptions/handlers/el1/el1_cur_spx_irq.o
 .debug_line_str
                0x0000000000001b3d      0x182 bin/obj/arm/exceptions/handlers/el1/el1_cur_spx_serror.o
 .debug_line_str
                0x0000000000001b3d      0x179 bin/obj/arm/exceptions/handlers/el1/el1_low_a32_irq.o
 .debug_line_str
                0x0000000000001b3d      0x179 bin/obj/arm/exceptions/handlers/el1/el1_low_a64_fiq.o
 .debug_line_str
                0x0000000000001b3d      0x179 bin/obj/arm/exceptions/handlers/el1/el1_low_a64_irq.o
 .debug_line_str
                0x0000000000001b3d      0x17c bin/obj/arm/exceptions/handlers/el1/el1_cur_sp0_sync.o
 .debug_line_str
                0x0000000000001b3d      0x182 bin/obj/arm/exceptions/handlers/el1/el1_low_a64_serror.o
 .debug_line_str
                0x0000000000001b3d      0x17c bin/obj/arm/exceptions/handlers/el1/el1_low_a32_sync.o
 .debug_line_str
                0x0000000000001b3d      0x17c bin/obj/arm/exceptions/handlers/el1/el1_cur_spx_sync.o
 .debug_line_str
                0x0000000000001b3d      0x179 bin/obj/arm/exceptions/handlers/el1/el1_cur_sp0_fiq.o
 .debug_line_str
                0x0000000000001b3d      0x182 bin/obj/arm/exceptions/handlers/el1/el1_cur_sp0_serror.o
 .debug_line_str
                0x0000000000001b3d      0x179 bin/obj/arm/exceptions/handlers/el1/el1_cur_sp0_irq.o
 .debug_line_str
                0x0000000000001b3d      0x182 bin/obj/arm/exceptions/handlers/el2/el2_low_a32_serror.o
 .debug_line_str
                0x0000000000001b3d      0x182 bin/obj/arm/exceptions/handlers/el2/el2_cur_spx_serror.o
 .debug_line_str
                0x0000000000001b3d      0x182 bin/obj/arm/exceptions/handlers/el2/el2_low_a64_serror.o
 .debug_line_str
                0x0000000000001b3d      0x17c bin/obj/arm/exceptions/handlers/el2/el2_low_a64_sync.o
 .debug_line_str
                0x0000000000001b3d      0x179 bin/obj/arm/exceptions/handlers/el2/el2_cur_sp0_irq.o
 .debug_line_str
                0x0000000000001b3d      0x182 bin/obj/arm/exceptions/handlers/el2/el2_cur_sp0_serror.o
 .debug_line_str
                0x0000000000001b3d      0x179 bin/obj/arm/exceptions/handlers/el2/el2_low_a64_irq.o
 .debug_line_str
                0x0000000000001b3d      0x179 bin/obj/arm/exceptions/handlers/el2/el2_low_a64_fiq.o
 .debug_line_str
                0x0000000000001b3d      0x179 bin/obj/arm/exceptions/handlers/el2/el2_cur_spx_fiq.o
 .debug_line_str
                0x0000000000001b3d      0x179 bin/obj/arm/exceptions/handlers/el2/el2_low_a32_irq.o
 .debug_line_str
                0x0000000000001b3d      0x179 bin/obj/arm/exceptions/handlers/el2/el2_cur_sp0_fiq.o
 .debug_line_str
                0x0000000000001b3d      0x179 bin/obj/arm/exceptions/handlers/el2/el2_low_a32_fiq.o
 .debug_line_str
                0x0000000000001b3d      0x17c bin/obj/arm/exceptions/handlers/el2/el2_cur_spx_sync.o
 .debug_line_str
                0x0000000000001b3d      0x17c bin/obj/arm/exceptions/handlers/el2/el2_low_a32_sync.o
 .debug_line_str
                0x0000000000001b3d      0x17c bin/obj/arm/exceptions/handlers/el2/el2_cur_sp0_sync.o
 .debug_line_str
                0x0000000000001b3d      0x179 bin/obj/arm/exceptions/handlers/el2/el2_cur_spx_irq.o
 .debug_line_str
                0x0000000000001b3d      0x174 bin/obj/arm/exceptions/handlers/exception_macros.o
 .debug_line_str
                0x0000000000001b3d      0x12a bin/obj/arm/exceptions/exceptions.o
 .debug_line_str
                0x0000000000001b3d      0x178 bin/obj/arm/mmu/regs/mmu_sysregs.o
 .debug_line_str
                0x0000000000001b3d      0x1c8 bin/obj/arm/mmu/mmu_debugging.o
 .debug_line_str
                0x0000000000001b3d      0x1b5 bin/obj/arm/mmu/mmu.o
 .debug_line_str
                0x0000000000001b3d      0x116 bin/obj/lib/lock/corelock.o
 .debug_line_str
                0x0000000000001b3d      0x120 bin/obj/lib/malloc/xalloc.o
 .debug_line_str
                0x0000000000001b3d      0x109 bin/obj/lib/string/string.o
 .debug_line_str
                0x0000000000001b3d      0x10b bin/obj/lib/string/fmt.o
 .debug_line_str
                0x0000000000001b3d      0x13d bin/obj/lib/mem/memcpy/memcpy.o
 .debug_line_str
                0x0000000000001b3d       0xee bin/obj/lib/mem/mem.o
 .debug_line_str
                0x0000000000001b3d      0x1b7 bin/obj/drivers/arm_generic_timer/arm_generic_timer.o
 .debug_line_str
                0x0000000000001b3d      0x261 bin/obj/drivers/tmu/tmu.o
 .debug_line_str
                0x0000000000001b3d      0x2a4 bin/obj/drivers/interrupts/gicv3/gicv3.o
 .debug_line_str
                0x0000000000001b3d      0x2c2 bin/obj/drivers/uart/uart.o

.debug_info     0x0000000000000000    0x40899
 .debug_info    0x0000000000000000       0x28 bin/obj/__kernel/mm/mm.o
 .debug_info    0x0000000000000028       0x28 bin/obj/__kernel/mm/reloc/reloc.o
 .debug_info    0x0000000000000050       0x28 bin/obj/__arm/cache/cache.o
 .debug_info    0x0000000000000078       0x28 bin/obj/__arm/cache/icache.o
 .debug_info    0x00000000000000a0       0x28 bin/obj/__arm/cache/dcache.o
 .debug_info    0x00000000000000c8       0x28 bin/obj/__arm/tfa/smccc.o
 .debug_info    0x00000000000000f0       0x29 bin/obj/__arm/sysregs/arm_generic_timer.o
 .debug_info    0x0000000000000119       0x28 bin/obj/__arm/sysregs/sysregs.o
 .debug_info    0x0000000000000141       0x23 bin/obj/__arm/exceptions/el2_vectors.o
 .debug_info    0x0000000000000164       0x28 bin/obj/__arm/exceptions/exceptions.o
 .debug_info    0x000000000000018c       0x23 bin/obj/__arm/exceptions/el1_vectors.o
 .debug_info    0x00000000000001af       0x28 bin/obj/__arm/cpu.o
 .debug_info    0x00000000000001d7       0x29 bin/obj/__arm/mmu/regs/mmu_sysregs.o
 .debug_info    0x0000000000000200       0x28 bin/obj/__lib/lock/spinlock_irq.o
 .debug_info    0x0000000000000228       0x28 bin/obj/__lib/lock/spinlock.o
 .debug_info    0x0000000000000250       0x28 bin/obj/__lib/lock/irqlock.o
 .debug_info    0x0000000000000278       0x29 bin/obj/__lib/lock/corelock.o
 .debug_info    0x00000000000002a1       0x29 bin/obj/__lib/mem/memcpy/memcpy.o
 .debug_info    0x00000000000002ca       0x28 bin/obj/__lib/mem/mem.o
 .debug_info    0x00000000000002f2       0x28 bin/obj/__boot/clean_bss.o
 .debug_info    0x000000000000031a       0x29 bin/obj/__boot/boot.o
 .debug_info    0x0000000000000343       0x29 bin/obj/__boot/el1.o
 .debug_info    0x000000000000036c       0x29 bin/obj/__boot/stacks.o
 .debug_info    0x0000000000000395       0x28 bin/obj/__boot/secondary_entry.o
 .debug_info    0x00000000000003bd       0x29 bin/obj/__boot/gpr.o
 .debug_info    0x00000000000003e6       0x28 bin/obj/__drivers/tmu/tmu_critical_default.o
 .debug_info    0x000000000000040e       0x28 bin/obj/__drivers/interrupts/gicv3/gicv3_arm_interface.o
 .debug_info    0x0000000000000436      0x8ce bin/obj/kernel/irq/irq.o
 .debug_info    0x0000000000000d04      0x4d0 bin/obj/kernel/devices/drivers.o
 .debug_info    0x00000000000011d4      0x16d bin/obj/kernel/init/early_init.o
 .debug_info    0x0000000000001341      0x7fc bin/obj/kernel/init/init_drivers.o
 .debug_info    0x0000000000001b3d      0x3a5 bin/obj/kernel/init/init.o
 .debug_info    0x0000000000001ee2      0x42e bin/obj/kernel/lib/smp.o
 .debug_info    0x0000000000002310      0xc66 bin/obj/kernel/mm/phys/page_allocator.o
 .debug_info    0x0000000000002f76      0xb1a bin/obj/kernel/mm/init/identity_mapping.o
 .debug_info    0x0000000000003a90      0x7a1 bin/obj/kernel/mm/init/init.o
 .debug_info    0x0000000000004231      0xb60 bin/obj/kernel/mm/init/mem_regions/early_kalloc.o
 .debug_info    0x0000000000004d91      0x1d5 bin/obj/kernel/mm/init/mem_regions/mem_regions.o
 .debug_info    0x0000000000004f66      0x80e bin/obj/kernel/mm/mm_info.o
 .debug_info    0x0000000000005774      0x2f0 bin/obj/kernel/mm/mm.o
 .debug_info    0x0000000000005a64      0x9a8 bin/obj/kernel/mm/virt/containers/containers.o
 .debug_info    0x000000000000640c     0x1bd4 bin/obj/kernel/mm/virt/vmalloc.o
 .debug_info    0x0000000000007fe0      0xc93 bin/obj/kernel/mm/virt/mdt/mdt.o
 .debug_info    0x0000000000008c73      0x855 bin/obj/kernel/mm/malloc/reserve_malloc.o
 .debug_info    0x00000000000094c8      0xe6b bin/obj/kernel/mm/malloc/raw_kmalloc.o
 .debug_info    0x000000000000a333      0x6a2 bin/obj/kernel/mm/reloc/reloc.o
 .debug_info    0x000000000000a9d5      0x3d4 bin/obj/kernel/kernel_entry.o
 .debug_info    0x000000000000ada9      0x61d bin/obj/kernel/io/term.o
 .debug_info    0x000000000000b3c6      0x4a0 bin/obj/kernel/panic/panic.o
 .debug_info    0x000000000000b866      0x1a1 bin/obj/kernel/panic/panic_puts.o
 .debug_info    0x000000000000ba07      0x2f8 bin/obj/kernel/panic/panic_exception/panic_exception_handlers.o
 .debug_info    0x000000000000bcff      0x309 bin/obj/kernel/panic/panic_exception/esr/esr.o
 .debug_info    0x000000000000c008      0x206 bin/obj/kernel/panic/panic_exception/esr/data_abort.o
 .debug_info    0x000000000000c20e       0x69 bin/obj/arm/tfa/smccc.o
 .debug_info    0x000000000000c277      0x11a bin/obj/arm/cpu.o
 .debug_info    0x000000000000c391      0x151 bin/obj/arm/exceptions/handlers/el1/el1_low_a32_serror.o
 .debug_info    0x000000000000c4e2      0x151 bin/obj/arm/exceptions/handlers/el1/el1_low_a32_fiq.o
 .debug_info    0x000000000000c633      0x151 bin/obj/arm/exceptions/handlers/el1/el1_low_a64_sync.o
 .debug_info    0x000000000000c784      0x151 bin/obj/arm/exceptions/handlers/el1/el1_cur_spx_fiq.o
 .debug_info    0x000000000000c8d5      0x10c bin/obj/arm/exceptions/handlers/el1/el1_cur_spx_irq.o
 .debug_info    0x000000000000c9e1      0x151 bin/obj/arm/exceptions/handlers/el1/el1_cur_spx_serror.o
 .debug_info    0x000000000000cb32      0x151 bin/obj/arm/exceptions/handlers/el1/el1_low_a32_irq.o
 .debug_info    0x000000000000cc83      0x151 bin/obj/arm/exceptions/handlers/el1/el1_low_a64_fiq.o
 .debug_info    0x000000000000cdd4      0x151 bin/obj/arm/exceptions/handlers/el1/el1_low_a64_irq.o
 .debug_info    0x000000000000cf25      0x151 bin/obj/arm/exceptions/handlers/el1/el1_cur_sp0_sync.o
 .debug_info    0x000000000000d076      0x151 bin/obj/arm/exceptions/handlers/el1/el1_low_a64_serror.o
 .debug_info    0x000000000000d1c7      0x151 bin/obj/arm/exceptions/handlers/el1/el1_low_a32_sync.o
 .debug_info    0x000000000000d318      0x151 bin/obj/arm/exceptions/handlers/el1/el1_cur_spx_sync.o
 .debug_info    0x000000000000d469      0x151 bin/obj/arm/exceptions/handlers/el1/el1_cur_sp0_fiq.o
 .debug_info    0x000000000000d5ba      0x151 bin/obj/arm/exceptions/handlers/el1/el1_cur_sp0_serror.o
 .debug_info    0x000000000000d70b      0x151 bin/obj/arm/exceptions/handlers/el1/el1_cur_sp0_irq.o
 .debug_info    0x000000000000d85c      0x151 bin/obj/arm/exceptions/handlers/el2/el2_low_a32_serror.o
 .debug_info    0x000000000000d9ad      0x151 bin/obj/arm/exceptions/handlers/el2/el2_cur_spx_serror.o
 .debug_info    0x000000000000dafe      0x151 bin/obj/arm/exceptions/handlers/el2/el2_low_a64_serror.o
 .debug_info    0x000000000000dc4f      0x151 bin/obj/arm/exceptions/handlers/el2/el2_low_a64_sync.o
 .debug_info    0x000000000000dda0      0x151 bin/obj/arm/exceptions/handlers/el2/el2_cur_sp0_irq.o
 .debug_info    0x000000000000def1      0x151 bin/obj/arm/exceptions/handlers/el2/el2_cur_sp0_serror.o
 .debug_info    0x000000000000e042      0x151 bin/obj/arm/exceptions/handlers/el2/el2_low_a64_irq.o
 .debug_info    0x000000000000e193      0x151 bin/obj/arm/exceptions/handlers/el2/el2_low_a64_fiq.o
 .debug_info    0x000000000000e2e4      0x151 bin/obj/arm/exceptions/handlers/el2/el2_cur_spx_fiq.o
 .debug_info    0x000000000000e435      0x151 bin/obj/arm/exceptions/handlers/el2/el2_low_a32_irq.o
 .debug_info    0x000000000000e586      0x151 bin/obj/arm/exceptions/handlers/el2/el2_cur_sp0_fiq.o
 .debug_info    0x000000000000e6d7      0x151 bin/obj/arm/exceptions/handlers/el2/el2_low_a32_fiq.o
 .debug_info    0x000000000000e828      0x151 bin/obj/arm/exceptions/handlers/el2/el2_cur_spx_sync.o
 .debug_info    0x000000000000e979      0x151 bin/obj/arm/exceptions/handlers/el2/el2_low_a32_sync.o
 .debug_info    0x000000000000eaca      0x151 bin/obj/arm/exceptions/handlers/el2/el2_cur_sp0_sync.o
 .debug_info    0x000000000000ec1b      0x151 bin/obj/arm/exceptions/handlers/el2/el2_cur_spx_irq.o
 .debug_info    0x000000000000ed6c      0x372 bin/obj/arm/exceptions/handlers/exception_macros.o
 .debug_info    0x000000000000f0de      0x425 bin/obj/arm/exceptions/exceptions.o
 .debug_info    0x000000000000f503      0x492 bin/obj/arm/mmu/regs/mmu_sysregs.o
 .debug_info    0x000000000000f995      0xf4c bin/obj/arm/mmu/mmu_debugging.o
 .debug_info    0x00000000000108e1     0x219b bin/obj/arm/mmu/mmu.o
 .debug_info    0x0000000000012a7c      0x3d7 bin/obj/lib/lock/corelock.o
 .debug_info    0x0000000000012e53      0x8c9 bin/obj/lib/malloc/xalloc.o
 .debug_info    0x000000000001371c      0x14f bin/obj/lib/string/string.o
 .debug_info    0x000000000001386b      0x6c0 bin/obj/lib/string/fmt.o
 .debug_info    0x0000000000013f2b      0x63c bin/obj/lib/mem/memcpy/memcpy.o
 .debug_info    0x0000000000014567      0x302 bin/obj/lib/mem/mem.o
 .debug_info    0x0000000000014869      0x761 bin/obj/drivers/arm_generic_timer/arm_generic_timer.o
 .debug_info    0x0000000000014fca     0x1ba3 bin/obj/drivers/tmu/tmu.o
 .debug_info    0x0000000000016b6d     0x13e9 bin/obj/drivers/interrupts/gicv3/gicv3.o
 .debug_info    0x0000000000017f56     0x2c0c bin/obj/drivers/uart/uart.o
 .debug_info    0x000000000001ab62     0x144f bin/obj/rslib.a(imx8mp_kernel-1a53598e06c50be6.imx8mp_kernel.241a9a11e0e6ae75-cgu.0.rcgu.o)
 .debug_info    0x000000000001bfb1    0x23e7b bin/obj/rslib.a(core-dca77d77b03929cc.core.bbd04c23a4fa3c72-cgu.0.rcgu.o)
 .debug_info    0x000000000003fe2c       0x9e bin/obj/rslib.a(compiler_builtins-fabd8ee97a026881.compiler_builtins.f286be164c3a919f-cgu.099.rcgu.o)
 .debug_info    0x000000000003feca      0x333 bin/obj/rslib.a(compiler_builtins-fabd8ee97a026881.compiler_builtins.f286be164c3a919f-cgu.173.rcgu.o)
 .debug_info    0x00000000000401fd       0xad bin/obj/rslib.a(compiler_builtins-fabd8ee97a026881.compiler_builtins.f286be164c3a919f-cgu.242.rcgu.o)
 .debug_info    0x00000000000402aa      0x24c bin/obj/rslib.a(compiler_builtins-fabd8ee97a026881.compiler_builtins.f286be164c3a919f-cgu.295.rcgu.o)
 .debug_info    0x00000000000404f6      0x3a3 bin/obj/rslib.a(compiler_builtins-fabd8ee97a026881.compiler_builtins.f286be164c3a919f-cgu.018.rcgu.o)

.debug_abbrev   0x0000000000000000     0x78f1
 .debug_abbrev  0x0000000000000000       0x14 bin/obj/__kernel/mm/mm.o
 .debug_abbrev  0x0000000000000014       0x14 bin/obj/__kernel/mm/reloc/reloc.o
 .debug_abbrev  0x0000000000000028       0x14 bin/obj/__arm/cache/cache.o
 .debug_abbrev  0x000000000000003c       0x14 bin/obj/__arm/cache/icache.o
 .debug_abbrev  0x0000000000000050       0x14 bin/obj/__arm/cache/dcache.o
 .debug_abbrev  0x0000000000000064       0x14 bin/obj/__arm/tfa/smccc.o
 .debug_abbrev  0x0000000000000078       0x14 bin/obj/__arm/sysregs/arm_generic_timer.o
 .debug_abbrev  0x000000000000008c       0x14 bin/obj/__arm/sysregs/sysregs.o
 .debug_abbrev  0x00000000000000a0       0x12 bin/obj/__arm/exceptions/el2_vectors.o
 .debug_abbrev  0x00000000000000b2       0x14 bin/obj/__arm/exceptions/exceptions.o
 .debug_abbrev  0x00000000000000c6       0x12 bin/obj/__arm/exceptions/el1_vectors.o
 .debug_abbrev  0x00000000000000d8       0x14 bin/obj/__arm/cpu.o
 .debug_abbrev  0x00000000000000ec       0x14 bin/obj/__arm/mmu/regs/mmu_sysregs.o
 .debug_abbrev  0x0000000000000100       0x14 bin/obj/__lib/lock/spinlock_irq.o
 .debug_abbrev  0x0000000000000114       0x14 bin/obj/__lib/lock/spinlock.o
 .debug_abbrev  0x0000000000000128       0x14 bin/obj/__lib/lock/irqlock.o
 .debug_abbrev  0x000000000000013c       0x14 bin/obj/__lib/lock/corelock.o
 .debug_abbrev  0x0000000000000150       0x14 bin/obj/__lib/mem/memcpy/memcpy.o
 .debug_abbrev  0x0000000000000164       0x14 bin/obj/__lib/mem/mem.o
 .debug_abbrev  0x0000000000000178       0x14 bin/obj/__boot/clean_bss.o
 .debug_abbrev  0x000000000000018c       0x14 bin/obj/__boot/boot.o
 .debug_abbrev  0x00000000000001a0       0x14 bin/obj/__boot/el1.o
 .debug_abbrev  0x00000000000001b4       0x14 bin/obj/__boot/stacks.o
 .debug_abbrev  0x00000000000001c8       0x14 bin/obj/__boot/secondary_entry.o
 .debug_abbrev  0x00000000000001dc       0x14 bin/obj/__boot/gpr.o
 .debug_abbrev  0x00000000000001f0       0x14 bin/obj/__drivers/tmu/tmu_critical_default.o
 .debug_abbrev  0x0000000000000204       0x14 bin/obj/__drivers/interrupts/gicv3/gicv3_arm_interface.o
 .debug_abbrev  0x0000000000000218      0x202 bin/obj/kernel/irq/irq.o
 .debug_abbrev  0x000000000000041a      0x167 bin/obj/kernel/devices/drivers.o
 .debug_abbrev  0x0000000000000581       0xe5 bin/obj/kernel/init/early_init.o
 .debug_abbrev  0x0000000000000666      0x182 bin/obj/kernel/init/init_drivers.o
 .debug_abbrev  0x00000000000007e8      0x19a bin/obj/kernel/init/init.o
 .debug_abbrev  0x0000000000000982      0x175 bin/obj/kernel/lib/smp.o
 .debug_abbrev  0x0000000000000af7      0x2d1 bin/obj/kernel/mm/phys/page_allocator.o
 .debug_abbrev  0x0000000000000dc8      0x2bb bin/obj/kernel/mm/init/identity_mapping.o
 .debug_abbrev  0x0000000000001083      0x2ae bin/obj/kernel/mm/init/init.o
 .debug_abbrev  0x0000000000001331      0x2ff bin/obj/kernel/mm/init/mem_regions/early_kalloc.o
 .debug_abbrev  0x0000000000001630       0xfb bin/obj/kernel/mm/init/mem_regions/mem_regions.o
 .debug_abbrev  0x000000000000172b      0x22e bin/obj/kernel/mm/mm_info.o
 .debug_abbrev  0x0000000000001959      0x182 bin/obj/kernel/mm/mm.o
 .debug_abbrev  0x0000000000001adb      0x32a bin/obj/kernel/mm/virt/containers/containers.o
 .debug_abbrev  0x0000000000001e05      0x457 bin/obj/kernel/mm/virt/vmalloc.o
 .debug_abbrev  0x000000000000225c      0x308 bin/obj/kernel/mm/virt/mdt/mdt.o
 .debug_abbrev  0x0000000000002564      0x29e bin/obj/kernel/mm/malloc/reserve_malloc.o
 .debug_abbrev  0x0000000000002802      0x2d5 bin/obj/kernel/mm/malloc/raw_kmalloc.o
 .debug_abbrev  0x0000000000002ad7      0x27c bin/obj/kernel/mm/reloc/reloc.o
 .debug_abbrev  0x0000000000002d53      0x160 bin/obj/kernel/kernel_entry.o
 .debug_abbrev  0x0000000000002eb3      0x235 bin/obj/kernel/io/term.o
 .debug_abbrev  0x00000000000030e8      0x18c bin/obj/kernel/panic/panic.o
 .debug_abbrev  0x0000000000003274       0xf9 bin/obj/kernel/panic/panic_puts.o
 .debug_abbrev  0x000000000000336d      0x170 bin/obj/kernel/panic/panic_exception/panic_exception_handlers.o
 .debug_abbrev  0x00000000000034dd      0x150 bin/obj/kernel/panic/panic_exception/esr/esr.o
 .debug_abbrev  0x000000000000362d      0x12f bin/obj/kernel/panic/panic_exception/esr/data_abort.o
 .debug_abbrev  0x000000000000375c       0x28 bin/obj/arm/tfa/smccc.o
 .debug_abbrev  0x0000000000003784       0xaf bin/obj/arm/cpu.o
 .debug_abbrev  0x0000000000003833       0xba bin/obj/arm/exceptions/handlers/el1/el1_low_a32_serror.o
 .debug_abbrev  0x00000000000038ed       0xba bin/obj/arm/exceptions/handlers/el1/el1_low_a32_fiq.o
 .debug_abbrev  0x00000000000039a7       0xba bin/obj/arm/exceptions/handlers/el1/el1_low_a64_sync.o
 .debug_abbrev  0x0000000000003a61       0xba bin/obj/arm/exceptions/handlers/el1/el1_cur_spx_fiq.o
 .debug_abbrev  0x0000000000003b1b       0xb7 bin/obj/arm/exceptions/handlers/el1/el1_cur_spx_irq.o
 .debug_abbrev  0x0000000000003bd2       0xba bin/obj/arm/exceptions/handlers/el1/el1_cur_spx_serror.o
 .debug_abbrev  0x0000000000003c8c       0xba bin/obj/arm/exceptions/handlers/el1/el1_low_a32_irq.o
 .debug_abbrev  0x0000000000003d46       0xba bin/obj/arm/exceptions/handlers/el1/el1_low_a64_fiq.o
 .debug_abbrev  0x0000000000003e00       0xba bin/obj/arm/exceptions/handlers/el1/el1_low_a64_irq.o
 .debug_abbrev  0x0000000000003eba       0xba bin/obj/arm/exceptions/handlers/el1/el1_cur_sp0_sync.o
 .debug_abbrev  0x0000000000003f74       0xba bin/obj/arm/exceptions/handlers/el1/el1_low_a64_serror.o
 .debug_abbrev  0x000000000000402e       0xba bin/obj/arm/exceptions/handlers/el1/el1_low_a32_sync.o
 .debug_abbrev  0x00000000000040e8       0xba bin/obj/arm/exceptions/handlers/el1/el1_cur_spx_sync.o
 .debug_abbrev  0x00000000000041a2       0xba bin/obj/arm/exceptions/handlers/el1/el1_cur_sp0_fiq.o
 .debug_abbrev  0x000000000000425c       0xba bin/obj/arm/exceptions/handlers/el1/el1_cur_sp0_serror.o
 .debug_abbrev  0x0000000000004316       0xba bin/obj/arm/exceptions/handlers/el1/el1_cur_sp0_irq.o
 .debug_abbrev  0x00000000000043d0       0xba bin/obj/arm/exceptions/handlers/el2/el2_low_a32_serror.o
 .debug_abbrev  0x000000000000448a       0xba bin/obj/arm/exceptions/handlers/el2/el2_cur_spx_serror.o
 .debug_abbrev  0x0000000000004544       0xba bin/obj/arm/exceptions/handlers/el2/el2_low_a64_serror.o
 .debug_abbrev  0x00000000000045fe       0xba bin/obj/arm/exceptions/handlers/el2/el2_low_a64_sync.o
 .debug_abbrev  0x00000000000046b8       0xba bin/obj/arm/exceptions/handlers/el2/el2_cur_sp0_irq.o
 .debug_abbrev  0x0000000000004772       0xba bin/obj/arm/exceptions/handlers/el2/el2_cur_sp0_serror.o
 .debug_abbrev  0x000000000000482c       0xba bin/obj/arm/exceptions/handlers/el2/el2_low_a64_irq.o
 .debug_abbrev  0x00000000000048e6       0xba bin/obj/arm/exceptions/handlers/el2/el2_low_a64_fiq.o
 .debug_abbrev  0x00000000000049a0       0xba bin/obj/arm/exceptions/handlers/el2/el2_cur_spx_fiq.o
 .debug_abbrev  0x0000000000004a5a       0xba bin/obj/arm/exceptions/handlers/el2/el2_low_a32_irq.o
 .debug_abbrev  0x0000000000004b14       0xba bin/obj/arm/exceptions/handlers/el2/el2_cur_sp0_fiq.o
 .debug_abbrev  0x0000000000004bce       0xba bin/obj/arm/exceptions/handlers/el2/el2_low_a32_fiq.o
 .debug_abbrev  0x0000000000004c88       0xba bin/obj/arm/exceptions/handlers/el2/el2_cur_spx_sync.o
 .debug_abbrev  0x0000000000004d42       0xba bin/obj/arm/exceptions/handlers/el2/el2_low_a32_sync.o
 .debug_abbrev  0x0000000000004dfc       0xba bin/obj/arm/exceptions/handlers/el2/el2_cur_sp0_sync.o
 .debug_abbrev  0x0000000000004eb6       0xba bin/obj/arm/exceptions/handlers/el2/el2_cur_spx_irq.o
 .debug_abbrev  0x0000000000004f70      0x180 bin/obj/arm/exceptions/handlers/exception_macros.o
 .debug_abbrev  0x00000000000050f0      0x190 bin/obj/arm/exceptions/exceptions.o
 .debug_abbrev  0x0000000000005280      0x1da bin/obj/arm/mmu/regs/mmu_sysregs.o
 .debug_abbrev  0x000000000000545a      0x281 bin/obj/arm/mmu/mmu_debugging.o
 .debug_abbrev  0x00000000000056db      0x3d8 bin/obj/arm/mmu/mmu.o
 .debug_abbrev  0x0000000000005ab3      0x19d bin/obj/lib/lock/corelock.o
 .debug_abbrev  0x0000000000005c50      0x235 bin/obj/lib/malloc/xalloc.o
 .debug_abbrev  0x0000000000005e85       0xc1 bin/obj/lib/string/string.o
 .debug_abbrev  0x0000000000005f46      0x20b bin/obj/lib/string/fmt.o
 .debug_abbrev  0x0000000000006151      0x1f4 bin/obj/lib/mem/memcpy/memcpy.o
 .debug_abbrev  0x0000000000006345      0x11d bin/obj/lib/mem/mem.o
 .debug_abbrev  0x0000000000006462      0x1d9 bin/obj/drivers/arm_generic_timer/arm_generic_timer.o
 .debug_abbrev  0x000000000000663b      0x37b bin/obj/drivers/tmu/tmu.o
 .debug_abbrev  0x00000000000069b6      0x218 bin/obj/drivers/interrupts/gicv3/gicv3.o
 .debug_abbrev  0x0000000000006bce      0x3ab bin/obj/drivers/uart/uart.o
 .debug_abbrev  0x0000000000006f79      0x2d9 bin/obj/rslib.a(imx8mp_kernel-1a53598e06c50be6.imx8mp_kernel.241a9a11e0e6ae75-cgu.0.rcgu.o)
 .debug_abbrev  0x0000000000007252      0x2ff bin/obj/rslib.a(core-dca77d77b03929cc.core.bbd04c23a4fa3c72-cgu.0.rcgu.o)
 .debug_abbrev  0x0000000000007551       0x5f bin/obj/rslib.a(compiler_builtins-fabd8ee97a026881.compiler_builtins.f286be164c3a919f-cgu.099.rcgu.o)
 .debug_abbrev  0x00000000000075b0      0x104 bin/obj/rslib.a(compiler_builtins-fabd8ee97a026881.compiler_builtins.f286be164c3a919f-cgu.173.rcgu.o)
 .debug_abbrev  0x00000000000076b4       0x5f bin/obj/rslib.a(compiler_builtins-fabd8ee97a026881.compiler_builtins.f286be164c3a919f-cgu.242.rcgu.o)
 .debug_abbrev  0x0000000000007713       0xc1 bin/obj/rslib.a(compiler_builtins-fabd8ee97a026881.compiler_builtins.f286be164c3a919f-cgu.295.rcgu.o)
 .debug_abbrev  0x00000000000077d4      0x11d bin/obj/rslib.a(compiler_builtins-fabd8ee97a026881.compiler_builtins.f286be164c3a919f-cgu.018.rcgu.o)

.debug_aranges  0x0000000000000000     0x3760
 .debug_aranges
                0x0000000000000000       0x30 bin/obj/__kernel/mm/mm.o
 .debug_aranges
                0x0000000000000030       0x30 bin/obj/__kernel/mm/reloc/reloc.o
 .debug_aranges
                0x0000000000000060       0x30 bin/obj/__arm/cache/cache.o
 .debug_aranges
                0x0000000000000090       0x30 bin/obj/__arm/cache/icache.o
 .debug_aranges
                0x00000000000000c0       0x30 bin/obj/__arm/cache/dcache.o
 .debug_aranges
                0x00000000000000f0       0x30 bin/obj/__arm/tfa/smccc.o
 .debug_aranges
                0x0000000000000120       0x30 bin/obj/__arm/sysregs/arm_generic_timer.o
 .debug_aranges
                0x0000000000000150       0x30 bin/obj/__arm/sysregs/sysregs.o
 .debug_aranges
                0x0000000000000180       0x40 bin/obj/__arm/exceptions/el2_vectors.o
 .debug_aranges
                0x00000000000001c0       0x30 bin/obj/__arm/exceptions/exceptions.o
 .debug_aranges
                0x00000000000001f0       0x40 bin/obj/__arm/exceptions/el1_vectors.o
 .debug_aranges
                0x0000000000000230       0x30 bin/obj/__arm/cpu.o
 .debug_aranges
                0x0000000000000260       0x30 bin/obj/__arm/mmu/regs/mmu_sysregs.o
 .debug_aranges
                0x0000000000000290       0x30 bin/obj/__lib/lock/spinlock_irq.o
 .debug_aranges
                0x00000000000002c0       0x30 bin/obj/__lib/lock/spinlock.o
 .debug_aranges
                0x00000000000002f0       0x30 bin/obj/__lib/lock/irqlock.o
 .debug_aranges
                0x0000000000000320       0x30 bin/obj/__lib/lock/corelock.o
 .debug_aranges
                0x0000000000000350       0x30 bin/obj/__lib/mem/memcpy/memcpy.o
 .debug_aranges
                0x0000000000000380       0x30 bin/obj/__lib/mem/mem.o
 .debug_aranges
                0x00000000000003b0       0x30 bin/obj/__boot/clean_bss.o
 .debug_aranges
                0x00000000000003e0       0x30 bin/obj/__boot/boot.o
 .debug_aranges
                0x0000000000000410       0x30 bin/obj/__boot/el1.o
 .debug_aranges
                0x0000000000000440       0x30 bin/obj/__boot/stacks.o
 .debug_aranges
                0x0000000000000470       0x30 bin/obj/__boot/secondary_entry.o
 .debug_aranges
                0x00000000000004a0       0x30 bin/obj/__boot/gpr.o
 .debug_aranges
                0x00000000000004d0       0x30 bin/obj/__drivers/tmu/tmu_critical_default.o
 .debug_aranges
                0x0000000000000500       0x30 bin/obj/__drivers/interrupts/gicv3/gicv3_arm_interface.o
 .debug_aranges
                0x0000000000000530       0x30 bin/obj/kernel/irq/irq.o
 .debug_aranges
                0x0000000000000560       0x20 bin/obj/kernel/devices/drivers.o
 .debug_aranges
                0x0000000000000580       0x30 bin/obj/kernel/init/early_init.o
 .debug_aranges
                0x00000000000005b0       0x30 bin/obj/kernel/init/init_drivers.o
 .debug_aranges
                0x00000000000005e0       0x30 bin/obj/kernel/init/init.o
 .debug_aranges
                0x0000000000000610       0x30 bin/obj/kernel/lib/smp.o
 .debug_aranges
                0x0000000000000640       0x30 bin/obj/kernel/mm/phys/page_allocator.o
 .debug_aranges
                0x0000000000000670       0x30 bin/obj/kernel/mm/init/identity_mapping.o
 .debug_aranges
                0x00000000000006a0       0x30 bin/obj/kernel/mm/init/init.o
 .debug_aranges
                0x00000000000006d0       0x30 bin/obj/kernel/mm/init/mem_regions/early_kalloc.o
 .debug_aranges
                0x0000000000000700       0x20 bin/obj/kernel/mm/init/mem_regions/mem_regions.o
 .debug_aranges
                0x0000000000000720       0x30 bin/obj/kernel/mm/mm_info.o
 .debug_aranges
                0x0000000000000750       0x30 bin/obj/kernel/mm/mm.o
 .debug_aranges
                0x0000000000000780       0x30 bin/obj/kernel/mm/virt/containers/containers.o
 .debug_aranges
                0x00000000000007b0       0x30 bin/obj/kernel/mm/virt/vmalloc.o
 .debug_aranges
                0x00000000000007e0       0x30 bin/obj/kernel/mm/virt/mdt/mdt.o
 .debug_aranges
                0x0000000000000810       0x30 bin/obj/kernel/mm/malloc/reserve_malloc.o
 .debug_aranges
                0x0000000000000840       0x30 bin/obj/kernel/mm/malloc/raw_kmalloc.o
 .debug_aranges
                0x0000000000000870       0x30 bin/obj/kernel/mm/reloc/reloc.o
 .debug_aranges
                0x00000000000008a0       0x30 bin/obj/kernel/kernel_entry.o
 .debug_aranges
                0x00000000000008d0       0x30 bin/obj/kernel/io/term.o
 .debug_aranges
                0x0000000000000900       0x30 bin/obj/kernel/panic/panic.o
 .debug_aranges
                0x0000000000000930       0x30 bin/obj/kernel/panic/panic_puts.o
 .debug_aranges
                0x0000000000000960       0x30 bin/obj/kernel/panic/panic_exception/panic_exception_handlers.o
 .debug_aranges
                0x0000000000000990       0x30 bin/obj/kernel/panic/panic_exception/esr/esr.o
 .debug_aranges
                0x00000000000009c0       0x30 bin/obj/kernel/panic/panic_exception/esr/data_abort.o
 .debug_aranges
                0x00000000000009f0       0x20 bin/obj/arm/tfa/smccc.o
 .debug_aranges
                0x0000000000000a10       0x30 bin/obj/arm/cpu.o
 .debug_aranges
                0x0000000000000a40       0x30 bin/obj/arm/exceptions/handlers/el1/el1_low_a32_serror.o
 .debug_aranges
                0x0000000000000a70       0x30 bin/obj/arm/exceptions/handlers/el1/el1_low_a32_fiq.o
 .debug_aranges
                0x0000000000000aa0       0x30 bin/obj/arm/exceptions/handlers/el1/el1_low_a64_sync.o
 .debug_aranges
                0x0000000000000ad0       0x30 bin/obj/arm/exceptions/handlers/el1/el1_cur_spx_fiq.o
 .debug_aranges
                0x0000000000000b00       0x30 bin/obj/arm/exceptions/handlers/el1/el1_cur_spx_irq.o
 .debug_aranges
                0x0000000000000b30       0x30 bin/obj/arm/exceptions/handlers/el1/el1_cur_spx_serror.o
 .debug_aranges
                0x0000000000000b60       0x30 bin/obj/arm/exceptions/handlers/el1/el1_low_a32_irq.o
 .debug_aranges
                0x0000000000000b90       0x30 bin/obj/arm/exceptions/handlers/el1/el1_low_a64_fiq.o
 .debug_aranges
                0x0000000000000bc0       0x30 bin/obj/arm/exceptions/handlers/el1/el1_low_a64_irq.o
 .debug_aranges
                0x0000000000000bf0       0x30 bin/obj/arm/exceptions/handlers/el1/el1_cur_sp0_sync.o
 .debug_aranges
                0x0000000000000c20       0x30 bin/obj/arm/exceptions/handlers/el1/el1_low_a64_serror.o
 .debug_aranges
                0x0000000000000c50       0x30 bin/obj/arm/exceptions/handlers/el1/el1_low_a32_sync.o
 .debug_aranges
                0x0000000000000c80       0x30 bin/obj/arm/exceptions/handlers/el1/el1_cur_spx_sync.o
 .debug_aranges
                0x0000000000000cb0       0x30 bin/obj/arm/exceptions/handlers/el1/el1_cur_sp0_fiq.o
 .debug_aranges
                0x0000000000000ce0       0x30 bin/obj/arm/exceptions/handlers/el1/el1_cur_sp0_serror.o
 .debug_aranges
                0x0000000000000d10       0x30 bin/obj/arm/exceptions/handlers/el1/el1_cur_sp0_irq.o
 .debug_aranges
                0x0000000000000d40       0x30 bin/obj/arm/exceptions/handlers/el2/el2_low_a32_serror.o
 .debug_aranges
                0x0000000000000d70       0x30 bin/obj/arm/exceptions/handlers/el2/el2_cur_spx_serror.o
 .debug_aranges
                0x0000000000000da0       0x30 bin/obj/arm/exceptions/handlers/el2/el2_low_a64_serror.o
 .debug_aranges
                0x0000000000000dd0       0x30 bin/obj/arm/exceptions/handlers/el2/el2_low_a64_sync.o
 .debug_aranges
                0x0000000000000e00       0x30 bin/obj/arm/exceptions/handlers/el2/el2_cur_sp0_irq.o
 .debug_aranges
                0x0000000000000e30       0x30 bin/obj/arm/exceptions/handlers/el2/el2_cur_sp0_serror.o
 .debug_aranges
                0x0000000000000e60       0x30 bin/obj/arm/exceptions/handlers/el2/el2_low_a64_irq.o
 .debug_aranges
                0x0000000000000e90       0x30 bin/obj/arm/exceptions/handlers/el2/el2_low_a64_fiq.o
 .debug_aranges
                0x0000000000000ec0       0x30 bin/obj/arm/exceptions/handlers/el2/el2_cur_spx_fiq.o
 .debug_aranges
                0x0000000000000ef0       0x30 bin/obj/arm/exceptions/handlers/el2/el2_low_a32_irq.o
 .debug_aranges
                0x0000000000000f20       0x30 bin/obj/arm/exceptions/handlers/el2/el2_cur_sp0_fiq.o
 .debug_aranges
                0x0000000000000f50       0x30 bin/obj/arm/exceptions/handlers/el2/el2_low_a32_fiq.o
 .debug_aranges
                0x0000000000000f80       0x30 bin/obj/arm/exceptions/handlers/el2/el2_cur_spx_sync.o
 .debug_aranges
                0x0000000000000fb0       0x30 bin/obj/arm/exceptions/handlers/el2/el2_low_a32_sync.o
 .debug_aranges
                0x0000000000000fe0       0x30 bin/obj/arm/exceptions/handlers/el2/el2_cur_sp0_sync.o
 .debug_aranges
                0x0000000000001010       0x30 bin/obj/arm/exceptions/handlers/el2/el2_cur_spx_irq.o
 .debug_aranges
                0x0000000000001040       0x30 bin/obj/arm/exceptions/handlers/exception_macros.o
 .debug_aranges
                0x0000000000001070       0x30 bin/obj/arm/exceptions/exceptions.o
 .debug_aranges
                0x00000000000010a0       0x30 bin/obj/arm/mmu/regs/mmu_sysregs.o
 .debug_aranges
                0x00000000000010d0       0x30 bin/obj/arm/mmu/mmu_debugging.o
 .debug_aranges
                0x0000000000001100       0x30 bin/obj/arm/mmu/mmu.o
 .debug_aranges
                0x0000000000001130       0x30 bin/obj/lib/lock/corelock.o
 .debug_aranges
                0x0000000000001160       0x30 bin/obj/lib/malloc/xalloc.o
 .debug_aranges
                0x0000000000001190       0x30 bin/obj/lib/string/string.o
 .debug_aranges
                0x00000000000011c0       0x30 bin/obj/lib/string/fmt.o
 .debug_aranges
                0x00000000000011f0       0x30 bin/obj/lib/mem/memcpy/memcpy.o
 .debug_aranges
                0x0000000000001220       0x30 bin/obj/lib/mem/mem.o
 .debug_aranges
                0x0000000000001250       0x30 bin/obj/drivers/arm_generic_timer/arm_generic_timer.o
 .debug_aranges
                0x0000000000001280       0x30 bin/obj/drivers/tmu/tmu.o
 .debug_aranges
                0x00000000000012b0       0x30 bin/obj/drivers/interrupts/gicv3/gicv3.o
 .debug_aranges
                0x00000000000012e0       0x30 bin/obj/drivers/uart/uart.o
 .debug_aranges
                0x0000000000001310       0xe0 bin/obj/rslib.a(imx8mp_kernel-1a53598e06c50be6.imx8mp_kernel.241a9a11e0e6ae75-cgu.0.rcgu.o)
 .debug_aranges
                0x00000000000013f0     0x2280 bin/obj/rslib.a(core-dca77d77b03929cc.core.bbd04c23a4fa3c72-cgu.0.rcgu.o)
 .debug_aranges
                0x0000000000003670       0x30 bin/obj/rslib.a(compiler_builtins-fabd8ee97a026881.compiler_builtins.f286be164c3a919f-cgu.099.rcgu.o)
 .debug_aranges
                0x00000000000036a0       0x30 bin/obj/rslib.a(compiler_builtins-fabd8ee97a026881.compiler_builtins.f286be164c3a919f-cgu.173.rcgu.o)
 .debug_aranges
                0x00000000000036d0       0x30 bin/obj/rslib.a(compiler_builtins-fabd8ee97a026881.compiler_builtins.f286be164c3a919f-cgu.242.rcgu.o)
 .debug_aranges
                0x0000000000003700       0x30 bin/obj/rslib.a(compiler_builtins-fabd8ee97a026881.compiler_builtins.f286be164c3a919f-cgu.295.rcgu.o)
 .debug_aranges
                0x0000000000003730       0x30 bin/obj/rslib.a(compiler_builtins-fabd8ee97a026881.compiler_builtins.f286be164c3a919f-cgu.018.rcgu.o)

.debug_str      0x0000000000000000    0x4de83
 .debug_str     0x0000000000000000    0x4de83 bin/obj/__kernel/mm/mm.o
                                         0x4d (size before relaxing)
 .debug_str     0x000000000004de83       0x56 bin/obj/__kernel/mm/reloc/reloc.o
 .debug_str     0x000000000004de83       0x50 bin/obj/__arm/cache/cache.o
 .debug_str     0x000000000004de83       0x51 bin/obj/__arm/cache/icache.o
 .debug_str     0x000000000004de83       0x51 bin/obj/__arm/cache/dcache.o
 .debug_str     0x000000000004de83       0x4e bin/obj/__arm/tfa/smccc.o
 .debug_str     0x000000000004de83       0x5e bin/obj/__arm/sysregs/arm_generic_timer.o
 .debug_str     0x000000000004de83       0x54 bin/obj/__arm/sysregs/sysregs.o
 .debug_str     0x000000000004de83       0x5b bin/obj/__arm/exceptions/el2_vectors.o
 .debug_str     0x000000000004de83       0x5a bin/obj/__arm/exceptions/exceptions.o
 .debug_str     0x000000000004de83       0x5b bin/obj/__arm/exceptions/el1_vectors.o
 .debug_str     0x000000000004de83       0x48 bin/obj/__arm/cpu.o
 .debug_str     0x000000000004de83       0x59 bin/obj/__arm/mmu/regs/mmu_sysregs.o
 .debug_str     0x000000000004de83       0x56 bin/obj/__lib/lock/spinlock_irq.o
 .debug_str     0x000000000004de83       0x52 bin/obj/__lib/lock/spinlock.o
 .debug_str     0x000000000004de83       0x51 bin/obj/__lib/lock/irqlock.o
 .debug_str     0x000000000004de83       0x52 bin/obj/__lib/lock/corelock.o
 .debug_str     0x000000000004de83       0x56 bin/obj/__lib/mem/memcpy/memcpy.o
 .debug_str     0x000000000004de83       0x4c bin/obj/__lib/mem/mem.o
 .debug_str     0x000000000004de83       0x4f bin/obj/__boot/clean_bss.o
 .debug_str     0x000000000004de83       0x4a bin/obj/__boot/boot.o
 .debug_str     0x000000000004de83       0x49 bin/obj/__boot/el1.o
 .debug_str     0x000000000004de83       0x4c bin/obj/__boot/stacks.o
 .debug_str     0x000000000004de83       0x55 bin/obj/__boot/secondary_entry.o
 .debug_str     0x000000000004de83       0x49 bin/obj/__boot/gpr.o
 .debug_str     0x000000000004de83       0x61 bin/obj/__drivers/tmu/tmu_critical_default.o
 .debug_str     0x000000000004de83       0x6d bin/obj/__drivers/interrupts/gicv3/gicv3_arm_interface.o
 .debug_str     0x000000000004de83     0x559e bin/obj/kernel/irq/irq.o
 .debug_str     0x000000000004de83     0x5043 bin/obj/kernel/devices/drivers.o
 .debug_str     0x000000000004de83     0x5092 bin/obj/kernel/init/early_init.o
 .debug_str     0x000000000004de83     0x6053 bin/obj/kernel/init/init_drivers.o
 .debug_str     0x000000000004de83     0x4aa9 bin/obj/kernel/init/init.o
 .debug_str     0x000000000004de83     0x42aa bin/obj/kernel/lib/smp.o
 .debug_str     0x000000000004de83     0x4a16 bin/obj/kernel/mm/phys/page_allocator.o
 .debug_str     0x000000000004de83     0x4abf bin/obj/kernel/mm/init/identity_mapping.o
 .debug_str     0x000000000004de83     0x48b6 bin/obj/kernel/mm/init/init.o
 .debug_str     0x000000000004de83     0x4de3 bin/obj/kernel/mm/init/mem_regions/early_kalloc.o
 .debug_str     0x000000000004de83     0x42bd bin/obj/kernel/mm/init/mem_regions/mem_regions.o
 .debug_str     0x000000000004de83     0x499c bin/obj/kernel/mm/mm_info.o
 .debug_str     0x000000000004de83     0x43bc bin/obj/kernel/mm/mm.o
 .debug_str     0x000000000004de83     0x4b03 bin/obj/kernel/mm/virt/containers/containers.o
 .debug_str     0x000000000004de83     0x53a4 bin/obj/kernel/mm/virt/vmalloc.o
 .debug_str     0x000000000004de83     0x4f09 bin/obj/kernel/mm/virt/mdt/mdt.o
 .debug_str     0x000000000004de83     0x4c69 bin/obj/kernel/mm/malloc/reserve_malloc.o
 .debug_str     0x000000000004de83     0x4d02 bin/obj/kernel/mm/malloc/raw_kmalloc.o
 .debug_str     0x000000000004de83     0x4869 bin/obj/kernel/mm/reloc/reloc.o
 .debug_str     0x000000000004de83     0x4cbb bin/obj/kernel/kernel_entry.o
 .debug_str     0x000000000004de83     0x453f bin/obj/kernel/io/term.o
 .debug_str     0x000000000004de83     0x47c7 bin/obj/kernel/panic/panic.o
 .debug_str     0x000000000004de83     0x3afa bin/obj/kernel/panic/panic_puts.o
 .debug_str     0x000000000004de83     0x40cf bin/obj/kernel/panic/panic_exception/panic_exception_handlers.o
 .debug_str     0x000000000004de83     0x433b bin/obj/kernel/panic/panic_exception/esr/esr.o
 .debug_str     0x000000000004de83     0x399e bin/obj/kernel/panic/panic_exception/esr/data_abort.o
 .debug_str     0x000000000004de83     0x38a9 bin/obj/arm/tfa/smccc.o
 .debug_str     0x000000000004de83     0x3996 bin/obj/arm/cpu.o
 .debug_str     0x000000000004de83     0x424d bin/obj/arm/exceptions/handlers/el1/el1_low_a32_serror.o
 .debug_str     0x000000000004de83     0x424a bin/obj/arm/exceptions/handlers/el1/el1_low_a32_fiq.o
 .debug_str     0x000000000004de83     0x424b bin/obj/arm/exceptions/handlers/el1/el1_low_a64_sync.o
 .debug_str     0x000000000004de83     0x424a bin/obj/arm/exceptions/handlers/el1/el1_cur_spx_fiq.o
 .debug_str     0x000000000004de83     0x42b5 bin/obj/arm/exceptions/handlers/el1/el1_cur_spx_irq.o
 .debug_str     0x000000000004de83     0x424d bin/obj/arm/exceptions/handlers/el1/el1_cur_spx_serror.o
 .debug_str     0x000000000004de83     0x424a bin/obj/arm/exceptions/handlers/el1/el1_low_a32_irq.o
 .debug_str     0x000000000004de83     0x424a bin/obj/arm/exceptions/handlers/el1/el1_low_a64_fiq.o
 .debug_str     0x000000000004de83     0x424a bin/obj/arm/exceptions/handlers/el1/el1_low_a64_irq.o
 .debug_str     0x000000000004de83     0x424b bin/obj/arm/exceptions/handlers/el1/el1_cur_sp0_sync.o
 .debug_str     0x000000000004de83     0x424d bin/obj/arm/exceptions/handlers/el1/el1_low_a64_serror.o
 .debug_str     0x000000000004de83     0x424b bin/obj/arm/exceptions/handlers/el1/el1_low_a32_sync.o
 .debug_str     0x000000000004de83     0x424b bin/obj/arm/exceptions/handlers/el1/el1_cur_spx_sync.o
 .debug_str     0x000000000004de83     0x424a bin/obj/arm/exceptions/handlers/el1/el1_cur_sp0_fiq.o
 .debug_str     0x000000000004de83     0x424d bin/obj/arm/exceptions/handlers/el1/el1_cur_sp0_serror.o
 .debug_str     0x000000000004de83     0x424a bin/obj/arm/exceptions/handlers/el1/el1_cur_sp0_irq.o
 .debug_str     0x000000000004de83     0x424d bin/obj/arm/exceptions/handlers/el2/el2_low_a32_serror.o
 .debug_str     0x000000000004de83     0x424d bin/obj/arm/exceptions/handlers/el2/el2_cur_spx_serror.o
 .debug_str     0x000000000004de83     0x424d bin/obj/arm/exceptions/handlers/el2/el2_low_a64_serror.o
 .debug_str     0x000000000004de83     0x424b bin/obj/arm/exceptions/handlers/el2/el2_low_a64_sync.o
 .debug_str     0x000000000004de83     0x424a bin/obj/arm/exceptions/handlers/el2/el2_cur_sp0_irq.o
 .debug_str     0x000000000004de83     0x424d bin/obj/arm/exceptions/handlers/el2/el2_cur_sp0_serror.o
 .debug_str     0x000000000004de83     0x424a bin/obj/arm/exceptions/handlers/el2/el2_low_a64_irq.o
 .debug_str     0x000000000004de83     0x424a bin/obj/arm/exceptions/handlers/el2/el2_low_a64_fiq.o
 .debug_str     0x000000000004de83     0x424a bin/obj/arm/exceptions/handlers/el2/el2_cur_spx_fiq.o
 .debug_str     0x000000000004de83     0x424a bin/obj/arm/exceptions/handlers/el2/el2_low_a32_irq.o
 .debug_str     0x000000000004de83     0x424a bin/obj/arm/exceptions/handlers/el2/el2_cur_sp0_fiq.o
 .debug_str     0x000000000004de83     0x424a bin/obj/arm/exceptions/handlers/el2/el2_low_a32_fiq.o
 .debug_str     0x000000000004de83     0x424b bin/obj/arm/exceptions/handlers/el2/el2_cur_spx_sync.o
 .debug_str     0x000000000004de83     0x424b bin/obj/arm/exceptions/handlers/el2/el2_low_a32_sync.o
 .debug_str     0x000000000004de83     0x424b bin/obj/arm/exceptions/handlers/el2/el2_cur_sp0_sync.o
 .debug_str     0x000000000004de83     0x424a bin/obj/arm/exceptions/handlers/el2/el2_cur_spx_irq.o
 .debug_str     0x000000000004de83     0x43a2 bin/obj/arm/exceptions/handlers/exception_macros.o
 .debug_str     0x000000000004de83     0x4168 bin/obj/arm/exceptions/exceptions.o
 .debug_str     0x000000000004de83     0x440e bin/obj/arm/mmu/regs/mmu_sysregs.o
 .debug_str     0x000000000004de83     0x4da7 bin/obj/arm/mmu/mmu_debugging.o
 .debug_str     0x000000000004de83     0x531b bin/obj/arm/mmu/mmu.o
 .debug_str     0x000000000004de83     0x4123 bin/obj/lib/lock/corelock.o
 .debug_str     0x000000000004de83     0x42a0 bin/obj/lib/malloc/xalloc.o
 .debug_str     0x000000000004de83     0x3f2b bin/obj/lib/string/string.o
 .debug_str     0x000000000004de83     0x4367 bin/obj/lib/string/fmt.o
 .debug_str     0x000000000004de83     0x445e bin/obj/lib/mem/memcpy/memcpy.o
 .debug_str     0x000000000004de83     0x4133 bin/obj/lib/mem/mem.o
 .debug_str     0x000000000004de83     0x3e96 bin/obj/drivers/arm_generic_timer/arm_generic_timer.o
 .debug_str     0x000000000004de83     0x73b8 bin/obj/drivers/tmu/tmu.o
 .debug_str     0x000000000004de83     0x64f1 bin/obj/drivers/interrupts/gicv3/gicv3.o
 .debug_str     0x000000000004de83     0x8a59 bin/obj/drivers/uart/uart.o
 .debug_str     0x000000000004de83     0x1162 bin/obj/rslib.a(imx8mp_kernel-1a53598e06c50be6.imx8mp_kernel.241a9a11e0e6ae75-cgu.0.rcgu.o)
 .debug_str     0x000000000004de83    0x3a6b4 bin/obj/rslib.a(core-dca77d77b03929cc.core.bbd04c23a4fa3c72-cgu.0.rcgu.o)
 .debug_str     0x000000000004de83      0x178 bin/obj/rslib.a(compiler_builtins-fabd8ee97a026881.compiler_builtins.f286be164c3a919f-cgu.099.rcgu.o)
 .debug_str     0x000000000004de83      0x7b4 bin/obj/rslib.a(compiler_builtins-fabd8ee97a026881.compiler_builtins.f286be164c3a919f-cgu.173.rcgu.o)
 .debug_str     0x000000000004de83      0x194 bin/obj/rslib.a(compiler_builtins-fabd8ee97a026881.compiler_builtins.f286be164c3a919f-cgu.242.rcgu.o)
 .debug_str     0x000000000004de83      0x47f bin/obj/rslib.a(compiler_builtins-fabd8ee97a026881.compiler_builtins.f286be164c3a919f-cgu.295.rcgu.o)
 .debug_str     0x000000000004de83      0x4f9 bin/obj/rslib.a(compiler_builtins-fabd8ee97a026881.compiler_builtins.f286be164c3a919f-cgu.018.rcgu.o)

.debug_rnglists
                0x0000000000000000      0x151
 .debug_rnglists
                0x0000000000000000       0x23 bin/obj/__arm/exceptions/el2_vectors.o
 .debug_rnglists
                0x0000000000000023       0x23 bin/obj/__arm/exceptions/el1_vectors.o
 .debug_rnglists
                0x0000000000000046       0x22 bin/obj/kernel/mm/phys/page_allocator.o
 .debug_rnglists
                0x0000000000000068       0x4d bin/obj/kernel/mm/virt/vmalloc.o
 .debug_rnglists
                0x00000000000000b5       0x22 bin/obj/kernel/mm/malloc/reserve_malloc.o
 .debug_rnglists
                0x00000000000000d7       0x2c bin/obj/arm/mmu/mmu.o
 .debug_rnglists
                0x0000000000000103       0x15 bin/obj/lib/string/string.o
 .debug_rnglists
                0x0000000000000118       0x22 bin/obj/lib/string/fmt.o
 .debug_rnglists
                0x000000000000013a       0x17 bin/obj/drivers/uart/uart.o

.debug_macro    0x0000000000000000     0x606c
 .debug_macro   0x0000000000000000       0x98 bin/obj/kernel/irq/irq.o
 .debug_macro   0x0000000000000098      0xad8 bin/obj/kernel/irq/irq.o
 .debug_macro   0x0000000000000b70       0x82 bin/obj/kernel/irq/irq.o
 .debug_macro   0x0000000000000bf2       0x1c bin/obj/kernel/irq/irq.o
 .debug_macro   0x0000000000000c0e       0x22 bin/obj/kernel/irq/irq.o
 .debug_macro   0x0000000000000c30       0x10 bin/obj/kernel/irq/irq.o
 .debug_macro   0x0000000000000c40       0x61 bin/obj/kernel/irq/irq.o
 .debug_macro   0x0000000000000ca1       0x22 bin/obj/kernel/irq/irq.o
 .debug_macro   0x0000000000000cc3       0x1c bin/obj/kernel/irq/irq.o
 .debug_macro   0x0000000000000cdf       0x2e bin/obj/kernel/irq/irq.o
 .debug_macro   0x0000000000000d0d       0x10 bin/obj/kernel/irq/irq.o
 .debug_macro   0x0000000000000d1d       0x1c bin/obj/kernel/irq/irq.o
 .debug_macro   0x0000000000000d39       0x10 bin/obj/kernel/irq/irq.o
 .debug_macro   0x0000000000000d49       0xa7 bin/obj/kernel/devices/drivers.o
 .debug_macro   0x0000000000000df0      0x118 bin/obj/kernel/devices/drivers.o
 .debug_macro   0x0000000000000f08       0x6a bin/obj/kernel/devices/drivers.o
 .debug_macro   0x0000000000000f72       0x10 bin/obj/kernel/devices/drivers.o
 .debug_macro   0x0000000000000f82       0x28 bin/obj/kernel/devices/drivers.o
 .debug_macro   0x0000000000000faa       0x2e bin/obj/kernel/devices/drivers.o
 .debug_macro   0x0000000000000fd8       0xa3 bin/obj/kernel/init/early_init.o
 .debug_macro   0x000000000000107b       0x3a bin/obj/kernel/init/early_init.o
 .debug_macro   0x00000000000010b5       0xc1 bin/obj/kernel/init/init_drivers.o
 .debug_macro   0x0000000000001176       0xab bin/obj/kernel/init/init.o
 .debug_macro   0x0000000000001221       0x4f bin/obj/kernel/lib/smp.o
 .debug_macro   0x0000000000001270       0x28 bin/obj/kernel/lib/smp.o
 .debug_macro   0x0000000000001298       0xca bin/obj/kernel/mm/phys/page_allocator.o
 .debug_macro   0x0000000000001362       0x22 bin/obj/kernel/mm/phys/page_allocator.o
 .debug_macro   0x0000000000001384       0x16 bin/obj/kernel/mm/phys/page_allocator.o
 .debug_macro   0x000000000000139a       0x94 bin/obj/kernel/mm/init/identity_mapping.o
 .debug_macro   0x000000000000142e       0x1c bin/obj/kernel/mm/init/identity_mapping.o
 .debug_macro   0x000000000000144a       0x34 bin/obj/kernel/mm/init/identity_mapping.o
 .debug_macro   0x000000000000147e       0xa2 bin/obj/kernel/mm/init/init.o
 .debug_macro   0x0000000000001520       0x10 bin/obj/kernel/mm/init/init.o
 .debug_macro   0x0000000000001530       0xb6 bin/obj/kernel/mm/init/mem_regions/early_kalloc.o
 .debug_macro   0x00000000000015e6       0x6e bin/obj/kernel/mm/init/mem_regions/mem_regions.o
 .debug_macro   0x0000000000001654       0x92 bin/obj/kernel/mm/mm_info.o
 .debug_macro   0x00000000000016e6       0x74 bin/obj/kernel/mm/mm.o
 .debug_macro   0x000000000000175a       0x96 bin/obj/kernel/mm/virt/containers/containers.o
 .debug_macro   0x00000000000017f0       0x1c bin/obj/kernel/mm/virt/containers/containers.o
 .debug_macro   0x000000000000180c       0xbc bin/obj/kernel/mm/virt/vmalloc.o
 .debug_macro   0x00000000000018c8       0x10 bin/obj/kernel/mm/virt/vmalloc.o
 .debug_macro   0x00000000000018d8       0xbb bin/obj/kernel/mm/virt/mdt/mdt.o
 .debug_macro   0x0000000000001993       0xaf bin/obj/kernel/mm/malloc/reserve_malloc.o
 .debug_macro   0x0000000000001a42       0xa8 bin/obj/kernel/mm/malloc/raw_kmalloc.o
 .debug_macro   0x0000000000001aea       0x95 bin/obj/kernel/mm/reloc/reloc.o
 .debug_macro   0x0000000000001b7f       0xe6 bin/obj/kernel/kernel_entry.o
 .debug_macro   0x0000000000001c65       0x6f bin/obj/kernel/io/term.o
 .debug_macro   0x0000000000001cd4       0x16 bin/obj/kernel/io/term.o
 .debug_macro   0x0000000000001cea       0x93 bin/obj/kernel/panic/panic.o
 .debug_macro   0x0000000000001d7d       0x40 bin/obj/kernel/panic/panic.o
 .debug_macro   0x0000000000001dbd       0x39 bin/obj/kernel/panic/panic_puts.o
 .debug_macro   0x0000000000001df6       0x4a bin/obj/kernel/panic/panic_exception/panic_exception_handlers.o
 .debug_macro   0x0000000000001e40       0x6a bin/obj/kernel/panic/panic_exception/esr/esr.o
 .debug_macro   0x0000000000001eaa       0x27 bin/obj/kernel/panic/panic_exception/esr/data_abort.o
 .debug_macro   0x0000000000001ed1       0x23 bin/obj/arm/tfa/smccc.o
 .debug_macro   0x0000000000001ef4      0xad8 bin/obj/arm/tfa/smccc.o
 .debug_macro   0x00000000000029cc       0x27 bin/obj/arm/cpu.o
 .debug_macro   0x00000000000029f3       0x54 bin/obj/arm/exceptions/handlers/el1/el1_low_a32_serror.o
 .debug_macro   0x0000000000002a47       0x10 bin/obj/arm/exceptions/handlers/el1/el1_low_a32_serror.o
 .debug_macro   0x0000000000002a57       0x54 bin/obj/arm/exceptions/handlers/el1/el1_low_a32_fiq.o
 .debug_macro   0x0000000000002aab       0x54 bin/obj/arm/exceptions/handlers/el1/el1_low_a64_sync.o
 .debug_macro   0x0000000000002aff       0x54 bin/obj/arm/exceptions/handlers/el1/el1_cur_spx_fiq.o
 .debug_macro   0x0000000000002b53       0x6d bin/obj/arm/exceptions/handlers/el1/el1_cur_spx_irq.o
 .debug_macro   0x0000000000002bc0       0x54 bin/obj/arm/exceptions/handlers/el1/el1_cur_spx_serror.o
 .debug_macro   0x0000000000002c14       0x54 bin/obj/arm/exceptions/handlers/el1/el1_low_a32_irq.o
 .debug_macro   0x0000000000002c68       0x54 bin/obj/arm/exceptions/handlers/el1/el1_low_a64_fiq.o
 .debug_macro   0x0000000000002cbc       0x54 bin/obj/arm/exceptions/handlers/el1/el1_low_a64_irq.o
 .debug_macro   0x0000000000002d10       0x54 bin/obj/arm/exceptions/handlers/el1/el1_cur_sp0_sync.o
 .debug_macro   0x0000000000002d64       0x54 bin/obj/arm/exceptions/handlers/el1/el1_low_a64_serror.o
 .debug_macro   0x0000000000002db8       0x54 bin/obj/arm/exceptions/handlers/el1/el1_low_a32_sync.o
 .debug_macro   0x0000000000002e0c       0x54 bin/obj/arm/exceptions/handlers/el1/el1_cur_spx_sync.o
 .debug_macro   0x0000000000002e60       0x54 bin/obj/arm/exceptions/handlers/el1/el1_cur_sp0_fiq.o
 .debug_macro   0x0000000000002eb4       0x54 bin/obj/arm/exceptions/handlers/el1/el1_cur_sp0_serror.o
 .debug_macro   0x0000000000002f08       0x54 bin/obj/arm/exceptions/handlers/el1/el1_cur_sp0_irq.o
 .debug_macro   0x0000000000002f5c       0x54 bin/obj/arm/exceptions/handlers/el2/el2_low_a32_serror.o
 .debug_macro   0x0000000000002fb0       0x54 bin/obj/arm/exceptions/handlers/el2/el2_cur_spx_serror.o
 .debug_macro   0x0000000000003004       0x54 bin/obj/arm/exceptions/handlers/el2/el2_low_a64_serror.o
 .debug_macro   0x0000000000003058       0x54 bin/obj/arm/exceptions/handlers/el2/el2_low_a64_sync.o
 .debug_macro   0x00000000000030ac       0x54 bin/obj/arm/exceptions/handlers/el2/el2_cur_sp0_irq.o
 .debug_macro   0x0000000000003100       0x54 bin/obj/arm/exceptions/handlers/el2/el2_cur_sp0_serror.o
 .debug_macro   0x0000000000003154       0x54 bin/obj/arm/exceptions/handlers/el2/el2_low_a64_irq.o
 .debug_macro   0x00000000000031a8       0x54 bin/obj/arm/exceptions/handlers/el2/el2_low_a64_fiq.o
 .debug_macro   0x00000000000031fc       0x54 bin/obj/arm/exceptions/handlers/el2/el2_cur_spx_fiq.o
 .debug_macro   0x0000000000003250       0x54 bin/obj/arm/exceptions/handlers/el2/el2_low_a32_irq.o
 .debug_macro   0x00000000000032a4       0x54 bin/obj/arm/exceptions/handlers/el2/el2_cur_sp0_fiq.o
 .debug_macro   0x00000000000032f8       0x54 bin/obj/arm/exceptions/handlers/el2/el2_low_a32_fiq.o
 .debug_macro   0x000000000000334c       0x54 bin/obj/arm/exceptions/handlers/el2/el2_cur_spx_sync.o
 .debug_macro   0x00000000000033a0       0x54 bin/obj/arm/exceptions/handlers/el2/el2_low_a32_sync.o
 .debug_macro   0x00000000000033f4       0x54 bin/obj/arm/exceptions/handlers/el2/el2_cur_sp0_sync.o
 .debug_macro   0x0000000000003448       0x54 bin/obj/arm/exceptions/handlers/el2/el2_cur_spx_irq.o
 .debug_macro   0x000000000000349c       0x54 bin/obj/arm/exceptions/handlers/exception_macros.o
 .debug_macro   0x00000000000034f0       0x3d bin/obj/arm/exceptions/exceptions.o
 .debug_macro   0x000000000000352d       0x60 bin/obj/arm/mmu/regs/mmu_sysregs.o
 .debug_macro   0x000000000000358d       0x9b bin/obj/arm/mmu/mmu_debugging.o
 .debug_macro   0x0000000000003628       0x8e bin/obj/arm/mmu/mmu_debugging.o
 .debug_macro   0x00000000000036b6       0xa1 bin/obj/arm/mmu/mmu.o
 .debug_macro   0x0000000000003757       0x49 bin/obj/lib/lock/corelock.o
 .debug_macro   0x00000000000037a0      0xad8 bin/obj/lib/lock/corelock.o
 .debug_macro   0x0000000000004278       0x52 bin/obj/lib/malloc/xalloc.o
 .debug_macro   0x00000000000042ca       0x4b bin/obj/lib/string/string.o
 .debug_macro   0x0000000000004315       0x4b bin/obj/lib/string/fmt.o
 .debug_macro   0x0000000000004360       0x67 bin/obj/lib/mem/memcpy/memcpy.o
 .debug_macro   0x00000000000043c7       0x42 bin/obj/lib/mem/mem.o
 .debug_macro   0x0000000000004409       0x72 bin/obj/drivers/arm_generic_timer/arm_generic_timer.o
 .debug_macro   0x000000000000447b      0xad8 bin/obj/drivers/arm_generic_timer/arm_generic_timer.o
 .debug_macro   0x0000000000004f53      0x121 bin/obj/drivers/tmu/tmu.o
 .debug_macro   0x0000000000005074       0x4c bin/obj/drivers/tmu/tmu.o
 .debug_macro   0x00000000000050c0       0x10 bin/obj/drivers/tmu/tmu.o
 .debug_macro   0x00000000000050d0       0x2e bin/obj/drivers/tmu/tmu.o
 .debug_macro   0x00000000000050fe       0x3a bin/obj/drivers/tmu/tmu.o
 .debug_macro   0x0000000000005138       0x3a bin/obj/drivers/tmu/tmu.o
 .debug_macro   0x0000000000005172       0x2e bin/obj/drivers/tmu/tmu.o
 .debug_macro   0x00000000000051a0       0x3a bin/obj/drivers/tmu/tmu.o
 .debug_macro   0x00000000000051da       0x5e bin/obj/drivers/tmu/tmu.o
 .debug_macro   0x0000000000005238       0x5e bin/obj/drivers/tmu/tmu.o
 .debug_macro   0x0000000000005296       0x46 bin/obj/drivers/tmu/tmu.o
 .debug_macro   0x00000000000052dc       0x46 bin/obj/drivers/tmu/tmu.o
 .debug_macro   0x0000000000005322       0x46 bin/obj/drivers/tmu/tmu.o
 .debug_macro   0x0000000000005368       0x22 bin/obj/drivers/tmu/tmu.o
 .debug_macro   0x000000000000538a       0x46 bin/obj/drivers/tmu/tmu.o
 .debug_macro   0x00000000000053d0       0x76 bin/obj/drivers/tmu/tmu.o
 .debug_macro   0x0000000000005446       0x46 bin/obj/drivers/tmu/tmu.o
 .debug_macro   0x000000000000548c       0x46 bin/obj/drivers/tmu/tmu.o
 .debug_macro   0x00000000000054d2       0x22 bin/obj/drivers/tmu/tmu.o
 .debug_macro   0x00000000000054f4       0xcc bin/obj/drivers/interrupts/gicv3/gicv3.o
 .debug_macro   0x00000000000055c0       0x34 bin/obj/drivers/interrupts/gicv3/gicv3.o
 .debug_macro   0x00000000000055f4       0x76 bin/obj/drivers/interrupts/gicv3/gicv3.o
 .debug_macro   0x000000000000566a       0x10 bin/obj/drivers/interrupts/gicv3/gicv3.o
 .debug_macro   0x000000000000567a       0x10 bin/obj/drivers/interrupts/gicv3/gicv3.o
 .debug_macro   0x000000000000568a       0x10 bin/obj/drivers/interrupts/gicv3/gicv3.o
 .debug_macro   0x000000000000569a       0x52 bin/obj/drivers/interrupts/gicv3/gicv3.o
 .debug_macro   0x00000000000056ec       0xbe bin/obj/drivers/interrupts/gicv3/gicv3.o
 .debug_macro   0x00000000000057aa       0x10 bin/obj/drivers/interrupts/gicv3/gicv3.o
 .debug_macro   0x00000000000057ba       0x10 bin/obj/drivers/interrupts/gicv3/gicv3.o
 .debug_macro   0x00000000000057ca       0x10 bin/obj/drivers/interrupts/gicv3/gicv3.o
 .debug_macro   0x00000000000057da       0x46 bin/obj/drivers/interrupts/gicv3/gicv3.o
 .debug_macro   0x0000000000005820      0x150 bin/obj/drivers/uart/uart.o
 .debug_macro   0x0000000000005970       0x10 bin/obj/drivers/uart/uart.o
 .debug_macro   0x0000000000005980       0x22 bin/obj/drivers/uart/uart.o
 .debug_macro   0x00000000000059a2       0x22 bin/obj/drivers/uart/uart.o
 .debug_macro   0x00000000000059c4       0x22 bin/obj/drivers/uart/uart.o
 .debug_macro   0x00000000000059e6       0x22 bin/obj/drivers/uart/uart.o
 .debug_macro   0x0000000000005a08       0xca bin/obj/drivers/uart/uart.o
 .debug_macro   0x0000000000005ad2       0xca bin/obj/drivers/uart/uart.o
 .debug_macro   0x0000000000005b9c       0xca bin/obj/drivers/uart/uart.o
 .debug_macro   0x0000000000005c66       0x9a bin/obj/drivers/uart/uart.o
 .debug_macro   0x0000000000005d00       0x22 bin/obj/drivers/uart/uart.o
 .debug_macro   0x0000000000005d22       0x46 bin/obj/drivers/uart/uart.o
 .debug_macro   0x0000000000005d68       0x52 bin/obj/drivers/uart/uart.o
 .debug_macro   0x0000000000005dba       0x64 bin/obj/drivers/uart/uart.o
 .debug_macro   0x0000000000005e1e       0xb2 bin/obj/drivers/uart/uart.o
 .debug_macro   0x0000000000005ed0       0xd6 bin/obj/drivers/uart/uart.o
 .debug_macro   0x0000000000005fa6       0x22 bin/obj/drivers/uart/uart.o
 .debug_macro   0x0000000000005fc8       0x8e bin/obj/drivers/uart/uart.o
 .debug_macro   0x0000000000006056       0x16 bin/obj/drivers/uart/uart.o

.comment        0x0000000000000000       0x71
 .comment       0x0000000000000000       0x71 bin/obj/kernel/irq/irq.o
                                         0x46 (size before relaxing)
 .comment       0x0000000000000071       0x46 bin/obj/kernel/devices/drivers.o
 .comment       0x0000000000000071       0x46 bin/obj/kernel/init/early_init.o
 .comment       0x0000000000000071       0x46 bin/obj/kernel/init/init_drivers.o
 .comment       0x0000000000000071       0x46 bin/obj/kernel/init/init.o
 .comment       0x0000000000000071       0x46 bin/obj/kernel/lib/smp.o
 .comment       0x0000000000000071       0x46 bin/obj/kernel/mm/phys/page_allocator.o
 .comment       0x0000000000000071       0x46 bin/obj/kernel/mm/init/identity_mapping.o
 .comment       0x0000000000000071       0x46 bin/obj/kernel/mm/init/init.o
 .comment       0x0000000000000071       0x46 bin/obj/kernel/mm/init/mem_regions/early_kalloc.o
 .comment       0x0000000000000071       0x46 bin/obj/kernel/mm/init/mem_regions/mem_regions.o
 .comment       0x0000000000000071       0x46 bin/obj/kernel/mm/mm_info.o
 .comment       0x0000000000000071       0x46 bin/obj/kernel/mm/mm.o
 .comment       0x0000000000000071       0x46 bin/obj/kernel/mm/virt/containers/containers.o
 .comment       0x0000000000000071       0x46 bin/obj/kernel/mm/virt/vmalloc.o
 .comment       0x0000000000000071       0x46 bin/obj/kernel/mm/virt/mdt/mdt.o
 .comment       0x0000000000000071       0x46 bin/obj/kernel/mm/malloc/reserve_malloc.o
 .comment       0x0000000000000071       0x46 bin/obj/kernel/mm/malloc/raw_kmalloc.o
 .comment       0x0000000000000071       0x46 bin/obj/kernel/mm/reloc/reloc.o
 .comment       0x0000000000000071       0x46 bin/obj/kernel/kernel_entry.o
 .comment       0x0000000000000071       0x46 bin/obj/kernel/io/term.o
 .comment       0x0000000000000071       0x46 bin/obj/kernel/panic/panic.o
 .comment       0x0000000000000071       0x46 bin/obj/kernel/panic/panic_puts.o
 .comment       0x0000000000000071       0x46 bin/obj/kernel/panic/panic_exception/panic_exception_handlers.o
 .comment       0x0000000000000071       0x46 bin/obj/kernel/panic/panic_exception/esr/esr.o
 .comment       0x0000000000000071       0x46 bin/obj/kernel/panic/panic_exception/esr/data_abort.o
 .comment       0x0000000000000071       0x46 bin/obj/arm/tfa/smccc.o
 .comment       0x0000000000000071       0x46 bin/obj/arm/cpu.o
 .comment       0x0000000000000071       0x46 bin/obj/arm/exceptions/handlers/el1/el1_low_a32_serror.o
 .comment       0x0000000000000071       0x46 bin/obj/arm/exceptions/handlers/el1/el1_low_a32_fiq.o
 .comment       0x0000000000000071       0x46 bin/obj/arm/exceptions/handlers/el1/el1_low_a64_sync.o
 .comment       0x0000000000000071       0x46 bin/obj/arm/exceptions/handlers/el1/el1_cur_spx_fiq.o
 .comment       0x0000000000000071       0x46 bin/obj/arm/exceptions/handlers/el1/el1_cur_spx_irq.o
 .comment       0x0000000000000071       0x46 bin/obj/arm/exceptions/handlers/el1/el1_cur_spx_serror.o
 .comment       0x0000000000000071       0x46 bin/obj/arm/exceptions/handlers/el1/el1_low_a32_irq.o
 .comment       0x0000000000000071       0x46 bin/obj/arm/exceptions/handlers/el1/el1_low_a64_fiq.o
 .comment       0x0000000000000071       0x46 bin/obj/arm/exceptions/handlers/el1/el1_low_a64_irq.o
 .comment       0x0000000000000071       0x46 bin/obj/arm/exceptions/handlers/el1/el1_cur_sp0_sync.o
 .comment       0x0000000000000071       0x46 bin/obj/arm/exceptions/handlers/el1/el1_low_a64_serror.o
 .comment       0x0000000000000071       0x46 bin/obj/arm/exceptions/handlers/el1/el1_low_a32_sync.o
 .comment       0x0000000000000071       0x46 bin/obj/arm/exceptions/handlers/el1/el1_cur_spx_sync.o
 .comment       0x0000000000000071       0x46 bin/obj/arm/exceptions/handlers/el1/el1_cur_sp0_fiq.o
 .comment       0x0000000000000071       0x46 bin/obj/arm/exceptions/handlers/el1/el1_cur_sp0_serror.o
 .comment       0x0000000000000071       0x46 bin/obj/arm/exceptions/handlers/el1/el1_cur_sp0_irq.o
 .comment       0x0000000000000071       0x46 bin/obj/arm/exceptions/handlers/el2/el2_low_a32_serror.o
 .comment       0x0000000000000071       0x46 bin/obj/arm/exceptions/handlers/el2/el2_cur_spx_serror.o
 .comment       0x0000000000000071       0x46 bin/obj/arm/exceptions/handlers/el2/el2_low_a64_serror.o
 .comment       0x0000000000000071       0x46 bin/obj/arm/exceptions/handlers/el2/el2_low_a64_sync.o
 .comment       0x0000000000000071       0x46 bin/obj/arm/exceptions/handlers/el2/el2_cur_sp0_irq.o
 .comment       0x0000000000000071       0x46 bin/obj/arm/exceptions/handlers/el2/el2_cur_sp0_serror.o
 .comment       0x0000000000000071       0x46 bin/obj/arm/exceptions/handlers/el2/el2_low_a64_irq.o
 .comment       0x0000000000000071       0x46 bin/obj/arm/exceptions/handlers/el2/el2_low_a64_fiq.o
 .comment       0x0000000000000071       0x46 bin/obj/arm/exceptions/handlers/el2/el2_cur_spx_fiq.o
 .comment       0x0000000000000071       0x46 bin/obj/arm/exceptions/handlers/el2/el2_low_a32_irq.o
 .comment       0x0000000000000071       0x46 bin/obj/arm/exceptions/handlers/el2/el2_cur_sp0_fiq.o
 .comment       0x0000000000000071       0x46 bin/obj/arm/exceptions/handlers/el2/el2_low_a32_fiq.o
 .comment       0x0000000000000071       0x46 bin/obj/arm/exceptions/handlers/el2/el2_cur_spx_sync.o
 .comment       0x0000000000000071       0x46 bin/obj/arm/exceptions/handlers/el2/el2_low_a32_sync.o
 .comment       0x0000000000000071       0x46 bin/obj/arm/exceptions/handlers/el2/el2_cur_sp0_sync.o
 .comment       0x0000000000000071       0x46 bin/obj/arm/exceptions/handlers/el2/el2_cur_spx_irq.o
 .comment       0x0000000000000071       0x46 bin/obj/arm/exceptions/handlers/exception_macros.o
 .comment       0x0000000000000071       0x46 bin/obj/arm/exceptions/exceptions.o
 .comment       0x0000000000000071       0x46 bin/obj/arm/mmu/regs/mmu_sysregs.o
 .comment       0x0000000000000071       0x46 bin/obj/arm/mmu/mmu_debugging.o
 .comment       0x0000000000000071       0x46 bin/obj/arm/mmu/mmu.o
 .comment       0x0000000000000071       0x46 bin/obj/lib/lock/corelock.o
 .comment       0x0000000000000071       0x46 bin/obj/lib/malloc/xalloc.o
 .comment       0x0000000000000071       0x46 bin/obj/lib/string/string.o
 .comment       0x0000000000000071       0x46 bin/obj/lib/string/fmt.o
 .comment       0x0000000000000071       0x46 bin/obj/lib/mem/memcpy/memcpy.o
 .comment       0x0000000000000071       0x46 bin/obj/lib/mem/mem.o
 .comment       0x0000000000000071       0x46 bin/obj/drivers/arm_generic_timer/arm_generic_timer.o
 .comment       0x0000000000000071       0x46 bin/obj/drivers/tmu/tmu.o
 .comment       0x0000000000000071       0x46 bin/obj/drivers/interrupts/gicv3/gicv3.o
 .comment       0x0000000000000071       0x46 bin/obj/drivers/uart/uart.o
 .comment       0x0000000000000071       0x2d bin/obj/rslib.a(imx8mp_kernel-1a53598e06c50be6.imx8mp_kernel.241a9a11e0e6ae75-cgu.0.rcgu.o)
 .comment       0x0000000000000071       0x2d bin/obj/rslib.a(core-dca77d77b03929cc.core.bbd04c23a4fa3c72-cgu.0.rcgu.o)
 .comment       0x0000000000000071       0x2d bin/obj/rslib.a(compiler_builtins-fabd8ee97a026881.compiler_builtins.f286be164c3a919f-cgu.099.rcgu.o)
 .comment       0x0000000000000071       0x2d bin/obj/rslib.a(compiler_builtins-fabd8ee97a026881.compiler_builtins.f286be164c3a919f-cgu.173.rcgu.o)
 .comment       0x0000000000000071       0x2d bin/obj/rslib.a(compiler_builtins-fabd8ee97a026881.compiler_builtins.f286be164c3a919f-cgu.242.rcgu.o)
 .comment       0x0000000000000071       0x2d bin/obj/rslib.a(compiler_builtins-fabd8ee97a026881.compiler_builtins.f286be164c3a919f-cgu.295.rcgu.o)
 .comment       0x0000000000000071       0x2d bin/obj/rslib.a(compiler_builtins-fabd8ee97a026881.compiler_builtins.f286be164c3a919f-cgu.018.rcgu.o)

.note.GNU-stack
                0x0000000000000000        0x0
 .note.GNU-stack
                0x0000000000000000        0x0 bin/obj/rslib.a(imx8mp_kernel-1a53598e06c50be6.imx8mp_kernel.241a9a11e0e6ae75-cgu.0.rcgu.o)
 .note.GNU-stack
                0x0000000000000000        0x0 bin/obj/rslib.a(core-dca77d77b03929cc.core.bbd04c23a4fa3c72-cgu.0.rcgu.o)
 .note.GNU-stack
                0x0000000000000000        0x0 bin/obj/rslib.a(compiler_builtins-fabd8ee97a026881.compiler_builtins.f286be164c3a919f-cgu.099.rcgu.o)
 .note.GNU-stack
                0x0000000000000000        0x0 bin/obj/rslib.a(compiler_builtins-fabd8ee97a026881.compiler_builtins.f286be164c3a919f-cgu.173.rcgu.o)
 .note.GNU-stack
                0x0000000000000000        0x0 bin/obj/rslib.a(compiler_builtins-fabd8ee97a026881.compiler_builtins.f286be164c3a919f-cgu.242.rcgu.o)
 .note.GNU-stack
                0x0000000000000000        0x0 bin/obj/rslib.a(compiler_builtins-fabd8ee97a026881.compiler_builtins.f286be164c3a919f-cgu.295.rcgu.o)
 .note.GNU-stack
                0x0000000000000000        0x0 bin/obj/rslib.a(compiler_builtins-fabd8ee97a026881.compiler_builtins.f286be164c3a919f-cgu.018.rcgu.o)

.debug_frame    0x0000000000000000     0xa680
 .debug_frame   0x0000000000000000       0xa8 bin/obj/kernel/irq/irq.o
 .debug_frame   0x00000000000000a8       0x60 bin/obj/kernel/init/early_init.o
 .debug_frame   0x0000000000000108      0x170 bin/obj/kernel/init/init_drivers.o
 .debug_frame   0x0000000000000278       0x68 bin/obj/kernel/init/init.o
 .debug_frame   0x00000000000002e0       0x60 bin/obj/kernel/lib/smp.o
 .debug_frame   0x0000000000000340      0x350 bin/obj/kernel/mm/phys/page_allocator.o
 .debug_frame   0x0000000000000690      0x148 bin/obj/kernel/mm/init/identity_mapping.o
 .debug_frame   0x00000000000007d8      0x110 bin/obj/kernel/mm/init/init.o
 .debug_frame   0x00000000000008e8      0x2b0 bin/obj/kernel/mm/init/mem_regions/early_kalloc.o
 .debug_frame   0x0000000000000b98      0x1a8 bin/obj/kernel/mm/mm_info.o
 .debug_frame   0x0000000000000d40       0x60 bin/obj/kernel/mm/mm.o
 .debug_frame   0x0000000000000da0      0x150 bin/obj/kernel/mm/virt/containers/containers.o
 .debug_frame   0x0000000000000ef0      0x5f0 bin/obj/kernel/mm/virt/vmalloc.o
 .debug_frame   0x00000000000014e0      0x238 bin/obj/kernel/mm/virt/mdt/mdt.o
 .debug_frame   0x0000000000001718       0xf0 bin/obj/kernel/mm/malloc/reserve_malloc.o
 .debug_frame   0x0000000000001808      0x1d0 bin/obj/kernel/mm/malloc/raw_kmalloc.o
 .debug_frame   0x00000000000019d8       0x70 bin/obj/kernel/mm/reloc/reloc.o
 .debug_frame   0x0000000000001a48       0x38 bin/obj/kernel/kernel_entry.o
 .debug_frame   0x0000000000001a80      0x140 bin/obj/kernel/io/term.o
 .debug_frame   0x0000000000001bc0      0x100 bin/obj/kernel/panic/panic.o
 .debug_frame   0x0000000000001cc0       0x60 bin/obj/kernel/panic/panic_puts.o
 .debug_frame   0x0000000000001d20      0x138 bin/obj/kernel/panic/panic_exception/panic_exception_handlers.o
 .debug_frame   0x0000000000001e58       0x58 bin/obj/kernel/panic/panic_exception/esr/esr.o
 .debug_frame   0x0000000000001eb0       0x78 bin/obj/kernel/panic/panic_exception/esr/data_abort.o
 .debug_frame   0x0000000000001f28       0x38 bin/obj/arm/cpu.o
 .debug_frame   0x0000000000001f60       0x38 bin/obj/arm/exceptions/handlers/el1/el1_low_a32_serror.o
 .debug_frame   0x0000000000001f98       0x38 bin/obj/arm/exceptions/handlers/el1/el1_low_a32_fiq.o
 .debug_frame   0x0000000000001fd0       0x38 bin/obj/arm/exceptions/handlers/el1/el1_low_a64_sync.o
 .debug_frame   0x0000000000002008       0x38 bin/obj/arm/exceptions/handlers/el1/el1_cur_spx_fiq.o
 .debug_frame   0x0000000000002040       0x38 bin/obj/arm/exceptions/handlers/el1/el1_cur_spx_irq.o
 .debug_frame   0x0000000000002078       0x38 bin/obj/arm/exceptions/handlers/el1/el1_cur_spx_serror.o
 .debug_frame   0x00000000000020b0       0x38 bin/obj/arm/exceptions/handlers/el1/el1_low_a32_irq.o
 .debug_frame   0x00000000000020e8       0x38 bin/obj/arm/exceptions/handlers/el1/el1_low_a64_fiq.o
 .debug_frame   0x0000000000002120       0x38 bin/obj/arm/exceptions/handlers/el1/el1_low_a64_irq.o
 .debug_frame   0x0000000000002158       0x38 bin/obj/arm/exceptions/handlers/el1/el1_cur_sp0_sync.o
 .debug_frame   0x0000000000002190       0x38 bin/obj/arm/exceptions/handlers/el1/el1_low_a64_serror.o
 .debug_frame   0x00000000000021c8       0x38 bin/obj/arm/exceptions/handlers/el1/el1_low_a32_sync.o
 .debug_frame   0x0000000000002200       0x38 bin/obj/arm/exceptions/handlers/el1/el1_cur_spx_sync.o
 .debug_frame   0x0000000000002238       0x38 bin/obj/arm/exceptions/handlers/el1/el1_cur_sp0_fiq.o
 .debug_frame   0x0000000000002270       0x38 bin/obj/arm/exceptions/handlers/el1/el1_cur_sp0_serror.o
 .debug_frame   0x00000000000022a8       0x38 bin/obj/arm/exceptions/handlers/el1/el1_cur_sp0_irq.o
 .debug_frame   0x00000000000022e0       0x38 bin/obj/arm/exceptions/handlers/el2/el2_low_a32_serror.o
 .debug_frame   0x0000000000002318       0x38 bin/obj/arm/exceptions/handlers/el2/el2_cur_spx_serror.o
 .debug_frame   0x0000000000002350       0x38 bin/obj/arm/exceptions/handlers/el2/el2_low_a64_serror.o
 .debug_frame   0x0000000000002388       0x38 bin/obj/arm/exceptions/handlers/el2/el2_low_a64_sync.o
 .debug_frame   0x00000000000023c0       0x38 bin/obj/arm/exceptions/handlers/el2/el2_cur_sp0_irq.o
 .debug_frame   0x00000000000023f8       0x38 bin/obj/arm/exceptions/handlers/el2/el2_cur_sp0_serror.o
 .debug_frame   0x0000000000002430       0x38 bin/obj/arm/exceptions/handlers/el2/el2_low_a64_irq.o
 .debug_frame   0x0000000000002468       0x38 bin/obj/arm/exceptions/handlers/el2/el2_low_a64_fiq.o
 .debug_frame   0x00000000000024a0       0x38 bin/obj/arm/exceptions/handlers/el2/el2_cur_spx_fiq.o
 .debug_frame   0x00000000000024d8       0x38 bin/obj/arm/exceptions/handlers/el2/el2_low_a32_irq.o
 .debug_frame   0x0000000000002510       0x38 bin/obj/arm/exceptions/handlers/el2/el2_cur_sp0_fiq.o
 .debug_frame   0x0000000000002548       0x38 bin/obj/arm/exceptions/handlers/el2/el2_low_a32_fiq.o
 .debug_frame   0x0000000000002580       0x38 bin/obj/arm/exceptions/handlers/el2/el2_cur_spx_sync.o
 .debug_frame   0x00000000000025b8       0x38 bin/obj/arm/exceptions/handlers/el2/el2_low_a32_sync.o
 .debug_frame   0x00000000000025f0       0x38 bin/obj/arm/exceptions/handlers/el2/el2_cur_sp0_sync.o
 .debug_frame   0x0000000000002628       0x38 bin/obj/arm/exceptions/handlers/el2/el2_cur_spx_irq.o
 .debug_frame   0x0000000000002660       0x80 bin/obj/arm/exceptions/handlers/exception_macros.o
 .debug_frame   0x00000000000026e0       0xd8 bin/obj/arm/exceptions/exceptions.o
 .debug_frame   0x00000000000027b8       0x90 bin/obj/arm/mmu/regs/mmu_sysregs.o
 .debug_frame   0x0000000000002848      0x318 bin/obj/arm/mmu/mmu_debugging.o
 .debug_frame   0x0000000000002b60      0xac8 bin/obj/arm/mmu/mmu.o
 .debug_frame   0x0000000000003628       0xa8 bin/obj/lib/lock/corelock.o
 .debug_frame   0x00000000000036d0      0x228 bin/obj/lib/malloc/xalloc.o
 .debug_frame   0x00000000000038f8       0x50 bin/obj/lib/string/string.o
 .debug_frame   0x0000000000003948       0xb8 bin/obj/lib/string/fmt.o
 .debug_frame   0x0000000000003a00       0x88 bin/obj/lib/mem/memcpy/memcpy.o
 .debug_frame   0x0000000000003a88       0x38 bin/obj/lib/mem/mem.o
 .debug_frame   0x0000000000003ac0      0x278 bin/obj/drivers/arm_generic_timer/arm_generic_timer.o
 .debug_frame   0x0000000000003d38      0x978 bin/obj/drivers/tmu/tmu.o
 .debug_frame   0x00000000000046b0      0x6f0 bin/obj/drivers/interrupts/gicv3/gicv3.o
 .debug_frame   0x0000000000004da0      0xec0 bin/obj/drivers/uart/uart.o
 .debug_frame   0x0000000000005c60      0x168 bin/obj/rslib.a(imx8mp_kernel-1a53598e06c50be6.imx8mp_kernel.241a9a11e0e6ae75-cgu.0.rcgu.o)
 .debug_frame   0x0000000000005dc8     0x47c0 bin/obj/rslib.a(core-dca77d77b03929cc.core.bbd04c23a4fa3c72-cgu.0.rcgu.o)
 .debug_frame   0x000000000000a588       0x30 bin/obj/rslib.a(compiler_builtins-fabd8ee97a026881.compiler_builtins.f286be164c3a919f-cgu.099.rcgu.o)
 .debug_frame   0x000000000000a5b8       0x30 bin/obj/rslib.a(compiler_builtins-fabd8ee97a026881.compiler_builtins.f286be164c3a919f-cgu.173.rcgu.o)
 .debug_frame   0x000000000000a5e8       0x38 bin/obj/rslib.a(compiler_builtins-fabd8ee97a026881.compiler_builtins.f286be164c3a919f-cgu.242.rcgu.o)
 .debug_frame   0x000000000000a620       0x30 bin/obj/rslib.a(compiler_builtins-fabd8ee97a026881.compiler_builtins.f286be164c3a919f-cgu.295.rcgu.o)
 .debug_frame   0x000000000000a650       0x30 bin/obj/rslib.a(compiler_builtins-fabd8ee97a026881.compiler_builtins.f286be164c3a919f-cgu.018.rcgu.o)

.debug_loc      0x0000000000000000      0xcf7
 .debug_loc     0x0000000000000000      0xcf7 bin/obj/rslib.a(imx8mp_kernel-1a53598e06c50be6.imx8mp_kernel.241a9a11e0e6ae75-cgu.0.rcgu.o)

.debug_ranges   0x0000000000000000    0x1bad0
 .debug_ranges  0x0000000000000000      0x500 bin/obj/rslib.a(imx8mp_kernel-1a53598e06c50be6.imx8mp_kernel.241a9a11e0e6ae75-cgu.0.rcgu.o)
 .debug_ranges  0x0000000000000500    0x1b320 bin/obj/rslib.a(core-dca77d77b03929cc.core.bbd04c23a4fa3c72-cgu.0.rcgu.o)
 .debug_ranges  0x000000000001b820       0x90 bin/obj/rslib.a(compiler_builtins-fabd8ee97a026881.compiler_builtins.f286be164c3a919f-cgu.173.rcgu.o)
 .debug_ranges  0x000000000001b8b0       0x90 bin/obj/rslib.a(compiler_builtins-fabd8ee97a026881.compiler_builtins.f286be164c3a919f-cgu.295.rcgu.o)
 .debug_ranges  0x000000000001b940      0x190 bin/obj/rslib.a(compiler_builtins-fabd8ee97a026881.compiler_builtins.f286be164c3a919f-cgu.018.rcgu.o)
