
bin/kernel.elf:     file format elf64-littleaarch64


Disassembly of section .text:

0000000040000000 <__text_start>:
.section .text.boot
.global _start

_start:
    nop
    40000000:	d503201f 	nop
    //  disable DAIF exceptions
    msr daifset, #0xf
    40000004:	d5034fdf 	msr	daifset, #0xf

#ifdef TEST
    mrs x0, CurrentEL
    40000008:	d5384240 	mrs	x0, currentel
    lsr x0, x0, #2 // x0 = x0 >> 2
    4000000c:	d342fc00 	lsr	x0, x0, #2
    cmp x0, #2
    40000010:	f100081f 	cmp	x0, #0x2
    b.ne hang
    40000014:	540000e1 	b.ne	40000030 <hang>  // b.any
#endif

    //  Init EL2 stack
    ldr x0, =__stack_el2_top
    40000018:	58000100 	ldr	x0, 40000038 <hang+0x8>
    mov sp, x0
    4000001c:	9100001f 	mov	sp, x0

    //  Set EL2 vector table
    bl _el2_init_vector
    40000020:	940001f8 	bl	40000800 <_el2_init_vector>
    bl _clean_bss
    40000024:	94000ccb 	bl	40003350 <_clean_bss>
    bl init_panic
    40000028:	94001488 	bl	40005248 <init_panic>
    
    bl _switch_to_el1
    4000002c:	94000ce1 	bl	400033b0 <_switch_to_el1>

0000000040000030 <hang>:

hang:
    wfe
    40000030:	d503205f 	wfe
    b hang
    40000034:	17ffffff 	b	40000030 <hang>
    40000038:	4110c000 	.inst	0x4110c000 ; undefined
    4000003c:	00000000 	udf	#0

0000000040000040 <_cache_flush_range>:
.section .text

// x0 = void* start, x1 = void* end
.global _cache_flush_range
_cache_flush_range: 
    tst x0, #63
    40000040:	f240141f 	tst	x0, #0x3f
    b.ne hang
    40000044:	540001a1 	b.ne	40000078 <hang>  // b.any
    tst x1, #63
    40000048:	f240143f 	tst	x1, #0x3f
    b.ne hang
    4000004c:	54000161 	b.ne	40000078 <hang>  // b.any

1:
    cmp x1, x0
    40000050:	eb00003f 	cmp	x1, x0
    b.lt 2f
    40000054:	540000ab 	b.lt	40000068 <_cache_flush_range+0x28>  // b.tstop

    ic ivau, x0
    40000058:	d50b7520 	ic	ivau, x0
    dc cvau, x0
    4000005c:	d50b7b20 	dc	cvau, x0

    add x0, x0, #64
    40000060:	91010000 	add	x0, x0, #0x40
    b 1b
    40000064:	17fffffb 	b	40000050 <_cache_flush_range+0x10>

2:
    ic iallu
    40000068:	d508751f 	ic	iallu
    dsb ish
    4000006c:	d5033b9f 	dsb	ish
    isb
    40000070:	d5033fdf 	isb
    
    ret
    40000074:	d65f03c0 	ret

0000000040000078 <hang>:

hang:
    wfe
    40000078:	d503205f 	wfe
    b hang
    4000007c:	17ffffff 	b	40000078 <hang>

0000000040000080 <_icache_flush_range>:
.section .text

// x0 = void* start, x1 = void* end
.global _icache_flush_range
_icache_flush_range: 
    tst x0, #63
    40000080:	f240141f 	tst	x0, #0x3f
    b.ne hang
    40000084:	54000181 	b.ne	400000b4 <hang>  // b.any
    tst x1, #63
    40000088:	f240143f 	tst	x1, #0x3f
    b.ne hang
    4000008c:	54000141 	b.ne	400000b4 <hang>  // b.any

1:
    cmp x1, x0
    40000090:	eb00003f 	cmp	x1, x0
    b.lt 2f
    40000094:	5400008b 	b.lt	400000a4 <_icache_flush_range+0x24>  // b.tstop

    ic ivau, x0
    40000098:	d50b7520 	ic	ivau, x0

    add x0, x0, #64
    4000009c:	91010000 	add	x0, x0, #0x40
    b 1b
    400000a0:	17fffffc 	b	40000090 <_icache_flush_range+0x10>

2:
    ic iallu
    400000a4:	d508751f 	ic	iallu
    dsb ish
    400000a8:	d5033b9f 	dsb	ish
    isb
    400000ac:	d5033fdf 	isb
    
    ret
    400000b0:	d65f03c0 	ret

00000000400000b4 <hang>:

hang:
    wfe
    400000b4:	d503205f 	wfe
    b hang
    400000b8:	17ffffff 	b	400000b4 <hang>

00000000400000bc <_dcache_flush_range>:
.section .text

// x0 = void* start, x1 = void* end
.global _dcache_flush_range
_dcache_flush_range: 
    tst x0, #63
    400000bc:	f240141f 	tst	x0, #0x3f
    b.ne hang
    400000c0:	54000181 	b.ne	400000f0 <hang>  // b.any
    tst x1, #63
    400000c4:	f240143f 	tst	x1, #0x3f
    b.ne hang
    400000c8:	54000141 	b.ne	400000f0 <hang>  // b.any

1:
    cmp x1, x0
    400000cc:	eb00003f 	cmp	x1, x0
    b.lt 2f
    400000d0:	5400008b 	b.lt	400000e0 <_dcache_flush_range+0x24>  // b.tstop

    dc cvau, x0
    400000d4:	d50b7b20 	dc	cvau, x0

    add x0, x0, #64
    400000d8:	91010000 	add	x0, x0, #0x40
    b 1b
    400000dc:	17fffffc 	b	400000cc <_dcache_flush_range+0x10>

2:
    ic iallu
    400000e0:	d508751f 	ic	iallu
    dsb ish
    400000e4:	d5033b9f 	dsb	ish
    isb
    400000e8:	d5033fdf 	isb
    
    ret
    400000ec:	d65f03c0 	ret

00000000400000f0 <hang>:

hang:
    wfe
    400000f0:	d503205f 	wfe
    b hang
    400000f4:	17ffffff 	b	400000f0 <hang>

00000000400000f8 <_ARM_currentEL>:
.section .text
.align 2

.global _ARM_currentEL
_ARM_currentEL:
    mrs x0, CurrentEL
    400000f8:	d5384240 	mrs	x0, currentel
    lsr x0, x0, #2
    400000fc:	d342fc00 	lsr	x0, x0, #2
    ret
    40000100:	d65f03c0 	ret

0000000040000104 <_ARM_MPIDR_EL1>:

.global _ARM_MPIDR_EL1
_ARM_MPIDR_EL1:
    mrs x0, MPIDR_EL1
    40000104:	d53800a0 	mrs	x0, mpidr_el1
    ret
    40000108:	d65f03c0 	ret

000000004000010c <_ARM_ICC_SRE_EL2>:

.global _ARM_ICC_SRE_EL2
_ARM_ICC_SRE_EL2:
    mrs x0, ICC_SRE_EL2
    4000010c:	d53cc9a0 	mrs	x0, icc_sre_el2
    ret
    40000110:	d65f03c0 	ret

0000000040000114 <_ARM_HCR_EL2>:

.global _ARM_HCR_EL2
_ARM_HCR_EL2:
    mrs x0, HCR_EL2
    40000114:	d53c1100 	mrs	x0, hcr_el2
    ret
    40000118:	d65f03c0 	ret

000000004000011c <_ARM_ESR_EL2>:

.global _ARM_ESR_EL2
_ARM_ESR_EL2:
    mrs x0, ESR_EL2
    4000011c:	d53c5200 	mrs	x0, esr_el2
    ret
    40000120:	d65f03c0 	ret

0000000040000124 <_ARM_ELR_EL2>:

.global _ARM_ELR_EL2
_ARM_ELR_EL2:
    mrs x0, ELR_EL2
    40000124:	d53c4020 	mrs	x0, elr_el2
    ret
    40000128:	d65f03c0 	ret

000000004000012c <_ARM_FAR_EL2>:

.global _ARM_FAR_EL2
_ARM_FAR_EL2:
    mrs x0, FAR_EL2
    4000012c:	d53c6000 	mrs	x0, far_el2
    ret
    40000130:	d65f03c0 	ret

0000000040000134 <_ARM_SPSR_EL2>:

.global _ARM_SPSR_EL2
_ARM_SPSR_EL2:
    mrs x0, SPSR_EL2
    40000134:	d53c4000 	mrs	x0, spsr_el2
    ret
    40000138:	d65f03c0 	ret

000000004000013c <_ARM_ESR_EL1>:

.global _ARM_ESR_EL1
_ARM_ESR_EL1:
    mrs x0, ESR_EL1
    4000013c:	d5385200 	mrs	x0, esr_el1
    ret
    40000140:	d65f03c0 	ret

0000000040000144 <_ARM_ELR_EL1>:

.global _ARM_ELR_EL1
_ARM_ELR_EL1:
    mrs x0, ELR_EL1
    40000144:	d5384020 	mrs	x0, elr_el1
    ret
    40000148:	d65f03c0 	ret

000000004000014c <_ARM_FAR_EL1>:

.global _ARM_FAR_EL1
_ARM_FAR_EL1:
    mrs x0, FAR_EL1
    4000014c:	d5386000 	mrs	x0, far_el1
    ret
    40000150:	d65f03c0 	ret

0000000040000154 <_ARM_SPSR_EL1>:

.global _ARM_SPSR_EL1
_ARM_SPSR_EL1:
    mrs x0, SPSR_EL1
    40000154:	d5384000 	mrs	x0, spsr_el1
    ret
    40000158:	d65f03c0 	ret

000000004000015c <_ARM_SCTLR_EL1>:

.global _ARM_SCTLR_EL1
_ARM_SCTLR_EL1:
    mrs x0, SCTLR_EL1
    4000015c:	d5381000 	mrs	x0, sctlr_el1
    ret
    40000160:	d65f03c0 	ret

0000000040000164 <_ARM_SCTLR_EL2>:

.global _ARM_SCTLR_EL2
_ARM_SCTLR_EL2:
    mrs x0, SCTLR_EL2
    40000164:	d53c1000 	mrs	x0, sctlr_el2
    ret
    40000168:	d65f03c0 	ret
	...

0000000040000800 <_el2_init_vector>:
.section .text
.global _el2_init_vector
.align 4
_el2_init_vector:
    adr     x0, _el2_vector_table
    40000800:	1003c000 	adr	x0, 40008000 <__vectors_start>
    msr     VBAR_EL2, x0
    40000804:	d51cc000 	msr	vbar_el2, x0
    isb
    40000808:	d5033fdf 	isb
    ret
    4000080c:	d65f03c0 	ret
    40000810:	d503201f 	nop
    40000814:	d503201f 	nop
    40000818:	d503201f 	nop
    4000081c:	d503201f 	nop
    40000820:	d503201f 	nop
    40000824:	d503201f 	nop
    40000828:	d503201f 	nop
    4000082c:	d503201f 	nop
    40000830:	d503201f 	nop
    40000834:	d503201f 	nop
    40000838:	d503201f 	nop
    4000083c:	d503201f 	nop
    40000840:	d503201f 	nop
    40000844:	d503201f 	nop
    40000848:	d503201f 	nop
    4000084c:	d503201f 	nop
    40000850:	d503201f 	nop
    40000854:	d503201f 	nop
    40000858:	d503201f 	nop
    4000085c:	d503201f 	nop
    40000860:	d503201f 	nop
    40000864:	d503201f 	nop
    40000868:	d503201f 	nop
    4000086c:	d503201f 	nop
    40000870:	d503201f 	nop
    40000874:	d503201f 	nop
    40000878:	d503201f 	nop
    4000087c:	d503201f 	nop
    40000880:	d503201f 	nop
    40000884:	d503201f 	nop
    40000888:	d503201f 	nop
    4000088c:	d503201f 	nop
    40000890:	d503201f 	nop
    40000894:	d503201f 	nop
    40000898:	d503201f 	nop
    4000089c:	d503201f 	nop
    400008a0:	d503201f 	nop
    400008a4:	d503201f 	nop
    400008a8:	d503201f 	nop
    400008ac:	d503201f 	nop
    400008b0:	d503201f 	nop
    400008b4:	d503201f 	nop
    400008b8:	d503201f 	nop
    400008bc:	d503201f 	nop
    400008c0:	d503201f 	nop
    400008c4:	d503201f 	nop
    400008c8:	d503201f 	nop
    400008cc:	d503201f 	nop
    400008d0:	d503201f 	nop
    400008d4:	d503201f 	nop
    400008d8:	d503201f 	nop
    400008dc:	d503201f 	nop
    400008e0:	d503201f 	nop
    400008e4:	d503201f 	nop
    400008e8:	d503201f 	nop
    400008ec:	d503201f 	nop
    400008f0:	d503201f 	nop
    400008f4:	d503201f 	nop
    400008f8:	d503201f 	nop
    400008fc:	d503201f 	nop
    40000900:	d503201f 	nop
    40000904:	d503201f 	nop
    40000908:	d503201f 	nop
    4000090c:	d503201f 	nop
    40000910:	d503201f 	nop
    40000914:	d503201f 	nop
    40000918:	d503201f 	nop
    4000091c:	d503201f 	nop
    40000920:	d503201f 	nop
    40000924:	d503201f 	nop
    40000928:	d503201f 	nop
    4000092c:	d503201f 	nop
    40000930:	d503201f 	nop
    40000934:	d503201f 	nop
    40000938:	d503201f 	nop
    4000093c:	d503201f 	nop
    40000940:	d503201f 	nop
    40000944:	d503201f 	nop
    40000948:	d503201f 	nop
    4000094c:	d503201f 	nop
    40000950:	d503201f 	nop
    40000954:	d503201f 	nop
    40000958:	d503201f 	nop
    4000095c:	d503201f 	nop
    40000960:	d503201f 	nop
    40000964:	d503201f 	nop
    40000968:	d503201f 	nop
    4000096c:	d503201f 	nop
    40000970:	d503201f 	nop
    40000974:	d503201f 	nop
    40000978:	d503201f 	nop
    4000097c:	d503201f 	nop
    40000980:	d503201f 	nop
    40000984:	d503201f 	nop
    40000988:	d503201f 	nop
    4000098c:	d503201f 	nop
    40000990:	d503201f 	nop
    40000994:	d503201f 	nop
    40000998:	d503201f 	nop
    4000099c:	d503201f 	nop
    400009a0:	d503201f 	nop
    400009a4:	d503201f 	nop
    400009a8:	d503201f 	nop
    400009ac:	d503201f 	nop
    400009b0:	d503201f 	nop
    400009b4:	d503201f 	nop
    400009b8:	d503201f 	nop
    400009bc:	d503201f 	nop
    400009c0:	d503201f 	nop
    400009c4:	d503201f 	nop
    400009c8:	d503201f 	nop
    400009cc:	d503201f 	nop
    400009d0:	d503201f 	nop
    400009d4:	d503201f 	nop
    400009d8:	d503201f 	nop
    400009dc:	d503201f 	nop
    400009e0:	d503201f 	nop
    400009e4:	d503201f 	nop
    400009e8:	d503201f 	nop
    400009ec:	d503201f 	nop
    400009f0:	d503201f 	nop
    400009f4:	d503201f 	nop
    400009f8:	d503201f 	nop
    400009fc:	d503201f 	nop
    40000a00:	d503201f 	nop
    40000a04:	d503201f 	nop
    40000a08:	d503201f 	nop
    40000a0c:	d503201f 	nop
    40000a10:	d503201f 	nop
    40000a14:	d503201f 	nop
    40000a18:	d503201f 	nop
    40000a1c:	d503201f 	nop
    40000a20:	d503201f 	nop
    40000a24:	d503201f 	nop
    40000a28:	d503201f 	nop
    40000a2c:	d503201f 	nop
    40000a30:	d503201f 	nop
    40000a34:	d503201f 	nop
    40000a38:	d503201f 	nop
    40000a3c:	d503201f 	nop
    40000a40:	d503201f 	nop
    40000a44:	d503201f 	nop
    40000a48:	d503201f 	nop
    40000a4c:	d503201f 	nop
    40000a50:	d503201f 	nop
    40000a54:	d503201f 	nop
    40000a58:	d503201f 	nop
    40000a5c:	d503201f 	nop
    40000a60:	d503201f 	nop
    40000a64:	d503201f 	nop
    40000a68:	d503201f 	nop
    40000a6c:	d503201f 	nop
    40000a70:	d503201f 	nop
    40000a74:	d503201f 	nop
    40000a78:	d503201f 	nop
    40000a7c:	d503201f 	nop
    40000a80:	d503201f 	nop
    40000a84:	d503201f 	nop
    40000a88:	d503201f 	nop
    40000a8c:	d503201f 	nop
    40000a90:	d503201f 	nop
    40000a94:	d503201f 	nop
    40000a98:	d503201f 	nop
    40000a9c:	d503201f 	nop
    40000aa0:	d503201f 	nop
    40000aa4:	d503201f 	nop
    40000aa8:	d503201f 	nop
    40000aac:	d503201f 	nop
    40000ab0:	d503201f 	nop
    40000ab4:	d503201f 	nop
    40000ab8:	d503201f 	nop
    40000abc:	d503201f 	nop
    40000ac0:	d503201f 	nop
    40000ac4:	d503201f 	nop
    40000ac8:	d503201f 	nop
    40000acc:	d503201f 	nop
    40000ad0:	d503201f 	nop
    40000ad4:	d503201f 	nop
    40000ad8:	d503201f 	nop
    40000adc:	d503201f 	nop
    40000ae0:	d503201f 	nop
    40000ae4:	d503201f 	nop
    40000ae8:	d503201f 	nop
    40000aec:	d503201f 	nop
    40000af0:	d503201f 	nop
    40000af4:	d503201f 	nop
    40000af8:	d503201f 	nop
    40000afc:	d503201f 	nop
    40000b00:	d503201f 	nop
    40000b04:	d503201f 	nop
    40000b08:	d503201f 	nop
    40000b0c:	d503201f 	nop
    40000b10:	d503201f 	nop
    40000b14:	d503201f 	nop
    40000b18:	d503201f 	nop
    40000b1c:	d503201f 	nop
    40000b20:	d503201f 	nop
    40000b24:	d503201f 	nop
    40000b28:	d503201f 	nop
    40000b2c:	d503201f 	nop
    40000b30:	d503201f 	nop
    40000b34:	d503201f 	nop
    40000b38:	d503201f 	nop
    40000b3c:	d503201f 	nop
    40000b40:	d503201f 	nop
    40000b44:	d503201f 	nop
    40000b48:	d503201f 	nop
    40000b4c:	d503201f 	nop
    40000b50:	d503201f 	nop
    40000b54:	d503201f 	nop
    40000b58:	d503201f 	nop
    40000b5c:	d503201f 	nop
    40000b60:	d503201f 	nop
    40000b64:	d503201f 	nop
    40000b68:	d503201f 	nop
    40000b6c:	d503201f 	nop
    40000b70:	d503201f 	nop
    40000b74:	d503201f 	nop
    40000b78:	d503201f 	nop
    40000b7c:	d503201f 	nop
    40000b80:	d503201f 	nop
    40000b84:	d503201f 	nop
    40000b88:	d503201f 	nop
    40000b8c:	d503201f 	nop
    40000b90:	d503201f 	nop
    40000b94:	d503201f 	nop
    40000b98:	d503201f 	nop
    40000b9c:	d503201f 	nop
    40000ba0:	d503201f 	nop
    40000ba4:	d503201f 	nop
    40000ba8:	d503201f 	nop
    40000bac:	d503201f 	nop
    40000bb0:	d503201f 	nop
    40000bb4:	d503201f 	nop
    40000bb8:	d503201f 	nop
    40000bbc:	d503201f 	nop
    40000bc0:	d503201f 	nop
    40000bc4:	d503201f 	nop
    40000bc8:	d503201f 	nop
    40000bcc:	d503201f 	nop
    40000bd0:	d503201f 	nop
    40000bd4:	d503201f 	nop
    40000bd8:	d503201f 	nop
    40000bdc:	d503201f 	nop
    40000be0:	d503201f 	nop
    40000be4:	d503201f 	nop
    40000be8:	d503201f 	nop
    40000bec:	d503201f 	nop
    40000bf0:	d503201f 	nop
    40000bf4:	d503201f 	nop
    40000bf8:	d503201f 	nop
    40000bfc:	d503201f 	nop
    40000c00:	d503201f 	nop
    40000c04:	d503201f 	nop
    40000c08:	d503201f 	nop
    40000c0c:	d503201f 	nop
    40000c10:	d503201f 	nop
    40000c14:	d503201f 	nop
    40000c18:	d503201f 	nop
    40000c1c:	d503201f 	nop
    40000c20:	d503201f 	nop
    40000c24:	d503201f 	nop
    40000c28:	d503201f 	nop
    40000c2c:	d503201f 	nop
    40000c30:	d503201f 	nop
    40000c34:	d503201f 	nop
    40000c38:	d503201f 	nop
    40000c3c:	d503201f 	nop
    40000c40:	d503201f 	nop
    40000c44:	d503201f 	nop
    40000c48:	d503201f 	nop
    40000c4c:	d503201f 	nop
    40000c50:	d503201f 	nop
    40000c54:	d503201f 	nop
    40000c58:	d503201f 	nop
    40000c5c:	d503201f 	nop
    40000c60:	d503201f 	nop
    40000c64:	d503201f 	nop
    40000c68:	d503201f 	nop
    40000c6c:	d503201f 	nop
    40000c70:	d503201f 	nop
    40000c74:	d503201f 	nop
    40000c78:	d503201f 	nop
    40000c7c:	d503201f 	nop
    40000c80:	d503201f 	nop
    40000c84:	d503201f 	nop
    40000c88:	d503201f 	nop
    40000c8c:	d503201f 	nop
    40000c90:	d503201f 	nop
    40000c94:	d503201f 	nop
    40000c98:	d503201f 	nop
    40000c9c:	d503201f 	nop
    40000ca0:	d503201f 	nop
    40000ca4:	d503201f 	nop
    40000ca8:	d503201f 	nop
    40000cac:	d503201f 	nop
    40000cb0:	d503201f 	nop
    40000cb4:	d503201f 	nop
    40000cb8:	d503201f 	nop
    40000cbc:	d503201f 	nop
    40000cc0:	d503201f 	nop
    40000cc4:	d503201f 	nop
    40000cc8:	d503201f 	nop
    40000ccc:	d503201f 	nop
    40000cd0:	d503201f 	nop
    40000cd4:	d503201f 	nop
    40000cd8:	d503201f 	nop
    40000cdc:	d503201f 	nop
    40000ce0:	d503201f 	nop
    40000ce4:	d503201f 	nop
    40000ce8:	d503201f 	nop
    40000cec:	d503201f 	nop
    40000cf0:	d503201f 	nop
    40000cf4:	d503201f 	nop
    40000cf8:	d503201f 	nop
    40000cfc:	d503201f 	nop
    40000d00:	d503201f 	nop
    40000d04:	d503201f 	nop
    40000d08:	d503201f 	nop
    40000d0c:	d503201f 	nop
    40000d10:	d503201f 	nop
    40000d14:	d503201f 	nop
    40000d18:	d503201f 	nop
    40000d1c:	d503201f 	nop
    40000d20:	d503201f 	nop
    40000d24:	d503201f 	nop
    40000d28:	d503201f 	nop
    40000d2c:	d503201f 	nop
    40000d30:	d503201f 	nop
    40000d34:	d503201f 	nop
    40000d38:	d503201f 	nop
    40000d3c:	d503201f 	nop
    40000d40:	d503201f 	nop
    40000d44:	d503201f 	nop
    40000d48:	d503201f 	nop
    40000d4c:	d503201f 	nop
    40000d50:	d503201f 	nop
    40000d54:	d503201f 	nop
    40000d58:	d503201f 	nop
    40000d5c:	d503201f 	nop
    40000d60:	d503201f 	nop
    40000d64:	d503201f 	nop
    40000d68:	d503201f 	nop
    40000d6c:	d503201f 	nop
    40000d70:	d503201f 	nop
    40000d74:	d503201f 	nop
    40000d78:	d503201f 	nop
    40000d7c:	d503201f 	nop
    40000d80:	d503201f 	nop
    40000d84:	d503201f 	nop
    40000d88:	d503201f 	nop
    40000d8c:	d503201f 	nop
    40000d90:	d503201f 	nop
    40000d94:	d503201f 	nop
    40000d98:	d503201f 	nop
    40000d9c:	d503201f 	nop
    40000da0:	d503201f 	nop
    40000da4:	d503201f 	nop
    40000da8:	d503201f 	nop
    40000dac:	d503201f 	nop
    40000db0:	d503201f 	nop
    40000db4:	d503201f 	nop
    40000db8:	d503201f 	nop
    40000dbc:	d503201f 	nop
    40000dc0:	d503201f 	nop
    40000dc4:	d503201f 	nop
    40000dc8:	d503201f 	nop
    40000dcc:	d503201f 	nop
    40000dd0:	d503201f 	nop
    40000dd4:	d503201f 	nop
    40000dd8:	d503201f 	nop
    40000ddc:	d503201f 	nop
    40000de0:	d503201f 	nop
    40000de4:	d503201f 	nop
    40000de8:	d503201f 	nop
    40000dec:	d503201f 	nop
    40000df0:	d503201f 	nop
    40000df4:	d503201f 	nop
    40000df8:	d503201f 	nop
    40000dfc:	d503201f 	nop
    40000e00:	d503201f 	nop
    40000e04:	d503201f 	nop
    40000e08:	d503201f 	nop
    40000e0c:	d503201f 	nop
    40000e10:	d503201f 	nop
    40000e14:	d503201f 	nop
    40000e18:	d503201f 	nop
    40000e1c:	d503201f 	nop
    40000e20:	d503201f 	nop
    40000e24:	d503201f 	nop
    40000e28:	d503201f 	nop
    40000e2c:	d503201f 	nop
    40000e30:	d503201f 	nop
    40000e34:	d503201f 	nop
    40000e38:	d503201f 	nop
    40000e3c:	d503201f 	nop
    40000e40:	d503201f 	nop
    40000e44:	d503201f 	nop
    40000e48:	d503201f 	nop
    40000e4c:	d503201f 	nop
    40000e50:	d503201f 	nop
    40000e54:	d503201f 	nop
    40000e58:	d503201f 	nop
    40000e5c:	d503201f 	nop
    40000e60:	d503201f 	nop
    40000e64:	d503201f 	nop
    40000e68:	d503201f 	nop
    40000e6c:	d503201f 	nop
    40000e70:	d503201f 	nop
    40000e74:	d503201f 	nop
    40000e78:	d503201f 	nop
    40000e7c:	d503201f 	nop
    40000e80:	d503201f 	nop
    40000e84:	d503201f 	nop
    40000e88:	d503201f 	nop
    40000e8c:	d503201f 	nop
    40000e90:	d503201f 	nop
    40000e94:	d503201f 	nop
    40000e98:	d503201f 	nop
    40000e9c:	d503201f 	nop
    40000ea0:	d503201f 	nop
    40000ea4:	d503201f 	nop
    40000ea8:	d503201f 	nop
    40000eac:	d503201f 	nop
    40000eb0:	d503201f 	nop
    40000eb4:	d503201f 	nop
    40000eb8:	d503201f 	nop
    40000ebc:	d503201f 	nop
    40000ec0:	d503201f 	nop
    40000ec4:	d503201f 	nop
    40000ec8:	d503201f 	nop
    40000ecc:	d503201f 	nop
    40000ed0:	d503201f 	nop
    40000ed4:	d503201f 	nop
    40000ed8:	d503201f 	nop
    40000edc:	d503201f 	nop
    40000ee0:	d503201f 	nop
    40000ee4:	d503201f 	nop
    40000ee8:	d503201f 	nop
    40000eec:	d503201f 	nop
    40000ef0:	d503201f 	nop
    40000ef4:	d503201f 	nop
    40000ef8:	d503201f 	nop
    40000efc:	d503201f 	nop
    40000f00:	d503201f 	nop
    40000f04:	d503201f 	nop
    40000f08:	d503201f 	nop
    40000f0c:	d503201f 	nop
    40000f10:	d503201f 	nop
    40000f14:	d503201f 	nop
    40000f18:	d503201f 	nop
    40000f1c:	d503201f 	nop
    40000f20:	d503201f 	nop
    40000f24:	d503201f 	nop
    40000f28:	d503201f 	nop
    40000f2c:	d503201f 	nop
    40000f30:	d503201f 	nop
    40000f34:	d503201f 	nop
    40000f38:	d503201f 	nop
    40000f3c:	d503201f 	nop
    40000f40:	d503201f 	nop
    40000f44:	d503201f 	nop
    40000f48:	d503201f 	nop
    40000f4c:	d503201f 	nop
    40000f50:	d503201f 	nop
    40000f54:	d503201f 	nop
    40000f58:	d503201f 	nop
    40000f5c:	d503201f 	nop
    40000f60:	d503201f 	nop
    40000f64:	d503201f 	nop
    40000f68:	d503201f 	nop
    40000f6c:	d503201f 	nop
    40000f70:	d503201f 	nop
    40000f74:	d503201f 	nop
    40000f78:	d503201f 	nop
    40000f7c:	d503201f 	nop
    40000f80:	d503201f 	nop
    40000f84:	d503201f 	nop
    40000f88:	d503201f 	nop
    40000f8c:	d503201f 	nop
    40000f90:	d503201f 	nop
    40000f94:	d503201f 	nop
    40000f98:	d503201f 	nop
    40000f9c:	d503201f 	nop
    40000fa0:	d503201f 	nop
    40000fa4:	d503201f 	nop
    40000fa8:	d503201f 	nop
    40000fac:	d503201f 	nop
    40000fb0:	d503201f 	nop
    40000fb4:	d503201f 	nop
    40000fb8:	d503201f 	nop
    40000fbc:	d503201f 	nop
    40000fc0:	d503201f 	nop
    40000fc4:	d503201f 	nop
    40000fc8:	d503201f 	nop
    40000fcc:	d503201f 	nop
    40000fd0:	d503201f 	nop
    40000fd4:	d503201f 	nop
    40000fd8:	d503201f 	nop
    40000fdc:	d503201f 	nop
    40000fe0:	d503201f 	nop
    40000fe4:	d503201f 	nop
    40000fe8:	d503201f 	nop
    40000fec:	d503201f 	nop
    40000ff0:	d503201f 	nop
    40000ff4:	d503201f 	nop
    40000ff8:	d503201f 	nop
    40000ffc:	d503201f 	nop

0000000040001000 <_el2_cur_sp0_sync>:
.endm

.section .text
.align 11
_el2_cur_sp0_sync:
    EL2_CALL_WITH_CONTEXT el2_cur_sp0_sync_handler
    40001000:	d10403ff 	sub	sp, sp, #0x100
    40001004:	a90007e0 	stp	x0, x1, [sp]
    40001008:	a9010fe2 	stp	x2, x3, [sp, #16]
    4000100c:	a90217e4 	stp	x4, x5, [sp, #32]
    40001010:	a9031fe6 	stp	x6, x7, [sp, #48]
    40001014:	a90427e8 	stp	x8, x9, [sp, #64]
    40001018:	a9052fea 	stp	x10, x11, [sp, #80]
    4000101c:	a90637ec 	stp	x12, x13, [sp, #96]
    40001020:	a9073fee 	stp	x14, x15, [sp, #112]
    40001024:	a90847f0 	stp	x16, x17, [sp, #128]
    40001028:	a9094ff2 	stp	x18, x19, [sp, #144]
    4000102c:	a90a57f4 	stp	x20, x21, [sp, #160]
    40001030:	a90b5ff6 	stp	x22, x23, [sp, #176]
    40001034:	a90c67f8 	stp	x24, x25, [sp, #192]
    40001038:	a90d6ffa 	stp	x26, x27, [sp, #208]
    4000103c:	a90e77fc 	stp	x28, x29, [sp, #224]
    40001040:	f9007bfe 	str	x30, [sp, #240]
    40001044:	94000cab 	bl	400042f0 <el2_cur_sp0_sync_handler>
    40001048:	a94007e0 	ldp	x0, x1, [sp]
    4000104c:	a9410fe2 	ldp	x2, x3, [sp, #16]
    40001050:	a94217e4 	ldp	x4, x5, [sp, #32]
    40001054:	a9431fe6 	ldp	x6, x7, [sp, #48]
    40001058:	a94427e8 	ldp	x8, x9, [sp, #64]
    4000105c:	a9452fea 	ldp	x10, x11, [sp, #80]
    40001060:	a94637ec 	ldp	x12, x13, [sp, #96]
    40001064:	a9473fee 	ldp	x14, x15, [sp, #112]
    40001068:	a94847f0 	ldp	x16, x17, [sp, #128]
    4000106c:	a9494ff2 	ldp	x18, x19, [sp, #144]
    40001070:	a94a57f4 	ldp	x20, x21, [sp, #160]
    40001074:	a94b5ff6 	ldp	x22, x23, [sp, #176]
    40001078:	a94c67f8 	ldp	x24, x25, [sp, #192]
    4000107c:	a94d6ffa 	ldp	x26, x27, [sp, #208]
    40001080:	a94e77fc 	ldp	x28, x29, [sp, #224]
    40001084:	f9407bfe 	ldr	x30, [sp, #240]
    40001088:	910403ff 	add	sp, sp, #0x100
    4000108c:	d69f03e0 	eret

0000000040001090 <_el2_cur_sp0_irq>:

_el2_cur_sp0_irq:
    EL2_CALL_WITH_CONTEXT el2_cur_sp0_irq_handler
    40001090:	d10403ff 	sub	sp, sp, #0x100
    40001094:	a90007e0 	stp	x0, x1, [sp]
    40001098:	a9010fe2 	stp	x2, x3, [sp, #16]
    4000109c:	a90217e4 	stp	x4, x5, [sp, #32]
    400010a0:	a9031fe6 	stp	x6, x7, [sp, #48]
    400010a4:	a90427e8 	stp	x8, x9, [sp, #64]
    400010a8:	a9052fea 	stp	x10, x11, [sp, #80]
    400010ac:	a90637ec 	stp	x12, x13, [sp, #96]
    400010b0:	a9073fee 	stp	x14, x15, [sp, #112]
    400010b4:	a90847f0 	stp	x16, x17, [sp, #128]
    400010b8:	a9094ff2 	stp	x18, x19, [sp, #144]
    400010bc:	a90a57f4 	stp	x20, x21, [sp, #160]
    400010c0:	a90b5ff6 	stp	x22, x23, [sp, #176]
    400010c4:	a90c67f8 	stp	x24, x25, [sp, #192]
    400010c8:	a90d6ffa 	stp	x26, x27, [sp, #208]
    400010cc:	a90e77fc 	stp	x28, x29, [sp, #224]
    400010d0:	f9007bfe 	str	x30, [sp, #240]
    400010d4:	94000bb5 	bl	40003fa8 <el2_cur_sp0_irq_handler>
    400010d8:	a94007e0 	ldp	x0, x1, [sp]
    400010dc:	a9410fe2 	ldp	x2, x3, [sp, #16]
    400010e0:	a94217e4 	ldp	x4, x5, [sp, #32]
    400010e4:	a9431fe6 	ldp	x6, x7, [sp, #48]
    400010e8:	a94427e8 	ldp	x8, x9, [sp, #64]
    400010ec:	a9452fea 	ldp	x10, x11, [sp, #80]
    400010f0:	a94637ec 	ldp	x12, x13, [sp, #96]
    400010f4:	a9473fee 	ldp	x14, x15, [sp, #112]
    400010f8:	a94847f0 	ldp	x16, x17, [sp, #128]
    400010fc:	a9494ff2 	ldp	x18, x19, [sp, #144]
    40001100:	a94a57f4 	ldp	x20, x21, [sp, #160]
    40001104:	a94b5ff6 	ldp	x22, x23, [sp, #176]
    40001108:	a94c67f8 	ldp	x24, x25, [sp, #192]
    4000110c:	a94d6ffa 	ldp	x26, x27, [sp, #208]
    40001110:	a94e77fc 	ldp	x28, x29, [sp, #224]
    40001114:	f9407bfe 	ldr	x30, [sp, #240]
    40001118:	910403ff 	add	sp, sp, #0x100
    4000111c:	d69f03e0 	eret

0000000040001120 <_el2_cur_sp0_fiq>:

_el2_cur_sp0_fiq:
    EL2_CALL_WITH_CONTEXT el2_cur_sp0_fiq_handler
    40001120:	d10403ff 	sub	sp, sp, #0x100
    40001124:	a90007e0 	stp	x0, x1, [sp]
    40001128:	a9010fe2 	stp	x2, x3, [sp, #16]
    4000112c:	a90217e4 	stp	x4, x5, [sp, #32]
    40001130:	a9031fe6 	stp	x6, x7, [sp, #48]
    40001134:	a90427e8 	stp	x8, x9, [sp, #64]
    40001138:	a9052fea 	stp	x10, x11, [sp, #80]
    4000113c:	a90637ec 	stp	x12, x13, [sp, #96]
    40001140:	a9073fee 	stp	x14, x15, [sp, #112]
    40001144:	a90847f0 	stp	x16, x17, [sp, #128]
    40001148:	a9094ff2 	stp	x18, x19, [sp, #144]
    4000114c:	a90a57f4 	stp	x20, x21, [sp, #160]
    40001150:	a90b5ff6 	stp	x22, x23, [sp, #176]
    40001154:	a90c67f8 	stp	x24, x25, [sp, #192]
    40001158:	a90d6ffa 	stp	x26, x27, [sp, #208]
    4000115c:	a90e77fc 	stp	x28, x29, [sp, #224]
    40001160:	f9007bfe 	str	x30, [sp, #240]
    40001164:	94000c0f 	bl	400041a0 <el2_cur_sp0_fiq_handler>
    40001168:	a94007e0 	ldp	x0, x1, [sp]
    4000116c:	a9410fe2 	ldp	x2, x3, [sp, #16]
    40001170:	a94217e4 	ldp	x4, x5, [sp, #32]
    40001174:	a9431fe6 	ldp	x6, x7, [sp, #48]
    40001178:	a94427e8 	ldp	x8, x9, [sp, #64]
    4000117c:	a9452fea 	ldp	x10, x11, [sp, #80]
    40001180:	a94637ec 	ldp	x12, x13, [sp, #96]
    40001184:	a9473fee 	ldp	x14, x15, [sp, #112]
    40001188:	a94847f0 	ldp	x16, x17, [sp, #128]
    4000118c:	a9494ff2 	ldp	x18, x19, [sp, #144]
    40001190:	a94a57f4 	ldp	x20, x21, [sp, #160]
    40001194:	a94b5ff6 	ldp	x22, x23, [sp, #176]
    40001198:	a94c67f8 	ldp	x24, x25, [sp, #192]
    4000119c:	a94d6ffa 	ldp	x26, x27, [sp, #208]
    400011a0:	a94e77fc 	ldp	x28, x29, [sp, #224]
    400011a4:	f9407bfe 	ldr	x30, [sp, #240]
    400011a8:	910403ff 	add	sp, sp, #0x100
    400011ac:	d69f03e0 	eret

00000000400011b0 <_el2_cur_sp0_serror>:

_el2_cur_sp0_serror:
    EL2_CALL_WITH_CONTEXT el2_cur_sp0_serror_handler
    400011b0:	d10403ff 	sub	sp, sp, #0x100
    400011b4:	a90007e0 	stp	x0, x1, [sp]
    400011b8:	a9010fe2 	stp	x2, x3, [sp, #16]
    400011bc:	a90217e4 	stp	x4, x5, [sp, #32]
    400011c0:	a9031fe6 	stp	x6, x7, [sp, #48]
    400011c4:	a90427e8 	stp	x8, x9, [sp, #64]
    400011c8:	a9052fea 	stp	x10, x11, [sp, #80]
    400011cc:	a90637ec 	stp	x12, x13, [sp, #96]
    400011d0:	a9073fee 	stp	x14, x15, [sp, #112]
    400011d4:	a90847f0 	stp	x16, x17, [sp, #128]
    400011d8:	a9094ff2 	stp	x18, x19, [sp, #144]
    400011dc:	a90a57f4 	stp	x20, x21, [sp, #160]
    400011e0:	a90b5ff6 	stp	x22, x23, [sp, #176]
    400011e4:	a90c67f8 	stp	x24, x25, [sp, #192]
    400011e8:	a90d6ffa 	stp	x26, x27, [sp, #208]
    400011ec:	a90e77fc 	stp	x28, x29, [sp, #224]
    400011f0:	f9007bfe 	str	x30, [sp, #240]
    400011f4:	94000b82 	bl	40003ffc <el2_cur_sp0_serror_handler>
    400011f8:	a94007e0 	ldp	x0, x1, [sp]
    400011fc:	a9410fe2 	ldp	x2, x3, [sp, #16]
    40001200:	a94217e4 	ldp	x4, x5, [sp, #32]
    40001204:	a9431fe6 	ldp	x6, x7, [sp, #48]
    40001208:	a94427e8 	ldp	x8, x9, [sp, #64]
    4000120c:	a9452fea 	ldp	x10, x11, [sp, #80]
    40001210:	a94637ec 	ldp	x12, x13, [sp, #96]
    40001214:	a9473fee 	ldp	x14, x15, [sp, #112]
    40001218:	a94847f0 	ldp	x16, x17, [sp, #128]
    4000121c:	a9494ff2 	ldp	x18, x19, [sp, #144]
    40001220:	a94a57f4 	ldp	x20, x21, [sp, #160]
    40001224:	a94b5ff6 	ldp	x22, x23, [sp, #176]
    40001228:	a94c67f8 	ldp	x24, x25, [sp, #192]
    4000122c:	a94d6ffa 	ldp	x26, x27, [sp, #208]
    40001230:	a94e77fc 	ldp	x28, x29, [sp, #224]
    40001234:	f9407bfe 	ldr	x30, [sp, #240]
    40001238:	910403ff 	add	sp, sp, #0x100
    4000123c:	d69f03e0 	eret

0000000040001240 <_el2_cur_spx_sync>:

_el2_cur_spx_sync:
    EL2_CALL_WITH_CONTEXT el2_cur_spx_sync_handler
    40001240:	d10403ff 	sub	sp, sp, #0x100
    40001244:	a90007e0 	stp	x0, x1, [sp]
    40001248:	a9010fe2 	stp	x2, x3, [sp, #16]
    4000124c:	a90217e4 	stp	x4, x5, [sp, #32]
    40001250:	a9031fe6 	stp	x6, x7, [sp, #48]
    40001254:	a90427e8 	stp	x8, x9, [sp, #64]
    40001258:	a9052fea 	stp	x10, x11, [sp, #80]
    4000125c:	a90637ec 	stp	x12, x13, [sp, #96]
    40001260:	a9073fee 	stp	x14, x15, [sp, #112]
    40001264:	a90847f0 	stp	x16, x17, [sp, #128]
    40001268:	a9094ff2 	stp	x18, x19, [sp, #144]
    4000126c:	a90a57f4 	stp	x20, x21, [sp, #160]
    40001270:	a90b5ff6 	stp	x22, x23, [sp, #176]
    40001274:	a90c67f8 	stp	x24, x25, [sp, #192]
    40001278:	a90d6ffa 	stp	x26, x27, [sp, #208]
    4000127c:	a90e77fc 	stp	x28, x29, [sp, #224]
    40001280:	f9007bfe 	str	x30, [sp, #240]
    40001284:	94000bf1 	bl	40004248 <el2_cur_spx_sync_handler>
    40001288:	a94007e0 	ldp	x0, x1, [sp]
    4000128c:	a9410fe2 	ldp	x2, x3, [sp, #16]
    40001290:	a94217e4 	ldp	x4, x5, [sp, #32]
    40001294:	a9431fe6 	ldp	x6, x7, [sp, #48]
    40001298:	a94427e8 	ldp	x8, x9, [sp, #64]
    4000129c:	a9452fea 	ldp	x10, x11, [sp, #80]
    400012a0:	a94637ec 	ldp	x12, x13, [sp, #96]
    400012a4:	a9473fee 	ldp	x14, x15, [sp, #112]
    400012a8:	a94847f0 	ldp	x16, x17, [sp, #128]
    400012ac:	a9494ff2 	ldp	x18, x19, [sp, #144]
    400012b0:	a94a57f4 	ldp	x20, x21, [sp, #160]
    400012b4:	a94b5ff6 	ldp	x22, x23, [sp, #176]
    400012b8:	a94c67f8 	ldp	x24, x25, [sp, #192]
    400012bc:	a94d6ffa 	ldp	x26, x27, [sp, #208]
    400012c0:	a94e77fc 	ldp	x28, x29, [sp, #224]
    400012c4:	f9407bfe 	ldr	x30, [sp, #240]
    400012c8:	910403ff 	add	sp, sp, #0x100
    400012cc:	d69f03e0 	eret

00000000400012d0 <_el2_cur_spx_irq>:

_el2_cur_spx_irq:
    EL2_CALL_WITH_CONTEXT el2_cur_spx_irq_handler
    400012d0:	d10403ff 	sub	sp, sp, #0x100
    400012d4:	a90007e0 	stp	x0, x1, [sp]
    400012d8:	a9010fe2 	stp	x2, x3, [sp, #16]
    400012dc:	a90217e4 	stp	x4, x5, [sp, #32]
    400012e0:	a9031fe6 	stp	x6, x7, [sp, #48]
    400012e4:	a90427e8 	stp	x8, x9, [sp, #64]
    400012e8:	a9052fea 	stp	x10, x11, [sp, #80]
    400012ec:	a90637ec 	stp	x12, x13, [sp, #96]
    400012f0:	a9073fee 	stp	x14, x15, [sp, #112]
    400012f4:	a90847f0 	stp	x16, x17, [sp, #128]
    400012f8:	a9094ff2 	stp	x18, x19, [sp, #144]
    400012fc:	a90a57f4 	stp	x20, x21, [sp, #160]
    40001300:	a90b5ff6 	stp	x22, x23, [sp, #176]
    40001304:	a90c67f8 	stp	x24, x25, [sp, #192]
    40001308:	a90d6ffa 	stp	x26, x27, [sp, #208]
    4000130c:	a90e77fc 	stp	x28, x29, [sp, #224]
    40001310:	f9007bfe 	str	x30, [sp, #240]
    40001314:	94000c0c 	bl	40004344 <el2_cur_spx_irq_handler>
    40001318:	a94007e0 	ldp	x0, x1, [sp]
    4000131c:	a9410fe2 	ldp	x2, x3, [sp, #16]
    40001320:	a94217e4 	ldp	x4, x5, [sp, #32]
    40001324:	a9431fe6 	ldp	x6, x7, [sp, #48]
    40001328:	a94427e8 	ldp	x8, x9, [sp, #64]
    4000132c:	a9452fea 	ldp	x10, x11, [sp, #80]
    40001330:	a94637ec 	ldp	x12, x13, [sp, #96]
    40001334:	a9473fee 	ldp	x14, x15, [sp, #112]
    40001338:	a94847f0 	ldp	x16, x17, [sp, #128]
    4000133c:	a9494ff2 	ldp	x18, x19, [sp, #144]
    40001340:	a94a57f4 	ldp	x20, x21, [sp, #160]
    40001344:	a94b5ff6 	ldp	x22, x23, [sp, #176]
    40001348:	a94c67f8 	ldp	x24, x25, [sp, #192]
    4000134c:	a94d6ffa 	ldp	x26, x27, [sp, #208]
    40001350:	a94e77fc 	ldp	x28, x29, [sp, #224]
    40001354:	f9407bfe 	ldr	x30, [sp, #240]
    40001358:	910403ff 	add	sp, sp, #0x100
    4000135c:	d69f03e0 	eret

0000000040001360 <_el2_cur_spx_fiq>:

_el2_cur_spx_fiq:
    EL2_CALL_WITH_CONTEXT el2_cur_spx_fiq_handler
    40001360:	d10403ff 	sub	sp, sp, #0x100
    40001364:	a90007e0 	stp	x0, x1, [sp]
    40001368:	a9010fe2 	stp	x2, x3, [sp, #16]
    4000136c:	a90217e4 	stp	x4, x5, [sp, #32]
    40001370:	a9031fe6 	stp	x6, x7, [sp, #48]
    40001374:	a90427e8 	stp	x8, x9, [sp, #64]
    40001378:	a9052fea 	stp	x10, x11, [sp, #80]
    4000137c:	a90637ec 	stp	x12, x13, [sp, #96]
    40001380:	a9073fee 	stp	x14, x15, [sp, #112]
    40001384:	a90847f0 	stp	x16, x17, [sp, #128]
    40001388:	a9094ff2 	stp	x18, x19, [sp, #144]
    4000138c:	a90a57f4 	stp	x20, x21, [sp, #160]
    40001390:	a90b5ff6 	stp	x22, x23, [sp, #176]
    40001394:	a90c67f8 	stp	x24, x25, [sp, #192]
    40001398:	a90d6ffa 	stp	x26, x27, [sp, #208]
    4000139c:	a90e77fc 	stp	x28, x29, [sp, #224]
    400013a0:	f9007bfe 	str	x30, [sp, #240]
    400013a4:	94000b55 	bl	400040f8 <el2_cur_spx_fiq_handler>
    400013a8:	a94007e0 	ldp	x0, x1, [sp]
    400013ac:	a9410fe2 	ldp	x2, x3, [sp, #16]
    400013b0:	a94217e4 	ldp	x4, x5, [sp, #32]
    400013b4:	a9431fe6 	ldp	x6, x7, [sp, #48]
    400013b8:	a94427e8 	ldp	x8, x9, [sp, #64]
    400013bc:	a9452fea 	ldp	x10, x11, [sp, #80]
    400013c0:	a94637ec 	ldp	x12, x13, [sp, #96]
    400013c4:	a9473fee 	ldp	x14, x15, [sp, #112]
    400013c8:	a94847f0 	ldp	x16, x17, [sp, #128]
    400013cc:	a9494ff2 	ldp	x18, x19, [sp, #144]
    400013d0:	a94a57f4 	ldp	x20, x21, [sp, #160]
    400013d4:	a94b5ff6 	ldp	x22, x23, [sp, #176]
    400013d8:	a94c67f8 	ldp	x24, x25, [sp, #192]
    400013dc:	a94d6ffa 	ldp	x26, x27, [sp, #208]
    400013e0:	a94e77fc 	ldp	x28, x29, [sp, #224]
    400013e4:	f9407bfe 	ldr	x30, [sp, #240]
    400013e8:	910403ff 	add	sp, sp, #0x100
    400013ec:	d69f03e0 	eret

00000000400013f0 <_el2_cur_spx_serror>:

_el2_cur_spx_serror:
    EL2_CALL_WITH_CONTEXT el2_cur_spx_serror_handler
    400013f0:	d10403ff 	sub	sp, sp, #0x100
    400013f4:	a90007e0 	stp	x0, x1, [sp]
    400013f8:	a9010fe2 	stp	x2, x3, [sp, #16]
    400013fc:	a90217e4 	stp	x4, x5, [sp, #32]
    40001400:	a9031fe6 	stp	x6, x7, [sp, #48]
    40001404:	a90427e8 	stp	x8, x9, [sp, #64]
    40001408:	a9052fea 	stp	x10, x11, [sp, #80]
    4000140c:	a90637ec 	stp	x12, x13, [sp, #96]
    40001410:	a9073fee 	stp	x14, x15, [sp, #112]
    40001414:	a90847f0 	stp	x16, x17, [sp, #128]
    40001418:	a9094ff2 	stp	x18, x19, [sp, #144]
    4000141c:	a90a57f4 	stp	x20, x21, [sp, #160]
    40001420:	a90b5ff6 	stp	x22, x23, [sp, #176]
    40001424:	a90c67f8 	stp	x24, x25, [sp, #192]
    40001428:	a90d6ffa 	stp	x26, x27, [sp, #208]
    4000142c:	a90e77fc 	stp	x28, x29, [sp, #224]
    40001430:	f9007bfe 	str	x30, [sp, #240]
    40001434:	94000a9e 	bl	40003eac <el2_cur_spx_serror_handler>
    40001438:	a94007e0 	ldp	x0, x1, [sp]
    4000143c:	a9410fe2 	ldp	x2, x3, [sp, #16]
    40001440:	a94217e4 	ldp	x4, x5, [sp, #32]
    40001444:	a9431fe6 	ldp	x6, x7, [sp, #48]
    40001448:	a94427e8 	ldp	x8, x9, [sp, #64]
    4000144c:	a9452fea 	ldp	x10, x11, [sp, #80]
    40001450:	a94637ec 	ldp	x12, x13, [sp, #96]
    40001454:	a9473fee 	ldp	x14, x15, [sp, #112]
    40001458:	a94847f0 	ldp	x16, x17, [sp, #128]
    4000145c:	a9494ff2 	ldp	x18, x19, [sp, #144]
    40001460:	a94a57f4 	ldp	x20, x21, [sp, #160]
    40001464:	a94b5ff6 	ldp	x22, x23, [sp, #176]
    40001468:	a94c67f8 	ldp	x24, x25, [sp, #192]
    4000146c:	a94d6ffa 	ldp	x26, x27, [sp, #208]
    40001470:	a94e77fc 	ldp	x28, x29, [sp, #224]
    40001474:	f9407bfe 	ldr	x30, [sp, #240]
    40001478:	910403ff 	add	sp, sp, #0x100
    4000147c:	d69f03e0 	eret

0000000040001480 <_el2_low_a64_sync>:

_el2_low_a64_sync:
    EL2_CALL_WITH_CONTEXT el2_low_a64_sync_handler
    40001480:	d10403ff 	sub	sp, sp, #0x100
    40001484:	a90007e0 	stp	x0, x1, [sp]
    40001488:	a9010fe2 	stp	x2, x3, [sp, #16]
    4000148c:	a90217e4 	stp	x4, x5, [sp, #32]
    40001490:	a9031fe6 	stp	x6, x7, [sp, #48]
    40001494:	a90427e8 	stp	x8, x9, [sp, #64]
    40001498:	a9052fea 	stp	x10, x11, [sp, #80]
    4000149c:	a90637ec 	stp	x12, x13, [sp, #96]
    400014a0:	a9073fee 	stp	x14, x15, [sp, #112]
    400014a4:	a90847f0 	stp	x16, x17, [sp, #128]
    400014a8:	a9094ff2 	stp	x18, x19, [sp, #144]
    400014ac:	a90a57f4 	stp	x20, x21, [sp, #160]
    400014b0:	a90b5ff6 	stp	x22, x23, [sp, #176]
    400014b4:	a90c67f8 	stp	x24, x25, [sp, #192]
    400014b8:	a90d6ffa 	stp	x26, x27, [sp, #208]
    400014bc:	a90e77fc 	stp	x28, x29, [sp, #224]
    400014c0:	f9007bfe 	str	x30, [sp, #240]
    400014c4:	94000aa4 	bl	40003f54 <el2_low_a64_sync_handler>
    400014c8:	a94007e0 	ldp	x0, x1, [sp]
    400014cc:	a9410fe2 	ldp	x2, x3, [sp, #16]
    400014d0:	a94217e4 	ldp	x4, x5, [sp, #32]
    400014d4:	a9431fe6 	ldp	x6, x7, [sp, #48]
    400014d8:	a94427e8 	ldp	x8, x9, [sp, #64]
    400014dc:	a9452fea 	ldp	x10, x11, [sp, #80]
    400014e0:	a94637ec 	ldp	x12, x13, [sp, #96]
    400014e4:	a9473fee 	ldp	x14, x15, [sp, #112]
    400014e8:	a94847f0 	ldp	x16, x17, [sp, #128]
    400014ec:	a9494ff2 	ldp	x18, x19, [sp, #144]
    400014f0:	a94a57f4 	ldp	x20, x21, [sp, #160]
    400014f4:	a94b5ff6 	ldp	x22, x23, [sp, #176]
    400014f8:	a94c67f8 	ldp	x24, x25, [sp, #192]
    400014fc:	a94d6ffa 	ldp	x26, x27, [sp, #208]
    40001500:	a94e77fc 	ldp	x28, x29, [sp, #224]
    40001504:	f9407bfe 	ldr	x30, [sp, #240]
    40001508:	910403ff 	add	sp, sp, #0x100
    4000150c:	d69f03e0 	eret

0000000040001510 <_el2_low_a64_irq>:

_el2_low_a64_irq:
    EL2_CALL_WITH_CONTEXT el2_low_a64_irq_handler
    40001510:	d10403ff 	sub	sp, sp, #0x100
    40001514:	a90007e0 	stp	x0, x1, [sp]
    40001518:	a9010fe2 	stp	x2, x3, [sp, #16]
    4000151c:	a90217e4 	stp	x4, x5, [sp, #32]
    40001520:	a9031fe6 	stp	x6, x7, [sp, #48]
    40001524:	a90427e8 	stp	x8, x9, [sp, #64]
    40001528:	a9052fea 	stp	x10, x11, [sp, #80]
    4000152c:	a90637ec 	stp	x12, x13, [sp, #96]
    40001530:	a9073fee 	stp	x14, x15, [sp, #112]
    40001534:	a90847f0 	stp	x16, x17, [sp, #128]
    40001538:	a9094ff2 	stp	x18, x19, [sp, #144]
    4000153c:	a90a57f4 	stp	x20, x21, [sp, #160]
    40001540:	a90b5ff6 	stp	x22, x23, [sp, #176]
    40001544:	a90c67f8 	stp	x24, x25, [sp, #192]
    40001548:	a90d6ffa 	stp	x26, x27, [sp, #208]
    4000154c:	a90e77fc 	stp	x28, x29, [sp, #224]
    40001550:	f9007bfe 	str	x30, [sp, #240]
    40001554:	94000abf 	bl	40004050 <el2_low_a64_irq_handler>
    40001558:	a94007e0 	ldp	x0, x1, [sp]
    4000155c:	a9410fe2 	ldp	x2, x3, [sp, #16]
    40001560:	a94217e4 	ldp	x4, x5, [sp, #32]
    40001564:	a9431fe6 	ldp	x6, x7, [sp, #48]
    40001568:	a94427e8 	ldp	x8, x9, [sp, #64]
    4000156c:	a9452fea 	ldp	x10, x11, [sp, #80]
    40001570:	a94637ec 	ldp	x12, x13, [sp, #96]
    40001574:	a9473fee 	ldp	x14, x15, [sp, #112]
    40001578:	a94847f0 	ldp	x16, x17, [sp, #128]
    4000157c:	a9494ff2 	ldp	x18, x19, [sp, #144]
    40001580:	a94a57f4 	ldp	x20, x21, [sp, #160]
    40001584:	a94b5ff6 	ldp	x22, x23, [sp, #176]
    40001588:	a94c67f8 	ldp	x24, x25, [sp, #192]
    4000158c:	a94d6ffa 	ldp	x26, x27, [sp, #208]
    40001590:	a94e77fc 	ldp	x28, x29, [sp, #224]
    40001594:	f9407bfe 	ldr	x30, [sp, #240]
    40001598:	910403ff 	add	sp, sp, #0x100
    4000159c:	d69f03e0 	eret

00000000400015a0 <_el2_low_a64_fiq>:

_el2_low_a64_fiq:
    EL2_CALL_WITH_CONTEXT el2_low_a64_fiq_handler
    400015a0:	d10403ff 	sub	sp, sp, #0x100
    400015a4:	a90007e0 	stp	x0, x1, [sp]
    400015a8:	a9010fe2 	stp	x2, x3, [sp, #16]
    400015ac:	a90217e4 	stp	x4, x5, [sp, #32]
    400015b0:	a9031fe6 	stp	x6, x7, [sp, #48]
    400015b4:	a90427e8 	stp	x8, x9, [sp, #64]
    400015b8:	a9052fea 	stp	x10, x11, [sp, #80]
    400015bc:	a90637ec 	stp	x12, x13, [sp, #96]
    400015c0:	a9073fee 	stp	x14, x15, [sp, #112]
    400015c4:	a90847f0 	stp	x16, x17, [sp, #128]
    400015c8:	a9094ff2 	stp	x18, x19, [sp, #144]
    400015cc:	a90a57f4 	stp	x20, x21, [sp, #160]
    400015d0:	a90b5ff6 	stp	x22, x23, [sp, #176]
    400015d4:	a90c67f8 	stp	x24, x25, [sp, #192]
    400015d8:	a90d6ffa 	stp	x26, x27, [sp, #208]
    400015dc:	a90e77fc 	stp	x28, x29, [sp, #224]
    400015e0:	f9007bfe 	str	x30, [sp, #240]
    400015e4:	94000ab0 	bl	400040a4 <el2_low_a64_fiq_handler>
    400015e8:	a94007e0 	ldp	x0, x1, [sp]
    400015ec:	a9410fe2 	ldp	x2, x3, [sp, #16]
    400015f0:	a94217e4 	ldp	x4, x5, [sp, #32]
    400015f4:	a9431fe6 	ldp	x6, x7, [sp, #48]
    400015f8:	a94427e8 	ldp	x8, x9, [sp, #64]
    400015fc:	a9452fea 	ldp	x10, x11, [sp, #80]
    40001600:	a94637ec 	ldp	x12, x13, [sp, #96]
    40001604:	a9473fee 	ldp	x14, x15, [sp, #112]
    40001608:	a94847f0 	ldp	x16, x17, [sp, #128]
    4000160c:	a9494ff2 	ldp	x18, x19, [sp, #144]
    40001610:	a94a57f4 	ldp	x20, x21, [sp, #160]
    40001614:	a94b5ff6 	ldp	x22, x23, [sp, #176]
    40001618:	a94c67f8 	ldp	x24, x25, [sp, #192]
    4000161c:	a94d6ffa 	ldp	x26, x27, [sp, #208]
    40001620:	a94e77fc 	ldp	x28, x29, [sp, #224]
    40001624:	f9407bfe 	ldr	x30, [sp, #240]
    40001628:	910403ff 	add	sp, sp, #0x100
    4000162c:	d69f03e0 	eret

0000000040001630 <_el2_low_a64_serror>:

_el2_low_a64_serror:
    EL2_CALL_WITH_CONTEXT el2_low_a64_serror_handler
    40001630:	d10403ff 	sub	sp, sp, #0x100
    40001634:	a90007e0 	stp	x0, x1, [sp]
    40001638:	a9010fe2 	stp	x2, x3, [sp, #16]
    4000163c:	a90217e4 	stp	x4, x5, [sp, #32]
    40001640:	a9031fe6 	stp	x6, x7, [sp, #48]
    40001644:	a90427e8 	stp	x8, x9, [sp, #64]
    40001648:	a9052fea 	stp	x10, x11, [sp, #80]
    4000164c:	a90637ec 	stp	x12, x13, [sp, #96]
    40001650:	a9073fee 	stp	x14, x15, [sp, #112]
    40001654:	a90847f0 	stp	x16, x17, [sp, #128]
    40001658:	a9094ff2 	stp	x18, x19, [sp, #144]
    4000165c:	a90a57f4 	stp	x20, x21, [sp, #160]
    40001660:	a90b5ff6 	stp	x22, x23, [sp, #176]
    40001664:	a90c67f8 	stp	x24, x25, [sp, #192]
    40001668:	a90d6ffa 	stp	x26, x27, [sp, #208]
    4000166c:	a90e77fc 	stp	x28, x29, [sp, #224]
    40001670:	f9007bfe 	str	x30, [sp, #240]
    40001674:	94000a23 	bl	40003f00 <el2_low_a64_serror_handler>
    40001678:	a94007e0 	ldp	x0, x1, [sp]
    4000167c:	a9410fe2 	ldp	x2, x3, [sp, #16]
    40001680:	a94217e4 	ldp	x4, x5, [sp, #32]
    40001684:	a9431fe6 	ldp	x6, x7, [sp, #48]
    40001688:	a94427e8 	ldp	x8, x9, [sp, #64]
    4000168c:	a9452fea 	ldp	x10, x11, [sp, #80]
    40001690:	a94637ec 	ldp	x12, x13, [sp, #96]
    40001694:	a9473fee 	ldp	x14, x15, [sp, #112]
    40001698:	a94847f0 	ldp	x16, x17, [sp, #128]
    4000169c:	a9494ff2 	ldp	x18, x19, [sp, #144]
    400016a0:	a94a57f4 	ldp	x20, x21, [sp, #160]
    400016a4:	a94b5ff6 	ldp	x22, x23, [sp, #176]
    400016a8:	a94c67f8 	ldp	x24, x25, [sp, #192]
    400016ac:	a94d6ffa 	ldp	x26, x27, [sp, #208]
    400016b0:	a94e77fc 	ldp	x28, x29, [sp, #224]
    400016b4:	f9407bfe 	ldr	x30, [sp, #240]
    400016b8:	910403ff 	add	sp, sp, #0x100
    400016bc:	d69f03e0 	eret

00000000400016c0 <_el2_low_a32_sync>:

_el2_low_a32_sync:
    EL2_CALL_WITH_CONTEXT el2_low_a32_sync_handler
    400016c0:	d10403ff 	sub	sp, sp, #0x100
    400016c4:	a90007e0 	stp	x0, x1, [sp]
    400016c8:	a9010fe2 	stp	x2, x3, [sp, #16]
    400016cc:	a90217e4 	stp	x4, x5, [sp, #32]
    400016d0:	a9031fe6 	stp	x6, x7, [sp, #48]
    400016d4:	a90427e8 	stp	x8, x9, [sp, #64]
    400016d8:	a9052fea 	stp	x10, x11, [sp, #80]
    400016dc:	a90637ec 	stp	x12, x13, [sp, #96]
    400016e0:	a9073fee 	stp	x14, x15, [sp, #112]
    400016e4:	a90847f0 	stp	x16, x17, [sp, #128]
    400016e8:	a9094ff2 	stp	x18, x19, [sp, #144]
    400016ec:	a90a57f4 	stp	x20, x21, [sp, #160]
    400016f0:	a90b5ff6 	stp	x22, x23, [sp, #176]
    400016f4:	a90c67f8 	stp	x24, x25, [sp, #192]
    400016f8:	a90d6ffa 	stp	x26, x27, [sp, #208]
    400016fc:	a90e77fc 	stp	x28, x29, [sp, #224]
    40001700:	f9007bfe 	str	x30, [sp, #240]
    40001704:	94000ae6 	bl	4000429c <el2_low_a32_sync_handler>
    40001708:	a94007e0 	ldp	x0, x1, [sp]
    4000170c:	a9410fe2 	ldp	x2, x3, [sp, #16]
    40001710:	a94217e4 	ldp	x4, x5, [sp, #32]
    40001714:	a9431fe6 	ldp	x6, x7, [sp, #48]
    40001718:	a94427e8 	ldp	x8, x9, [sp, #64]
    4000171c:	a9452fea 	ldp	x10, x11, [sp, #80]
    40001720:	a94637ec 	ldp	x12, x13, [sp, #96]
    40001724:	a9473fee 	ldp	x14, x15, [sp, #112]
    40001728:	a94847f0 	ldp	x16, x17, [sp, #128]
    4000172c:	a9494ff2 	ldp	x18, x19, [sp, #144]
    40001730:	a94a57f4 	ldp	x20, x21, [sp, #160]
    40001734:	a94b5ff6 	ldp	x22, x23, [sp, #176]
    40001738:	a94c67f8 	ldp	x24, x25, [sp, #192]
    4000173c:	a94d6ffa 	ldp	x26, x27, [sp, #208]
    40001740:	a94e77fc 	ldp	x28, x29, [sp, #224]
    40001744:	f9407bfe 	ldr	x30, [sp, #240]
    40001748:	910403ff 	add	sp, sp, #0x100
    4000174c:	d69f03e0 	eret

0000000040001750 <_el2_low_a32_irq>:

_el2_low_a32_irq:
    EL2_CALL_WITH_CONTEXT el2_low_a32_irq_handler
    40001750:	d10403ff 	sub	sp, sp, #0x100
    40001754:	a90007e0 	stp	x0, x1, [sp]
    40001758:	a9010fe2 	stp	x2, x3, [sp, #16]
    4000175c:	a90217e4 	stp	x4, x5, [sp, #32]
    40001760:	a9031fe6 	stp	x6, x7, [sp, #48]
    40001764:	a90427e8 	stp	x8, x9, [sp, #64]
    40001768:	a9052fea 	stp	x10, x11, [sp, #80]
    4000176c:	a90637ec 	stp	x12, x13, [sp, #96]
    40001770:	a9073fee 	stp	x14, x15, [sp, #112]
    40001774:	a90847f0 	stp	x16, x17, [sp, #128]
    40001778:	a9094ff2 	stp	x18, x19, [sp, #144]
    4000177c:	a90a57f4 	stp	x20, x21, [sp, #160]
    40001780:	a90b5ff6 	stp	x22, x23, [sp, #176]
    40001784:	a90c67f8 	stp	x24, x25, [sp, #192]
    40001788:	a90d6ffa 	stp	x26, x27, [sp, #208]
    4000178c:	a90e77fc 	stp	x28, x29, [sp, #224]
    40001790:	f9007bfe 	str	x30, [sp, #240]
    40001794:	94000a6e 	bl	4000414c <el2_low_a32_irq_handler>
    40001798:	a94007e0 	ldp	x0, x1, [sp]
    4000179c:	a9410fe2 	ldp	x2, x3, [sp, #16]
    400017a0:	a94217e4 	ldp	x4, x5, [sp, #32]
    400017a4:	a9431fe6 	ldp	x6, x7, [sp, #48]
    400017a8:	a94427e8 	ldp	x8, x9, [sp, #64]
    400017ac:	a9452fea 	ldp	x10, x11, [sp, #80]
    400017b0:	a94637ec 	ldp	x12, x13, [sp, #96]
    400017b4:	a9473fee 	ldp	x14, x15, [sp, #112]
    400017b8:	a94847f0 	ldp	x16, x17, [sp, #128]
    400017bc:	a9494ff2 	ldp	x18, x19, [sp, #144]
    400017c0:	a94a57f4 	ldp	x20, x21, [sp, #160]
    400017c4:	a94b5ff6 	ldp	x22, x23, [sp, #176]
    400017c8:	a94c67f8 	ldp	x24, x25, [sp, #192]
    400017cc:	a94d6ffa 	ldp	x26, x27, [sp, #208]
    400017d0:	a94e77fc 	ldp	x28, x29, [sp, #224]
    400017d4:	f9407bfe 	ldr	x30, [sp, #240]
    400017d8:	910403ff 	add	sp, sp, #0x100
    400017dc:	d69f03e0 	eret

00000000400017e0 <_el2_low_a32_fiq>:

_el2_low_a32_fiq:
    EL2_CALL_WITH_CONTEXT el2_low_a32_fiq_handler
    400017e0:	d10403ff 	sub	sp, sp, #0x100
    400017e4:	a90007e0 	stp	x0, x1, [sp]
    400017e8:	a9010fe2 	stp	x2, x3, [sp, #16]
    400017ec:	a90217e4 	stp	x4, x5, [sp, #32]
    400017f0:	a9031fe6 	stp	x6, x7, [sp, #48]
    400017f4:	a90427e8 	stp	x8, x9, [sp, #64]
    400017f8:	a9052fea 	stp	x10, x11, [sp, #80]
    400017fc:	a90637ec 	stp	x12, x13, [sp, #96]
    40001800:	a9073fee 	stp	x14, x15, [sp, #112]
    40001804:	a90847f0 	stp	x16, x17, [sp, #128]
    40001808:	a9094ff2 	stp	x18, x19, [sp, #144]
    4000180c:	a90a57f4 	stp	x20, x21, [sp, #160]
    40001810:	a90b5ff6 	stp	x22, x23, [sp, #176]
    40001814:	a90c67f8 	stp	x24, x25, [sp, #192]
    40001818:	a90d6ffa 	stp	x26, x27, [sp, #208]
    4000181c:	a90e77fc 	stp	x28, x29, [sp, #224]
    40001820:	f9007bfe 	str	x30, [sp, #240]
    40001824:	94000a74 	bl	400041f4 <el2_low_a32_fiq_handler>
    40001828:	a94007e0 	ldp	x0, x1, [sp]
    4000182c:	a9410fe2 	ldp	x2, x3, [sp, #16]
    40001830:	a94217e4 	ldp	x4, x5, [sp, #32]
    40001834:	a9431fe6 	ldp	x6, x7, [sp, #48]
    40001838:	a94427e8 	ldp	x8, x9, [sp, #64]
    4000183c:	a9452fea 	ldp	x10, x11, [sp, #80]
    40001840:	a94637ec 	ldp	x12, x13, [sp, #96]
    40001844:	a9473fee 	ldp	x14, x15, [sp, #112]
    40001848:	a94847f0 	ldp	x16, x17, [sp, #128]
    4000184c:	a9494ff2 	ldp	x18, x19, [sp, #144]
    40001850:	a94a57f4 	ldp	x20, x21, [sp, #160]
    40001854:	a94b5ff6 	ldp	x22, x23, [sp, #176]
    40001858:	a94c67f8 	ldp	x24, x25, [sp, #192]
    4000185c:	a94d6ffa 	ldp	x26, x27, [sp, #208]
    40001860:	a94e77fc 	ldp	x28, x29, [sp, #224]
    40001864:	f9407bfe 	ldr	x30, [sp, #240]
    40001868:	910403ff 	add	sp, sp, #0x100
    4000186c:	d69f03e0 	eret

0000000040001870 <_el2_low_a32_serror>:

_el2_low_a32_serror:
    EL2_CALL_WITH_CONTEXT el2_low_a32_serror_handler
    40001870:	d10403ff 	sub	sp, sp, #0x100
    40001874:	a90007e0 	stp	x0, x1, [sp]
    40001878:	a9010fe2 	stp	x2, x3, [sp, #16]
    4000187c:	a90217e4 	stp	x4, x5, [sp, #32]
    40001880:	a9031fe6 	stp	x6, x7, [sp, #48]
    40001884:	a90427e8 	stp	x8, x9, [sp, #64]
    40001888:	a9052fea 	stp	x10, x11, [sp, #80]
    4000188c:	a90637ec 	stp	x12, x13, [sp, #96]
    40001890:	a9073fee 	stp	x14, x15, [sp, #112]
    40001894:	a90847f0 	stp	x16, x17, [sp, #128]
    40001898:	a9094ff2 	stp	x18, x19, [sp, #144]
    4000189c:	a90a57f4 	stp	x20, x21, [sp, #160]
    400018a0:	a90b5ff6 	stp	x22, x23, [sp, #176]
    400018a4:	a90c67f8 	stp	x24, x25, [sp, #192]
    400018a8:	a90d6ffa 	stp	x26, x27, [sp, #208]
    400018ac:	a90e77fc 	stp	x28, x29, [sp, #224]
    400018b0:	f9007bfe 	str	x30, [sp, #240]
    400018b4:	94000969 	bl	40003e58 <el2_low_a32_serror_handler>
    400018b8:	a94007e0 	ldp	x0, x1, [sp]
    400018bc:	a9410fe2 	ldp	x2, x3, [sp, #16]
    400018c0:	a94217e4 	ldp	x4, x5, [sp, #32]
    400018c4:	a9431fe6 	ldp	x6, x7, [sp, #48]
    400018c8:	a94427e8 	ldp	x8, x9, [sp, #64]
    400018cc:	a9452fea 	ldp	x10, x11, [sp, #80]
    400018d0:	a94637ec 	ldp	x12, x13, [sp, #96]
    400018d4:	a9473fee 	ldp	x14, x15, [sp, #112]
    400018d8:	a94847f0 	ldp	x16, x17, [sp, #128]
    400018dc:	a9494ff2 	ldp	x18, x19, [sp, #144]
    400018e0:	a94a57f4 	ldp	x20, x21, [sp, #160]
    400018e4:	a94b5ff6 	ldp	x22, x23, [sp, #176]
    400018e8:	a94c67f8 	ldp	x24, x25, [sp, #192]
    400018ec:	a94d6ffa 	ldp	x26, x27, [sp, #208]
    400018f0:	a94e77fc 	ldp	x28, x29, [sp, #224]
    400018f4:	f9407bfe 	ldr	x30, [sp, #240]
    400018f8:	910403ff 	add	sp, sp, #0x100
    400018fc:	d69f03e0 	eret

0000000040001900 <_exceptions_get_DAIF>:
.section .text
.align 2

.global _exceptions_get_DAIF
_exceptions_get_DAIF:
    mrs x0, DAIF
    40001900:	d53b4220 	mrs	x0, daif
    ret
    40001904:	d65f03c0 	ret

0000000040001908 <_fiq_exceptions_enable>:

.global _fiq_exceptions_enable
_fiq_exceptions_enable:
    msr daifclr, #0x1
    40001908:	d50341ff 	msr	daifclr, #0x1
    isb
    4000190c:	d5033fdf 	isb
    ret
    40001910:	d65f03c0 	ret

0000000040001914 <_irq_exceptions_enable>:

.global _irq_exceptions_enable
_irq_exceptions_enable:
    msr daifclr, #0x2
    40001914:	d50342ff 	msr	daifclr, #0x2
    isb
    40001918:	d5033fdf 	isb
    ret
    4000191c:	d65f03c0 	ret

0000000040001920 <_serror_exceptions_enable>:

.global _serror_exceptions_enable
_serror_exceptions_enable:
    msr daifclr, #0x4
    40001920:	d50344ff 	msr	daifclr, #0x4
    isb
    40001924:	d5033fdf 	isb
    ret
    40001928:	d65f03c0 	ret

000000004000192c <_debug_exceptions_enable>:

.global _debug_exceptions_enable
_debug_exceptions_enable:
    msr daifclr, #0x8
    4000192c:	d50348ff 	msr	daifclr, #0x8
    isb
    40001930:	d5033fdf 	isb
    ret
    40001934:	d65f03c0 	ret

0000000040001938 <_fiq_exceptions_disable>:

.global _fiq_exceptions_disable
_fiq_exceptions_disable:
    msr daifset, #0x1
    40001938:	d50341df 	msr	daifset, #0x1
    isb
    4000193c:	d5033fdf 	isb
    ret
    40001940:	d65f03c0 	ret

0000000040001944 <_irq_exceptions_disable>:

.global _irq_exceptions_disable
_irq_exceptions_disable:
    msr daifset, #0x2
    40001944:	d50342df 	msr	daifset, #0x2
    isb
    40001948:	d5033fdf 	isb
    ret
    4000194c:	d65f03c0 	ret

0000000040001950 <_serror_exceptions_disable>:

.global _serror_exceptions_disable
_serror_exceptions_disable:
    msr daifset, #0x4
    40001950:	d50344df 	msr	daifset, #0x4
    isb
    40001954:	d5033fdf 	isb
    ret
    40001958:	d65f03c0 	ret

000000004000195c <_debug_exceptions_disable>:

.global _debug_exceptions_disable
_debug_exceptions_disable:
    msr daifset, #0x8
    4000195c:	d50348df 	msr	daifset, #0x8
    isb
    40001960:	d5033fdf 	isb
    ret
    40001964:	d65f03c0 	ret
	...

0000000040002000 <_el1_init_vector>:
.section .text
.global _el1_init_vector
.align 4
_el1_init_vector:
    adr     x0, _el1_vector_table
    40002000:	10034000 	adr	x0, 40008800 <_el1_vector_table>
    msr     VBAR_EL1, x0
    40002004:	d518c000 	msr	vbar_el1, x0
    isb
    40002008:	d5033fdf 	isb
    ret
    4000200c:	d65f03c0 	ret
    40002010:	d503201f 	nop
    40002014:	d503201f 	nop
    40002018:	d503201f 	nop
    4000201c:	d503201f 	nop
    40002020:	d503201f 	nop
    40002024:	d503201f 	nop
    40002028:	d503201f 	nop
    4000202c:	d503201f 	nop
    40002030:	d503201f 	nop
    40002034:	d503201f 	nop
    40002038:	d503201f 	nop
    4000203c:	d503201f 	nop
    40002040:	d503201f 	nop
    40002044:	d503201f 	nop
    40002048:	d503201f 	nop
    4000204c:	d503201f 	nop
    40002050:	d503201f 	nop
    40002054:	d503201f 	nop
    40002058:	d503201f 	nop
    4000205c:	d503201f 	nop
    40002060:	d503201f 	nop
    40002064:	d503201f 	nop
    40002068:	d503201f 	nop
    4000206c:	d503201f 	nop
    40002070:	d503201f 	nop
    40002074:	d503201f 	nop
    40002078:	d503201f 	nop
    4000207c:	d503201f 	nop
    40002080:	d503201f 	nop
    40002084:	d503201f 	nop
    40002088:	d503201f 	nop
    4000208c:	d503201f 	nop
    40002090:	d503201f 	nop
    40002094:	d503201f 	nop
    40002098:	d503201f 	nop
    4000209c:	d503201f 	nop
    400020a0:	d503201f 	nop
    400020a4:	d503201f 	nop
    400020a8:	d503201f 	nop
    400020ac:	d503201f 	nop
    400020b0:	d503201f 	nop
    400020b4:	d503201f 	nop
    400020b8:	d503201f 	nop
    400020bc:	d503201f 	nop
    400020c0:	d503201f 	nop
    400020c4:	d503201f 	nop
    400020c8:	d503201f 	nop
    400020cc:	d503201f 	nop
    400020d0:	d503201f 	nop
    400020d4:	d503201f 	nop
    400020d8:	d503201f 	nop
    400020dc:	d503201f 	nop
    400020e0:	d503201f 	nop
    400020e4:	d503201f 	nop
    400020e8:	d503201f 	nop
    400020ec:	d503201f 	nop
    400020f0:	d503201f 	nop
    400020f4:	d503201f 	nop
    400020f8:	d503201f 	nop
    400020fc:	d503201f 	nop
    40002100:	d503201f 	nop
    40002104:	d503201f 	nop
    40002108:	d503201f 	nop
    4000210c:	d503201f 	nop
    40002110:	d503201f 	nop
    40002114:	d503201f 	nop
    40002118:	d503201f 	nop
    4000211c:	d503201f 	nop
    40002120:	d503201f 	nop
    40002124:	d503201f 	nop
    40002128:	d503201f 	nop
    4000212c:	d503201f 	nop
    40002130:	d503201f 	nop
    40002134:	d503201f 	nop
    40002138:	d503201f 	nop
    4000213c:	d503201f 	nop
    40002140:	d503201f 	nop
    40002144:	d503201f 	nop
    40002148:	d503201f 	nop
    4000214c:	d503201f 	nop
    40002150:	d503201f 	nop
    40002154:	d503201f 	nop
    40002158:	d503201f 	nop
    4000215c:	d503201f 	nop
    40002160:	d503201f 	nop
    40002164:	d503201f 	nop
    40002168:	d503201f 	nop
    4000216c:	d503201f 	nop
    40002170:	d503201f 	nop
    40002174:	d503201f 	nop
    40002178:	d503201f 	nop
    4000217c:	d503201f 	nop
    40002180:	d503201f 	nop
    40002184:	d503201f 	nop
    40002188:	d503201f 	nop
    4000218c:	d503201f 	nop
    40002190:	d503201f 	nop
    40002194:	d503201f 	nop
    40002198:	d503201f 	nop
    4000219c:	d503201f 	nop
    400021a0:	d503201f 	nop
    400021a4:	d503201f 	nop
    400021a8:	d503201f 	nop
    400021ac:	d503201f 	nop
    400021b0:	d503201f 	nop
    400021b4:	d503201f 	nop
    400021b8:	d503201f 	nop
    400021bc:	d503201f 	nop
    400021c0:	d503201f 	nop
    400021c4:	d503201f 	nop
    400021c8:	d503201f 	nop
    400021cc:	d503201f 	nop
    400021d0:	d503201f 	nop
    400021d4:	d503201f 	nop
    400021d8:	d503201f 	nop
    400021dc:	d503201f 	nop
    400021e0:	d503201f 	nop
    400021e4:	d503201f 	nop
    400021e8:	d503201f 	nop
    400021ec:	d503201f 	nop
    400021f0:	d503201f 	nop
    400021f4:	d503201f 	nop
    400021f8:	d503201f 	nop
    400021fc:	d503201f 	nop
    40002200:	d503201f 	nop
    40002204:	d503201f 	nop
    40002208:	d503201f 	nop
    4000220c:	d503201f 	nop
    40002210:	d503201f 	nop
    40002214:	d503201f 	nop
    40002218:	d503201f 	nop
    4000221c:	d503201f 	nop
    40002220:	d503201f 	nop
    40002224:	d503201f 	nop
    40002228:	d503201f 	nop
    4000222c:	d503201f 	nop
    40002230:	d503201f 	nop
    40002234:	d503201f 	nop
    40002238:	d503201f 	nop
    4000223c:	d503201f 	nop
    40002240:	d503201f 	nop
    40002244:	d503201f 	nop
    40002248:	d503201f 	nop
    4000224c:	d503201f 	nop
    40002250:	d503201f 	nop
    40002254:	d503201f 	nop
    40002258:	d503201f 	nop
    4000225c:	d503201f 	nop
    40002260:	d503201f 	nop
    40002264:	d503201f 	nop
    40002268:	d503201f 	nop
    4000226c:	d503201f 	nop
    40002270:	d503201f 	nop
    40002274:	d503201f 	nop
    40002278:	d503201f 	nop
    4000227c:	d503201f 	nop
    40002280:	d503201f 	nop
    40002284:	d503201f 	nop
    40002288:	d503201f 	nop
    4000228c:	d503201f 	nop
    40002290:	d503201f 	nop
    40002294:	d503201f 	nop
    40002298:	d503201f 	nop
    4000229c:	d503201f 	nop
    400022a0:	d503201f 	nop
    400022a4:	d503201f 	nop
    400022a8:	d503201f 	nop
    400022ac:	d503201f 	nop
    400022b0:	d503201f 	nop
    400022b4:	d503201f 	nop
    400022b8:	d503201f 	nop
    400022bc:	d503201f 	nop
    400022c0:	d503201f 	nop
    400022c4:	d503201f 	nop
    400022c8:	d503201f 	nop
    400022cc:	d503201f 	nop
    400022d0:	d503201f 	nop
    400022d4:	d503201f 	nop
    400022d8:	d503201f 	nop
    400022dc:	d503201f 	nop
    400022e0:	d503201f 	nop
    400022e4:	d503201f 	nop
    400022e8:	d503201f 	nop
    400022ec:	d503201f 	nop
    400022f0:	d503201f 	nop
    400022f4:	d503201f 	nop
    400022f8:	d503201f 	nop
    400022fc:	d503201f 	nop
    40002300:	d503201f 	nop
    40002304:	d503201f 	nop
    40002308:	d503201f 	nop
    4000230c:	d503201f 	nop
    40002310:	d503201f 	nop
    40002314:	d503201f 	nop
    40002318:	d503201f 	nop
    4000231c:	d503201f 	nop
    40002320:	d503201f 	nop
    40002324:	d503201f 	nop
    40002328:	d503201f 	nop
    4000232c:	d503201f 	nop
    40002330:	d503201f 	nop
    40002334:	d503201f 	nop
    40002338:	d503201f 	nop
    4000233c:	d503201f 	nop
    40002340:	d503201f 	nop
    40002344:	d503201f 	nop
    40002348:	d503201f 	nop
    4000234c:	d503201f 	nop
    40002350:	d503201f 	nop
    40002354:	d503201f 	nop
    40002358:	d503201f 	nop
    4000235c:	d503201f 	nop
    40002360:	d503201f 	nop
    40002364:	d503201f 	nop
    40002368:	d503201f 	nop
    4000236c:	d503201f 	nop
    40002370:	d503201f 	nop
    40002374:	d503201f 	nop
    40002378:	d503201f 	nop
    4000237c:	d503201f 	nop
    40002380:	d503201f 	nop
    40002384:	d503201f 	nop
    40002388:	d503201f 	nop
    4000238c:	d503201f 	nop
    40002390:	d503201f 	nop
    40002394:	d503201f 	nop
    40002398:	d503201f 	nop
    4000239c:	d503201f 	nop
    400023a0:	d503201f 	nop
    400023a4:	d503201f 	nop
    400023a8:	d503201f 	nop
    400023ac:	d503201f 	nop
    400023b0:	d503201f 	nop
    400023b4:	d503201f 	nop
    400023b8:	d503201f 	nop
    400023bc:	d503201f 	nop
    400023c0:	d503201f 	nop
    400023c4:	d503201f 	nop
    400023c8:	d503201f 	nop
    400023cc:	d503201f 	nop
    400023d0:	d503201f 	nop
    400023d4:	d503201f 	nop
    400023d8:	d503201f 	nop
    400023dc:	d503201f 	nop
    400023e0:	d503201f 	nop
    400023e4:	d503201f 	nop
    400023e8:	d503201f 	nop
    400023ec:	d503201f 	nop
    400023f0:	d503201f 	nop
    400023f4:	d503201f 	nop
    400023f8:	d503201f 	nop
    400023fc:	d503201f 	nop
    40002400:	d503201f 	nop
    40002404:	d503201f 	nop
    40002408:	d503201f 	nop
    4000240c:	d503201f 	nop
    40002410:	d503201f 	nop
    40002414:	d503201f 	nop
    40002418:	d503201f 	nop
    4000241c:	d503201f 	nop
    40002420:	d503201f 	nop
    40002424:	d503201f 	nop
    40002428:	d503201f 	nop
    4000242c:	d503201f 	nop
    40002430:	d503201f 	nop
    40002434:	d503201f 	nop
    40002438:	d503201f 	nop
    4000243c:	d503201f 	nop
    40002440:	d503201f 	nop
    40002444:	d503201f 	nop
    40002448:	d503201f 	nop
    4000244c:	d503201f 	nop
    40002450:	d503201f 	nop
    40002454:	d503201f 	nop
    40002458:	d503201f 	nop
    4000245c:	d503201f 	nop
    40002460:	d503201f 	nop
    40002464:	d503201f 	nop
    40002468:	d503201f 	nop
    4000246c:	d503201f 	nop
    40002470:	d503201f 	nop
    40002474:	d503201f 	nop
    40002478:	d503201f 	nop
    4000247c:	d503201f 	nop
    40002480:	d503201f 	nop
    40002484:	d503201f 	nop
    40002488:	d503201f 	nop
    4000248c:	d503201f 	nop
    40002490:	d503201f 	nop
    40002494:	d503201f 	nop
    40002498:	d503201f 	nop
    4000249c:	d503201f 	nop
    400024a0:	d503201f 	nop
    400024a4:	d503201f 	nop
    400024a8:	d503201f 	nop
    400024ac:	d503201f 	nop
    400024b0:	d503201f 	nop
    400024b4:	d503201f 	nop
    400024b8:	d503201f 	nop
    400024bc:	d503201f 	nop
    400024c0:	d503201f 	nop
    400024c4:	d503201f 	nop
    400024c8:	d503201f 	nop
    400024cc:	d503201f 	nop
    400024d0:	d503201f 	nop
    400024d4:	d503201f 	nop
    400024d8:	d503201f 	nop
    400024dc:	d503201f 	nop
    400024e0:	d503201f 	nop
    400024e4:	d503201f 	nop
    400024e8:	d503201f 	nop
    400024ec:	d503201f 	nop
    400024f0:	d503201f 	nop
    400024f4:	d503201f 	nop
    400024f8:	d503201f 	nop
    400024fc:	d503201f 	nop
    40002500:	d503201f 	nop
    40002504:	d503201f 	nop
    40002508:	d503201f 	nop
    4000250c:	d503201f 	nop
    40002510:	d503201f 	nop
    40002514:	d503201f 	nop
    40002518:	d503201f 	nop
    4000251c:	d503201f 	nop
    40002520:	d503201f 	nop
    40002524:	d503201f 	nop
    40002528:	d503201f 	nop
    4000252c:	d503201f 	nop
    40002530:	d503201f 	nop
    40002534:	d503201f 	nop
    40002538:	d503201f 	nop
    4000253c:	d503201f 	nop
    40002540:	d503201f 	nop
    40002544:	d503201f 	nop
    40002548:	d503201f 	nop
    4000254c:	d503201f 	nop
    40002550:	d503201f 	nop
    40002554:	d503201f 	nop
    40002558:	d503201f 	nop
    4000255c:	d503201f 	nop
    40002560:	d503201f 	nop
    40002564:	d503201f 	nop
    40002568:	d503201f 	nop
    4000256c:	d503201f 	nop
    40002570:	d503201f 	nop
    40002574:	d503201f 	nop
    40002578:	d503201f 	nop
    4000257c:	d503201f 	nop
    40002580:	d503201f 	nop
    40002584:	d503201f 	nop
    40002588:	d503201f 	nop
    4000258c:	d503201f 	nop
    40002590:	d503201f 	nop
    40002594:	d503201f 	nop
    40002598:	d503201f 	nop
    4000259c:	d503201f 	nop
    400025a0:	d503201f 	nop
    400025a4:	d503201f 	nop
    400025a8:	d503201f 	nop
    400025ac:	d503201f 	nop
    400025b0:	d503201f 	nop
    400025b4:	d503201f 	nop
    400025b8:	d503201f 	nop
    400025bc:	d503201f 	nop
    400025c0:	d503201f 	nop
    400025c4:	d503201f 	nop
    400025c8:	d503201f 	nop
    400025cc:	d503201f 	nop
    400025d0:	d503201f 	nop
    400025d4:	d503201f 	nop
    400025d8:	d503201f 	nop
    400025dc:	d503201f 	nop
    400025e0:	d503201f 	nop
    400025e4:	d503201f 	nop
    400025e8:	d503201f 	nop
    400025ec:	d503201f 	nop
    400025f0:	d503201f 	nop
    400025f4:	d503201f 	nop
    400025f8:	d503201f 	nop
    400025fc:	d503201f 	nop
    40002600:	d503201f 	nop
    40002604:	d503201f 	nop
    40002608:	d503201f 	nop
    4000260c:	d503201f 	nop
    40002610:	d503201f 	nop
    40002614:	d503201f 	nop
    40002618:	d503201f 	nop
    4000261c:	d503201f 	nop
    40002620:	d503201f 	nop
    40002624:	d503201f 	nop
    40002628:	d503201f 	nop
    4000262c:	d503201f 	nop
    40002630:	d503201f 	nop
    40002634:	d503201f 	nop
    40002638:	d503201f 	nop
    4000263c:	d503201f 	nop
    40002640:	d503201f 	nop
    40002644:	d503201f 	nop
    40002648:	d503201f 	nop
    4000264c:	d503201f 	nop
    40002650:	d503201f 	nop
    40002654:	d503201f 	nop
    40002658:	d503201f 	nop
    4000265c:	d503201f 	nop
    40002660:	d503201f 	nop
    40002664:	d503201f 	nop
    40002668:	d503201f 	nop
    4000266c:	d503201f 	nop
    40002670:	d503201f 	nop
    40002674:	d503201f 	nop
    40002678:	d503201f 	nop
    4000267c:	d503201f 	nop
    40002680:	d503201f 	nop
    40002684:	d503201f 	nop
    40002688:	d503201f 	nop
    4000268c:	d503201f 	nop
    40002690:	d503201f 	nop
    40002694:	d503201f 	nop
    40002698:	d503201f 	nop
    4000269c:	d503201f 	nop
    400026a0:	d503201f 	nop
    400026a4:	d503201f 	nop
    400026a8:	d503201f 	nop
    400026ac:	d503201f 	nop
    400026b0:	d503201f 	nop
    400026b4:	d503201f 	nop
    400026b8:	d503201f 	nop
    400026bc:	d503201f 	nop
    400026c0:	d503201f 	nop
    400026c4:	d503201f 	nop
    400026c8:	d503201f 	nop
    400026cc:	d503201f 	nop
    400026d0:	d503201f 	nop
    400026d4:	d503201f 	nop
    400026d8:	d503201f 	nop
    400026dc:	d503201f 	nop
    400026e0:	d503201f 	nop
    400026e4:	d503201f 	nop
    400026e8:	d503201f 	nop
    400026ec:	d503201f 	nop
    400026f0:	d503201f 	nop
    400026f4:	d503201f 	nop
    400026f8:	d503201f 	nop
    400026fc:	d503201f 	nop
    40002700:	d503201f 	nop
    40002704:	d503201f 	nop
    40002708:	d503201f 	nop
    4000270c:	d503201f 	nop
    40002710:	d503201f 	nop
    40002714:	d503201f 	nop
    40002718:	d503201f 	nop
    4000271c:	d503201f 	nop
    40002720:	d503201f 	nop
    40002724:	d503201f 	nop
    40002728:	d503201f 	nop
    4000272c:	d503201f 	nop
    40002730:	d503201f 	nop
    40002734:	d503201f 	nop
    40002738:	d503201f 	nop
    4000273c:	d503201f 	nop
    40002740:	d503201f 	nop
    40002744:	d503201f 	nop
    40002748:	d503201f 	nop
    4000274c:	d503201f 	nop
    40002750:	d503201f 	nop
    40002754:	d503201f 	nop
    40002758:	d503201f 	nop
    4000275c:	d503201f 	nop
    40002760:	d503201f 	nop
    40002764:	d503201f 	nop
    40002768:	d503201f 	nop
    4000276c:	d503201f 	nop
    40002770:	d503201f 	nop
    40002774:	d503201f 	nop
    40002778:	d503201f 	nop
    4000277c:	d503201f 	nop
    40002780:	d503201f 	nop
    40002784:	d503201f 	nop
    40002788:	d503201f 	nop
    4000278c:	d503201f 	nop
    40002790:	d503201f 	nop
    40002794:	d503201f 	nop
    40002798:	d503201f 	nop
    4000279c:	d503201f 	nop
    400027a0:	d503201f 	nop
    400027a4:	d503201f 	nop
    400027a8:	d503201f 	nop
    400027ac:	d503201f 	nop
    400027b0:	d503201f 	nop
    400027b4:	d503201f 	nop
    400027b8:	d503201f 	nop
    400027bc:	d503201f 	nop
    400027c0:	d503201f 	nop
    400027c4:	d503201f 	nop
    400027c8:	d503201f 	nop
    400027cc:	d503201f 	nop
    400027d0:	d503201f 	nop
    400027d4:	d503201f 	nop
    400027d8:	d503201f 	nop
    400027dc:	d503201f 	nop
    400027e0:	d503201f 	nop
    400027e4:	d503201f 	nop
    400027e8:	d503201f 	nop
    400027ec:	d503201f 	nop
    400027f0:	d503201f 	nop
    400027f4:	d503201f 	nop
    400027f8:	d503201f 	nop
    400027fc:	d503201f 	nop

0000000040002800 <_el1_cur_sp0_sync>:
.endm

.section .text
.align 11
_el1_cur_sp0_sync:
    EL1_CALL_WITH_CONTEXT el1_cur_sp0_sync_handler
    40002800:	d10403ff 	sub	sp, sp, #0x100
    40002804:	a90007e0 	stp	x0, x1, [sp]
    40002808:	a9010fe2 	stp	x2, x3, [sp, #16]
    4000280c:	a90217e4 	stp	x4, x5, [sp, #32]
    40002810:	a9031fe6 	stp	x6, x7, [sp, #48]
    40002814:	a90427e8 	stp	x8, x9, [sp, #64]
    40002818:	a9052fea 	stp	x10, x11, [sp, #80]
    4000281c:	a90637ec 	stp	x12, x13, [sp, #96]
    40002820:	a9073fee 	stp	x14, x15, [sp, #112]
    40002824:	a90847f0 	stp	x16, x17, [sp, #128]
    40002828:	a9094ff2 	stp	x18, x19, [sp, #144]
    4000282c:	a90a57f4 	stp	x20, x21, [sp, #160]
    40002830:	a90b5ff6 	stp	x22, x23, [sp, #176]
    40002834:	a90c67f8 	stp	x24, x25, [sp, #192]
    40002838:	a90d6ffa 	stp	x26, x27, [sp, #208]
    4000283c:	a90e77fc 	stp	x28, x29, [sp, #224]
    40002840:	f9007bfe 	str	x30, [sp, #240]
    40002844:	9400051c 	bl	40003cb4 <el1_cur_sp0_sync_handler>
    40002848:	a94007e0 	ldp	x0, x1, [sp]
    4000284c:	a9410fe2 	ldp	x2, x3, [sp, #16]
    40002850:	a94217e4 	ldp	x4, x5, [sp, #32]
    40002854:	a9431fe6 	ldp	x6, x7, [sp, #48]
    40002858:	a94427e8 	ldp	x8, x9, [sp, #64]
    4000285c:	a9452fea 	ldp	x10, x11, [sp, #80]
    40002860:	a94637ec 	ldp	x12, x13, [sp, #96]
    40002864:	a9473fee 	ldp	x14, x15, [sp, #112]
    40002868:	a94847f0 	ldp	x16, x17, [sp, #128]
    4000286c:	a9494ff2 	ldp	x18, x19, [sp, #144]
    40002870:	a94a57f4 	ldp	x20, x21, [sp, #160]
    40002874:	a94b5ff6 	ldp	x22, x23, [sp, #176]
    40002878:	a94c67f8 	ldp	x24, x25, [sp, #192]
    4000287c:	a94d6ffa 	ldp	x26, x27, [sp, #208]
    40002880:	a94e77fc 	ldp	x28, x29, [sp, #224]
    40002884:	f9407bfe 	ldr	x30, [sp, #240]
    40002888:	910403ff 	add	sp, sp, #0x100
    4000288c:	d69f03e0 	eret

0000000040002890 <_el1_cur_sp0_irq>:

_el1_cur_sp0_irq:
    EL1_CALL_WITH_CONTEXT el1_cur_sp0_irq_handler
    40002890:	d10403ff 	sub	sp, sp, #0x100
    40002894:	a90007e0 	stp	x0, x1, [sp]
    40002898:	a9010fe2 	stp	x2, x3, [sp, #16]
    4000289c:	a90217e4 	stp	x4, x5, [sp, #32]
    400028a0:	a9031fe6 	stp	x6, x7, [sp, #48]
    400028a4:	a90427e8 	stp	x8, x9, [sp, #64]
    400028a8:	a9052fea 	stp	x10, x11, [sp, #80]
    400028ac:	a90637ec 	stp	x12, x13, [sp, #96]
    400028b0:	a9073fee 	stp	x14, x15, [sp, #112]
    400028b4:	a90847f0 	stp	x16, x17, [sp, #128]
    400028b8:	a9094ff2 	stp	x18, x19, [sp, #144]
    400028bc:	a90a57f4 	stp	x20, x21, [sp, #160]
    400028c0:	a90b5ff6 	stp	x22, x23, [sp, #176]
    400028c4:	a90c67f8 	stp	x24, x25, [sp, #192]
    400028c8:	a90d6ffa 	stp	x26, x27, [sp, #208]
    400028cc:	a90e77fc 	stp	x28, x29, [sp, #224]
    400028d0:	f9007bfe 	str	x30, [sp, #240]
    400028d4:	9400050d 	bl	40003d08 <el1_cur_sp0_irq_handler>
    400028d8:	a94007e0 	ldp	x0, x1, [sp]
    400028dc:	a9410fe2 	ldp	x2, x3, [sp, #16]
    400028e0:	a94217e4 	ldp	x4, x5, [sp, #32]
    400028e4:	a9431fe6 	ldp	x6, x7, [sp, #48]
    400028e8:	a94427e8 	ldp	x8, x9, [sp, #64]
    400028ec:	a9452fea 	ldp	x10, x11, [sp, #80]
    400028f0:	a94637ec 	ldp	x12, x13, [sp, #96]
    400028f4:	a9473fee 	ldp	x14, x15, [sp, #112]
    400028f8:	a94847f0 	ldp	x16, x17, [sp, #128]
    400028fc:	a9494ff2 	ldp	x18, x19, [sp, #144]
    40002900:	a94a57f4 	ldp	x20, x21, [sp, #160]
    40002904:	a94b5ff6 	ldp	x22, x23, [sp, #176]
    40002908:	a94c67f8 	ldp	x24, x25, [sp, #192]
    4000290c:	a94d6ffa 	ldp	x26, x27, [sp, #208]
    40002910:	a94e77fc 	ldp	x28, x29, [sp, #224]
    40002914:	f9407bfe 	ldr	x30, [sp, #240]
    40002918:	910403ff 	add	sp, sp, #0x100
    4000291c:	d69f03e0 	eret

0000000040002920 <_el1_cur_sp0_fiq>:

_el1_cur_sp0_fiq:
    EL1_CALL_WITH_CONTEXT el1_cur_sp0_fiq_handler
    40002920:	d10403ff 	sub	sp, sp, #0x100
    40002924:	a90007e0 	stp	x0, x1, [sp]
    40002928:	a9010fe2 	stp	x2, x3, [sp, #16]
    4000292c:	a90217e4 	stp	x4, x5, [sp, #32]
    40002930:	a9031fe6 	stp	x6, x7, [sp, #48]
    40002934:	a90427e8 	stp	x8, x9, [sp, #64]
    40002938:	a9052fea 	stp	x10, x11, [sp, #80]
    4000293c:	a90637ec 	stp	x12, x13, [sp, #96]
    40002940:	a9073fee 	stp	x14, x15, [sp, #112]
    40002944:	a90847f0 	stp	x16, x17, [sp, #128]
    40002948:	a9094ff2 	stp	x18, x19, [sp, #144]
    4000294c:	a90a57f4 	stp	x20, x21, [sp, #160]
    40002950:	a90b5ff6 	stp	x22, x23, [sp, #176]
    40002954:	a90c67f8 	stp	x24, x25, [sp, #192]
    40002958:	a90d6ffa 	stp	x26, x27, [sp, #208]
    4000295c:	a90e77fc 	stp	x28, x29, [sp, #224]
    40002960:	f9007bfe 	str	x30, [sp, #240]
    40002964:	940003f6 	bl	4000393c <el1_cur_sp0_fiq_handler>
    40002968:	a94007e0 	ldp	x0, x1, [sp]
    4000296c:	a9410fe2 	ldp	x2, x3, [sp, #16]
    40002970:	a94217e4 	ldp	x4, x5, [sp, #32]
    40002974:	a9431fe6 	ldp	x6, x7, [sp, #48]
    40002978:	a94427e8 	ldp	x8, x9, [sp, #64]
    4000297c:	a9452fea 	ldp	x10, x11, [sp, #80]
    40002980:	a94637ec 	ldp	x12, x13, [sp, #96]
    40002984:	a9473fee 	ldp	x14, x15, [sp, #112]
    40002988:	a94847f0 	ldp	x16, x17, [sp, #128]
    4000298c:	a9494ff2 	ldp	x18, x19, [sp, #144]
    40002990:	a94a57f4 	ldp	x20, x21, [sp, #160]
    40002994:	a94b5ff6 	ldp	x22, x23, [sp, #176]
    40002998:	a94c67f8 	ldp	x24, x25, [sp, #192]
    4000299c:	a94d6ffa 	ldp	x26, x27, [sp, #208]
    400029a0:	a94e77fc 	ldp	x28, x29, [sp, #224]
    400029a4:	f9407bfe 	ldr	x30, [sp, #240]
    400029a8:	910403ff 	add	sp, sp, #0x100
    400029ac:	d69f03e0 	eret

00000000400029b0 <_el1_cur_sp0_serror>:

_el1_cur_sp0_serror:
    EL1_CALL_WITH_CONTEXT el1_cur_sp0_serror_handler
    400029b0:	d10403ff 	sub	sp, sp, #0x100
    400029b4:	a90007e0 	stp	x0, x1, [sp]
    400029b8:	a9010fe2 	stp	x2, x3, [sp, #16]
    400029bc:	a90217e4 	stp	x4, x5, [sp, #32]
    400029c0:	a9031fe6 	stp	x6, x7, [sp, #48]
    400029c4:	a90427e8 	stp	x8, x9, [sp, #64]
    400029c8:	a9052fea 	stp	x10, x11, [sp, #80]
    400029cc:	a90637ec 	stp	x12, x13, [sp, #96]
    400029d0:	a9073fee 	stp	x14, x15, [sp, #112]
    400029d4:	a90847f0 	stp	x16, x17, [sp, #128]
    400029d8:	a9094ff2 	stp	x18, x19, [sp, #144]
    400029dc:	a90a57f4 	stp	x20, x21, [sp, #160]
    400029e0:	a90b5ff6 	stp	x22, x23, [sp, #176]
    400029e4:	a90c67f8 	stp	x24, x25, [sp, #192]
    400029e8:	a90d6ffa 	stp	x26, x27, [sp, #208]
    400029ec:	a90e77fc 	stp	x28, x29, [sp, #224]
    400029f0:	f9007bfe 	str	x30, [sp, #240]
    400029f4:	94000504 	bl	40003e04 <el1_cur_sp0_serror_handler>
    400029f8:	a94007e0 	ldp	x0, x1, [sp]
    400029fc:	a9410fe2 	ldp	x2, x3, [sp, #16]
    40002a00:	a94217e4 	ldp	x4, x5, [sp, #32]
    40002a04:	a9431fe6 	ldp	x6, x7, [sp, #48]
    40002a08:	a94427e8 	ldp	x8, x9, [sp, #64]
    40002a0c:	a9452fea 	ldp	x10, x11, [sp, #80]
    40002a10:	a94637ec 	ldp	x12, x13, [sp, #96]
    40002a14:	a9473fee 	ldp	x14, x15, [sp, #112]
    40002a18:	a94847f0 	ldp	x16, x17, [sp, #128]
    40002a1c:	a9494ff2 	ldp	x18, x19, [sp, #144]
    40002a20:	a94a57f4 	ldp	x20, x21, [sp, #160]
    40002a24:	a94b5ff6 	ldp	x22, x23, [sp, #176]
    40002a28:	a94c67f8 	ldp	x24, x25, [sp, #192]
    40002a2c:	a94d6ffa 	ldp	x26, x27, [sp, #208]
    40002a30:	a94e77fc 	ldp	x28, x29, [sp, #224]
    40002a34:	f9407bfe 	ldr	x30, [sp, #240]
    40002a38:	910403ff 	add	sp, sp, #0x100
    40002a3c:	d69f03e0 	eret

0000000040002a40 <_el1_cur_spx_sync>:

_el1_cur_spx_sync:
    EL1_CALL_WITH_CONTEXT el1_cur_spx_sync_handler
    40002a40:	d10403ff 	sub	sp, sp, #0x100
    40002a44:	a90007e0 	stp	x0, x1, [sp]
    40002a48:	a9010fe2 	stp	x2, x3, [sp, #16]
    40002a4c:	a90217e4 	stp	x4, x5, [sp, #32]
    40002a50:	a9031fe6 	stp	x6, x7, [sp, #48]
    40002a54:	a90427e8 	stp	x8, x9, [sp, #64]
    40002a58:	a9052fea 	stp	x10, x11, [sp, #80]
    40002a5c:	a90637ec 	stp	x12, x13, [sp, #96]
    40002a60:	a9073fee 	stp	x14, x15, [sp, #112]
    40002a64:	a90847f0 	stp	x16, x17, [sp, #128]
    40002a68:	a9094ff2 	stp	x18, x19, [sp, #144]
    40002a6c:	a90a57f4 	stp	x20, x21, [sp, #160]
    40002a70:	a90b5ff6 	stp	x22, x23, [sp, #176]
    40002a74:	a90c67f8 	stp	x24, x25, [sp, #192]
    40002a78:	a90d6ffa 	stp	x26, x27, [sp, #208]
    40002a7c:	a90e77fc 	stp	x28, x29, [sp, #224]
    40002a80:	f9007bfe 	str	x30, [sp, #240]
    40002a84:	94000402 	bl	40003a8c <el1_cur_spx_sync_handler>
    40002a88:	a94007e0 	ldp	x0, x1, [sp]
    40002a8c:	a9410fe2 	ldp	x2, x3, [sp, #16]
    40002a90:	a94217e4 	ldp	x4, x5, [sp, #32]
    40002a94:	a9431fe6 	ldp	x6, x7, [sp, #48]
    40002a98:	a94427e8 	ldp	x8, x9, [sp, #64]
    40002a9c:	a9452fea 	ldp	x10, x11, [sp, #80]
    40002aa0:	a94637ec 	ldp	x12, x13, [sp, #96]
    40002aa4:	a9473fee 	ldp	x14, x15, [sp, #112]
    40002aa8:	a94847f0 	ldp	x16, x17, [sp, #128]
    40002aac:	a9494ff2 	ldp	x18, x19, [sp, #144]
    40002ab0:	a94a57f4 	ldp	x20, x21, [sp, #160]
    40002ab4:	a94b5ff6 	ldp	x22, x23, [sp, #176]
    40002ab8:	a94c67f8 	ldp	x24, x25, [sp, #192]
    40002abc:	a94d6ffa 	ldp	x26, x27, [sp, #208]
    40002ac0:	a94e77fc 	ldp	x28, x29, [sp, #224]
    40002ac4:	f9407bfe 	ldr	x30, [sp, #240]
    40002ac8:	910403ff 	add	sp, sp, #0x100
    40002acc:	d69f03e0 	eret

0000000040002ad0 <_el1_cur_spx_irq>:

_el1_cur_spx_irq:
    EL1_CALL_WITH_CONTEXT el1_cur_spx_irq_handler
    40002ad0:	d10403ff 	sub	sp, sp, #0x100
    40002ad4:	a90007e0 	stp	x0, x1, [sp]
    40002ad8:	a9010fe2 	stp	x2, x3, [sp, #16]
    40002adc:	a90217e4 	stp	x4, x5, [sp, #32]
    40002ae0:	a9031fe6 	stp	x6, x7, [sp, #48]
    40002ae4:	a90427e8 	stp	x8, x9, [sp, #64]
    40002ae8:	a9052fea 	stp	x10, x11, [sp, #80]
    40002aec:	a90637ec 	stp	x12, x13, [sp, #96]
    40002af0:	a9073fee 	stp	x14, x15, [sp, #112]
    40002af4:	a90847f0 	stp	x16, x17, [sp, #128]
    40002af8:	a9094ff2 	stp	x18, x19, [sp, #144]
    40002afc:	a90a57f4 	stp	x20, x21, [sp, #160]
    40002b00:	a90b5ff6 	stp	x22, x23, [sp, #176]
    40002b04:	a90c67f8 	stp	x24, x25, [sp, #192]
    40002b08:	a90d6ffa 	stp	x26, x27, [sp, #208]
    40002b0c:	a90e77fc 	stp	x28, x29, [sp, #224]
    40002b10:	f9007bfe 	str	x30, [sp, #240]
    40002b14:	94000408 	bl	40003b34 <el1_cur_spx_irq_handler>
    40002b18:	a94007e0 	ldp	x0, x1, [sp]
    40002b1c:	a9410fe2 	ldp	x2, x3, [sp, #16]
    40002b20:	a94217e4 	ldp	x4, x5, [sp, #32]
    40002b24:	a9431fe6 	ldp	x6, x7, [sp, #48]
    40002b28:	a94427e8 	ldp	x8, x9, [sp, #64]
    40002b2c:	a9452fea 	ldp	x10, x11, [sp, #80]
    40002b30:	a94637ec 	ldp	x12, x13, [sp, #96]
    40002b34:	a9473fee 	ldp	x14, x15, [sp, #112]
    40002b38:	a94847f0 	ldp	x16, x17, [sp, #128]
    40002b3c:	a9494ff2 	ldp	x18, x19, [sp, #144]
    40002b40:	a94a57f4 	ldp	x20, x21, [sp, #160]
    40002b44:	a94b5ff6 	ldp	x22, x23, [sp, #176]
    40002b48:	a94c67f8 	ldp	x24, x25, [sp, #192]
    40002b4c:	a94d6ffa 	ldp	x26, x27, [sp, #208]
    40002b50:	a94e77fc 	ldp	x28, x29, [sp, #224]
    40002b54:	f9407bfe 	ldr	x30, [sp, #240]
    40002b58:	910403ff 	add	sp, sp, #0x100
    40002b5c:	d69f03e0 	eret

0000000040002b60 <_el1_cur_spx_fiq>:

_el1_cur_spx_fiq:
    EL1_CALL_WITH_CONTEXT el1_cur_spx_fiq_handler
    40002b60:	d10403ff 	sub	sp, sp, #0x100
    40002b64:	a90007e0 	stp	x0, x1, [sp]
    40002b68:	a9010fe2 	stp	x2, x3, [sp, #16]
    40002b6c:	a90217e4 	stp	x4, x5, [sp, #32]
    40002b70:	a9031fe6 	stp	x6, x7, [sp, #48]
    40002b74:	a90427e8 	stp	x8, x9, [sp, #64]
    40002b78:	a9052fea 	stp	x10, x11, [sp, #80]
    40002b7c:	a90637ec 	stp	x12, x13, [sp, #96]
    40002b80:	a9073fee 	stp	x14, x15, [sp, #112]
    40002b84:	a90847f0 	stp	x16, x17, [sp, #128]
    40002b88:	a9094ff2 	stp	x18, x19, [sp, #144]
    40002b8c:	a90a57f4 	stp	x20, x21, [sp, #160]
    40002b90:	a90b5ff6 	stp	x22, x23, [sp, #176]
    40002b94:	a90c67f8 	stp	x24, x25, [sp, #192]
    40002b98:	a90d6ffa 	stp	x26, x27, [sp, #208]
    40002b9c:	a90e77fc 	stp	x28, x29, [sp, #224]
    40002ba0:	f9007bfe 	str	x30, [sp, #240]
    40002ba4:	940003cf 	bl	40003ae0 <el1_cur_spx_fiq_handler>
    40002ba8:	a94007e0 	ldp	x0, x1, [sp]
    40002bac:	a9410fe2 	ldp	x2, x3, [sp, #16]
    40002bb0:	a94217e4 	ldp	x4, x5, [sp, #32]
    40002bb4:	a9431fe6 	ldp	x6, x7, [sp, #48]
    40002bb8:	a94427e8 	ldp	x8, x9, [sp, #64]
    40002bbc:	a9452fea 	ldp	x10, x11, [sp, #80]
    40002bc0:	a94637ec 	ldp	x12, x13, [sp, #96]
    40002bc4:	a9473fee 	ldp	x14, x15, [sp, #112]
    40002bc8:	a94847f0 	ldp	x16, x17, [sp, #128]
    40002bcc:	a9494ff2 	ldp	x18, x19, [sp, #144]
    40002bd0:	a94a57f4 	ldp	x20, x21, [sp, #160]
    40002bd4:	a94b5ff6 	ldp	x22, x23, [sp, #176]
    40002bd8:	a94c67f8 	ldp	x24, x25, [sp, #192]
    40002bdc:	a94d6ffa 	ldp	x26, x27, [sp, #208]
    40002be0:	a94e77fc 	ldp	x28, x29, [sp, #224]
    40002be4:	f9407bfe 	ldr	x30, [sp, #240]
    40002be8:	910403ff 	add	sp, sp, #0x100
    40002bec:	d69f03e0 	eret

0000000040002bf0 <_el1_cur_spx_serror>:

_el1_cur_spx_serror:
    EL1_CALL_WITH_CONTEXT el1_cur_spx_serror_handler
    40002bf0:	d10403ff 	sub	sp, sp, #0x100
    40002bf4:	a90007e0 	stp	x0, x1, [sp]
    40002bf8:	a9010fe2 	stp	x2, x3, [sp, #16]
    40002bfc:	a90217e4 	stp	x4, x5, [sp, #32]
    40002c00:	a9031fe6 	stp	x6, x7, [sp, #48]
    40002c04:	a90427e8 	stp	x8, x9, [sp, #64]
    40002c08:	a9052fea 	stp	x10, x11, [sp, #80]
    40002c0c:	a90637ec 	stp	x12, x13, [sp, #96]
    40002c10:	a9073fee 	stp	x14, x15, [sp, #112]
    40002c14:	a90847f0 	stp	x16, x17, [sp, #128]
    40002c18:	a9094ff2 	stp	x18, x19, [sp, #144]
    40002c1c:	a90a57f4 	stp	x20, x21, [sp, #160]
    40002c20:	a90b5ff6 	stp	x22, x23, [sp, #176]
    40002c24:	a90c67f8 	stp	x24, x25, [sp, #192]
    40002c28:	a90d6ffa 	stp	x26, x27, [sp, #208]
    40002c2c:	a90e77fc 	stp	x28, x29, [sp, #224]
    40002c30:	f9007bfe 	str	x30, [sp, #240]
    40002c34:	940003cc 	bl	40003b64 <el1_cur_spx_serror_handler>
    40002c38:	a94007e0 	ldp	x0, x1, [sp]
    40002c3c:	a9410fe2 	ldp	x2, x3, [sp, #16]
    40002c40:	a94217e4 	ldp	x4, x5, [sp, #32]
    40002c44:	a9431fe6 	ldp	x6, x7, [sp, #48]
    40002c48:	a94427e8 	ldp	x8, x9, [sp, #64]
    40002c4c:	a9452fea 	ldp	x10, x11, [sp, #80]
    40002c50:	a94637ec 	ldp	x12, x13, [sp, #96]
    40002c54:	a9473fee 	ldp	x14, x15, [sp, #112]
    40002c58:	a94847f0 	ldp	x16, x17, [sp, #128]
    40002c5c:	a9494ff2 	ldp	x18, x19, [sp, #144]
    40002c60:	a94a57f4 	ldp	x20, x21, [sp, #160]
    40002c64:	a94b5ff6 	ldp	x22, x23, [sp, #176]
    40002c68:	a94c67f8 	ldp	x24, x25, [sp, #192]
    40002c6c:	a94d6ffa 	ldp	x26, x27, [sp, #208]
    40002c70:	a94e77fc 	ldp	x28, x29, [sp, #224]
    40002c74:	f9407bfe 	ldr	x30, [sp, #240]
    40002c78:	910403ff 	add	sp, sp, #0x100
    40002c7c:	d69f03e0 	eret

0000000040002c80 <_el1_low_a64_sync>:

_el1_low_a64_sync:
    EL1_CALL_WITH_CONTEXT el1_low_a64_sync_handler
    40002c80:	d10403ff 	sub	sp, sp, #0x100
    40002c84:	a90007e0 	stp	x0, x1, [sp]
    40002c88:	a9010fe2 	stp	x2, x3, [sp, #16]
    40002c8c:	a90217e4 	stp	x4, x5, [sp, #32]
    40002c90:	a9031fe6 	stp	x6, x7, [sp, #48]
    40002c94:	a90427e8 	stp	x8, x9, [sp, #64]
    40002c98:	a9052fea 	stp	x10, x11, [sp, #80]
    40002c9c:	a90637ec 	stp	x12, x13, [sp, #96]
    40002ca0:	a9073fee 	stp	x14, x15, [sp, #112]
    40002ca4:	a90847f0 	stp	x16, x17, [sp, #128]
    40002ca8:	a9094ff2 	stp	x18, x19, [sp, #144]
    40002cac:	a90a57f4 	stp	x20, x21, [sp, #160]
    40002cb0:	a90b5ff6 	stp	x22, x23, [sp, #176]
    40002cb4:	a90c67f8 	stp	x24, x25, [sp, #192]
    40002cb8:	a90d6ffa 	stp	x26, x27, [sp, #208]
    40002cbc:	a90e77fc 	stp	x28, x29, [sp, #224]
    40002cc0:	f9007bfe 	str	x30, [sp, #240]
    40002cc4:	9400035d 	bl	40003a38 <el1_low_a64_sync_handler>
    40002cc8:	a94007e0 	ldp	x0, x1, [sp]
    40002ccc:	a9410fe2 	ldp	x2, x3, [sp, #16]
    40002cd0:	a94217e4 	ldp	x4, x5, [sp, #32]
    40002cd4:	a9431fe6 	ldp	x6, x7, [sp, #48]
    40002cd8:	a94427e8 	ldp	x8, x9, [sp, #64]
    40002cdc:	a9452fea 	ldp	x10, x11, [sp, #80]
    40002ce0:	a94637ec 	ldp	x12, x13, [sp, #96]
    40002ce4:	a9473fee 	ldp	x14, x15, [sp, #112]
    40002ce8:	a94847f0 	ldp	x16, x17, [sp, #128]
    40002cec:	a9494ff2 	ldp	x18, x19, [sp, #144]
    40002cf0:	a94a57f4 	ldp	x20, x21, [sp, #160]
    40002cf4:	a94b5ff6 	ldp	x22, x23, [sp, #176]
    40002cf8:	a94c67f8 	ldp	x24, x25, [sp, #192]
    40002cfc:	a94d6ffa 	ldp	x26, x27, [sp, #208]
    40002d00:	a94e77fc 	ldp	x28, x29, [sp, #224]
    40002d04:	f9407bfe 	ldr	x30, [sp, #240]
    40002d08:	910403ff 	add	sp, sp, #0x100
    40002d0c:	d69f03e0 	eret

0000000040002d10 <_el1_low_a64_irq>:

_el1_low_a64_irq:
    EL1_CALL_WITH_CONTEXT el1_low_a64_irq_handler
    40002d10:	d10403ff 	sub	sp, sp, #0x100
    40002d14:	a90007e0 	stp	x0, x1, [sp]
    40002d18:	a9010fe2 	stp	x2, x3, [sp, #16]
    40002d1c:	a90217e4 	stp	x4, x5, [sp, #32]
    40002d20:	a9031fe6 	stp	x6, x7, [sp, #48]
    40002d24:	a90427e8 	stp	x8, x9, [sp, #64]
    40002d28:	a9052fea 	stp	x10, x11, [sp, #80]
    40002d2c:	a90637ec 	stp	x12, x13, [sp, #96]
    40002d30:	a9073fee 	stp	x14, x15, [sp, #112]
    40002d34:	a90847f0 	stp	x16, x17, [sp, #128]
    40002d38:	a9094ff2 	stp	x18, x19, [sp, #144]
    40002d3c:	a90a57f4 	stp	x20, x21, [sp, #160]
    40002d40:	a90b5ff6 	stp	x22, x23, [sp, #176]
    40002d44:	a90c67f8 	stp	x24, x25, [sp, #192]
    40002d48:	a90d6ffa 	stp	x26, x27, [sp, #208]
    40002d4c:	a90e77fc 	stp	x28, x29, [sp, #224]
    40002d50:	f9007bfe 	str	x30, [sp, #240]
    40002d54:	940003c3 	bl	40003c60 <el1_low_a64_irq_handler>
    40002d58:	a94007e0 	ldp	x0, x1, [sp]
    40002d5c:	a9410fe2 	ldp	x2, x3, [sp, #16]
    40002d60:	a94217e4 	ldp	x4, x5, [sp, #32]
    40002d64:	a9431fe6 	ldp	x6, x7, [sp, #48]
    40002d68:	a94427e8 	ldp	x8, x9, [sp, #64]
    40002d6c:	a9452fea 	ldp	x10, x11, [sp, #80]
    40002d70:	a94637ec 	ldp	x12, x13, [sp, #96]
    40002d74:	a9473fee 	ldp	x14, x15, [sp, #112]
    40002d78:	a94847f0 	ldp	x16, x17, [sp, #128]
    40002d7c:	a9494ff2 	ldp	x18, x19, [sp, #144]
    40002d80:	a94a57f4 	ldp	x20, x21, [sp, #160]
    40002d84:	a94b5ff6 	ldp	x22, x23, [sp, #176]
    40002d88:	a94c67f8 	ldp	x24, x25, [sp, #192]
    40002d8c:	a94d6ffa 	ldp	x26, x27, [sp, #208]
    40002d90:	a94e77fc 	ldp	x28, x29, [sp, #224]
    40002d94:	f9407bfe 	ldr	x30, [sp, #240]
    40002d98:	910403ff 	add	sp, sp, #0x100
    40002d9c:	d69f03e0 	eret

0000000040002da0 <_el1_low_a64_fiq>:

_el1_low_a64_fiq:
    EL1_CALL_WITH_CONTEXT el1_low_a64_fiq_handler
    40002da0:	d10403ff 	sub	sp, sp, #0x100
    40002da4:	a90007e0 	stp	x0, x1, [sp]
    40002da8:	a9010fe2 	stp	x2, x3, [sp, #16]
    40002dac:	a90217e4 	stp	x4, x5, [sp, #32]
    40002db0:	a9031fe6 	stp	x6, x7, [sp, #48]
    40002db4:	a90427e8 	stp	x8, x9, [sp, #64]
    40002db8:	a9052fea 	stp	x10, x11, [sp, #80]
    40002dbc:	a90637ec 	stp	x12, x13, [sp, #96]
    40002dc0:	a9073fee 	stp	x14, x15, [sp, #112]
    40002dc4:	a90847f0 	stp	x16, x17, [sp, #128]
    40002dc8:	a9094ff2 	stp	x18, x19, [sp, #144]
    40002dcc:	a90a57f4 	stp	x20, x21, [sp, #160]
    40002dd0:	a90b5ff6 	stp	x22, x23, [sp, #176]
    40002dd4:	a90c67f8 	stp	x24, x25, [sp, #192]
    40002dd8:	a90d6ffa 	stp	x26, x27, [sp, #208]
    40002ddc:	a90e77fc 	stp	x28, x29, [sp, #224]
    40002de0:	f9007bfe 	str	x30, [sp, #240]
    40002de4:	9400038a 	bl	40003c0c <el1_low_a64_fiq_handler>
    40002de8:	a94007e0 	ldp	x0, x1, [sp]
    40002dec:	a9410fe2 	ldp	x2, x3, [sp, #16]
    40002df0:	a94217e4 	ldp	x4, x5, [sp, #32]
    40002df4:	a9431fe6 	ldp	x6, x7, [sp, #48]
    40002df8:	a94427e8 	ldp	x8, x9, [sp, #64]
    40002dfc:	a9452fea 	ldp	x10, x11, [sp, #80]
    40002e00:	a94637ec 	ldp	x12, x13, [sp, #96]
    40002e04:	a9473fee 	ldp	x14, x15, [sp, #112]
    40002e08:	a94847f0 	ldp	x16, x17, [sp, #128]
    40002e0c:	a9494ff2 	ldp	x18, x19, [sp, #144]
    40002e10:	a94a57f4 	ldp	x20, x21, [sp, #160]
    40002e14:	a94b5ff6 	ldp	x22, x23, [sp, #176]
    40002e18:	a94c67f8 	ldp	x24, x25, [sp, #192]
    40002e1c:	a94d6ffa 	ldp	x26, x27, [sp, #208]
    40002e20:	a94e77fc 	ldp	x28, x29, [sp, #224]
    40002e24:	f9407bfe 	ldr	x30, [sp, #240]
    40002e28:	910403ff 	add	sp, sp, #0x100
    40002e2c:	d69f03e0 	eret

0000000040002e30 <_el1_low_a64_serror>:

_el1_low_a64_serror:
    EL1_CALL_WITH_CONTEXT el1_low_a64_serror_handler
    40002e30:	d10403ff 	sub	sp, sp, #0x100
    40002e34:	a90007e0 	stp	x0, x1, [sp]
    40002e38:	a9010fe2 	stp	x2, x3, [sp, #16]
    40002e3c:	a90217e4 	stp	x4, x5, [sp, #32]
    40002e40:	a9031fe6 	stp	x6, x7, [sp, #48]
    40002e44:	a90427e8 	stp	x8, x9, [sp, #64]
    40002e48:	a9052fea 	stp	x10, x11, [sp, #80]
    40002e4c:	a90637ec 	stp	x12, x13, [sp, #96]
    40002e50:	a9073fee 	stp	x14, x15, [sp, #112]
    40002e54:	a90847f0 	stp	x16, x17, [sp, #128]
    40002e58:	a9094ff2 	stp	x18, x19, [sp, #144]
    40002e5c:	a90a57f4 	stp	x20, x21, [sp, #160]
    40002e60:	a90b5ff6 	stp	x22, x23, [sp, #176]
    40002e64:	a90c67f8 	stp	x24, x25, [sp, #192]
    40002e68:	a90d6ffa 	stp	x26, x27, [sp, #208]
    40002e6c:	a90e77fc 	stp	x28, x29, [sp, #224]
    40002e70:	f9007bfe 	str	x30, [sp, #240]
    40002e74:	940003ba 	bl	40003d5c <el1_low_a64_serror_handler>
    40002e78:	a94007e0 	ldp	x0, x1, [sp]
    40002e7c:	a9410fe2 	ldp	x2, x3, [sp, #16]
    40002e80:	a94217e4 	ldp	x4, x5, [sp, #32]
    40002e84:	a9431fe6 	ldp	x6, x7, [sp, #48]
    40002e88:	a94427e8 	ldp	x8, x9, [sp, #64]
    40002e8c:	a9452fea 	ldp	x10, x11, [sp, #80]
    40002e90:	a94637ec 	ldp	x12, x13, [sp, #96]
    40002e94:	a9473fee 	ldp	x14, x15, [sp, #112]
    40002e98:	a94847f0 	ldp	x16, x17, [sp, #128]
    40002e9c:	a9494ff2 	ldp	x18, x19, [sp, #144]
    40002ea0:	a94a57f4 	ldp	x20, x21, [sp, #160]
    40002ea4:	a94b5ff6 	ldp	x22, x23, [sp, #176]
    40002ea8:	a94c67f8 	ldp	x24, x25, [sp, #192]
    40002eac:	a94d6ffa 	ldp	x26, x27, [sp, #208]
    40002eb0:	a94e77fc 	ldp	x28, x29, [sp, #224]
    40002eb4:	f9407bfe 	ldr	x30, [sp, #240]
    40002eb8:	910403ff 	add	sp, sp, #0x100
    40002ebc:	d69f03e0 	eret

0000000040002ec0 <_el1_low_a32_sync>:

_el1_low_a32_sync:
    EL1_CALL_WITH_CONTEXT el1_low_a32_sync_handler
    40002ec0:	d10403ff 	sub	sp, sp, #0x100
    40002ec4:	a90007e0 	stp	x0, x1, [sp]
    40002ec8:	a9010fe2 	stp	x2, x3, [sp, #16]
    40002ecc:	a90217e4 	stp	x4, x5, [sp, #32]
    40002ed0:	a9031fe6 	stp	x6, x7, [sp, #48]
    40002ed4:	a90427e8 	stp	x8, x9, [sp, #64]
    40002ed8:	a9052fea 	stp	x10, x11, [sp, #80]
    40002edc:	a90637ec 	stp	x12, x13, [sp, #96]
    40002ee0:	a9073fee 	stp	x14, x15, [sp, #112]
    40002ee4:	a90847f0 	stp	x16, x17, [sp, #128]
    40002ee8:	a9094ff2 	stp	x18, x19, [sp, #144]
    40002eec:	a90a57f4 	stp	x20, x21, [sp, #160]
    40002ef0:	a90b5ff6 	stp	x22, x23, [sp, #176]
    40002ef4:	a90c67f8 	stp	x24, x25, [sp, #192]
    40002ef8:	a90d6ffa 	stp	x26, x27, [sp, #208]
    40002efc:	a90e77fc 	stp	x28, x29, [sp, #224]
    40002f00:	f9007bfe 	str	x30, [sp, #240]
    40002f04:	940003ab 	bl	40003db0 <el1_low_a32_sync_handler>
    40002f08:	a94007e0 	ldp	x0, x1, [sp]
    40002f0c:	a9410fe2 	ldp	x2, x3, [sp, #16]
    40002f10:	a94217e4 	ldp	x4, x5, [sp, #32]
    40002f14:	a9431fe6 	ldp	x6, x7, [sp, #48]
    40002f18:	a94427e8 	ldp	x8, x9, [sp, #64]
    40002f1c:	a9452fea 	ldp	x10, x11, [sp, #80]
    40002f20:	a94637ec 	ldp	x12, x13, [sp, #96]
    40002f24:	a9473fee 	ldp	x14, x15, [sp, #112]
    40002f28:	a94847f0 	ldp	x16, x17, [sp, #128]
    40002f2c:	a9494ff2 	ldp	x18, x19, [sp, #144]
    40002f30:	a94a57f4 	ldp	x20, x21, [sp, #160]
    40002f34:	a94b5ff6 	ldp	x22, x23, [sp, #176]
    40002f38:	a94c67f8 	ldp	x24, x25, [sp, #192]
    40002f3c:	a94d6ffa 	ldp	x26, x27, [sp, #208]
    40002f40:	a94e77fc 	ldp	x28, x29, [sp, #224]
    40002f44:	f9407bfe 	ldr	x30, [sp, #240]
    40002f48:	910403ff 	add	sp, sp, #0x100
    40002f4c:	d69f03e0 	eret

0000000040002f50 <_el1_low_a32_irq>:

_el1_low_a32_irq:
    EL1_CALL_WITH_CONTEXT el1_low_a32_irq_handler
    40002f50:	d10403ff 	sub	sp, sp, #0x100
    40002f54:	a90007e0 	stp	x0, x1, [sp]
    40002f58:	a9010fe2 	stp	x2, x3, [sp, #16]
    40002f5c:	a90217e4 	stp	x4, x5, [sp, #32]
    40002f60:	a9031fe6 	stp	x6, x7, [sp, #48]
    40002f64:	a90427e8 	stp	x8, x9, [sp, #64]
    40002f68:	a9052fea 	stp	x10, x11, [sp, #80]
    40002f6c:	a90637ec 	stp	x12, x13, [sp, #96]
    40002f70:	a9073fee 	stp	x14, x15, [sp, #112]
    40002f74:	a90847f0 	stp	x16, x17, [sp, #128]
    40002f78:	a9094ff2 	stp	x18, x19, [sp, #144]
    40002f7c:	a90a57f4 	stp	x20, x21, [sp, #160]
    40002f80:	a90b5ff6 	stp	x22, x23, [sp, #176]
    40002f84:	a90c67f8 	stp	x24, x25, [sp, #192]
    40002f88:	a90d6ffa 	stp	x26, x27, [sp, #208]
    40002f8c:	a90e77fc 	stp	x28, x29, [sp, #224]
    40002f90:	f9007bfe 	str	x30, [sp, #240]
    40002f94:	94000309 	bl	40003bb8 <el1_low_a32_irq_handler>
    40002f98:	a94007e0 	ldp	x0, x1, [sp]
    40002f9c:	a9410fe2 	ldp	x2, x3, [sp, #16]
    40002fa0:	a94217e4 	ldp	x4, x5, [sp, #32]
    40002fa4:	a9431fe6 	ldp	x6, x7, [sp, #48]
    40002fa8:	a94427e8 	ldp	x8, x9, [sp, #64]
    40002fac:	a9452fea 	ldp	x10, x11, [sp, #80]
    40002fb0:	a94637ec 	ldp	x12, x13, [sp, #96]
    40002fb4:	a9473fee 	ldp	x14, x15, [sp, #112]
    40002fb8:	a94847f0 	ldp	x16, x17, [sp, #128]
    40002fbc:	a9494ff2 	ldp	x18, x19, [sp, #144]
    40002fc0:	a94a57f4 	ldp	x20, x21, [sp, #160]
    40002fc4:	a94b5ff6 	ldp	x22, x23, [sp, #176]
    40002fc8:	a94c67f8 	ldp	x24, x25, [sp, #192]
    40002fcc:	a94d6ffa 	ldp	x26, x27, [sp, #208]
    40002fd0:	a94e77fc 	ldp	x28, x29, [sp, #224]
    40002fd4:	f9407bfe 	ldr	x30, [sp, #240]
    40002fd8:	910403ff 	add	sp, sp, #0x100
    40002fdc:	d69f03e0 	eret

0000000040002fe0 <_el1_low_a32_fiq>:

_el1_low_a32_fiq:
    EL1_CALL_WITH_CONTEXT el1_low_a32_fiq_handler
    40002fe0:	d10403ff 	sub	sp, sp, #0x100
    40002fe4:	a90007e0 	stp	x0, x1, [sp]
    40002fe8:	a9010fe2 	stp	x2, x3, [sp, #16]
    40002fec:	a90217e4 	stp	x4, x5, [sp, #32]
    40002ff0:	a9031fe6 	stp	x6, x7, [sp, #48]
    40002ff4:	a90427e8 	stp	x8, x9, [sp, #64]
    40002ff8:	a9052fea 	stp	x10, x11, [sp, #80]
    40002ffc:	a90637ec 	stp	x12, x13, [sp, #96]
    40003000:	a9073fee 	stp	x14, x15, [sp, #112]
    40003004:	a90847f0 	stp	x16, x17, [sp, #128]
    40003008:	a9094ff2 	stp	x18, x19, [sp, #144]
    4000300c:	a90a57f4 	stp	x20, x21, [sp, #160]
    40003010:	a90b5ff6 	stp	x22, x23, [sp, #176]
    40003014:	a90c67f8 	stp	x24, x25, [sp, #192]
    40003018:	a90d6ffa 	stp	x26, x27, [sp, #208]
    4000301c:	a90e77fc 	stp	x28, x29, [sp, #224]
    40003020:	f9007bfe 	str	x30, [sp, #240]
    40003024:	94000270 	bl	400039e4 <el1_low_a32_fiq_handler>
    40003028:	a94007e0 	ldp	x0, x1, [sp]
    4000302c:	a9410fe2 	ldp	x2, x3, [sp, #16]
    40003030:	a94217e4 	ldp	x4, x5, [sp, #32]
    40003034:	a9431fe6 	ldp	x6, x7, [sp, #48]
    40003038:	a94427e8 	ldp	x8, x9, [sp, #64]
    4000303c:	a9452fea 	ldp	x10, x11, [sp, #80]
    40003040:	a94637ec 	ldp	x12, x13, [sp, #96]
    40003044:	a9473fee 	ldp	x14, x15, [sp, #112]
    40003048:	a94847f0 	ldp	x16, x17, [sp, #128]
    4000304c:	a9494ff2 	ldp	x18, x19, [sp, #144]
    40003050:	a94a57f4 	ldp	x20, x21, [sp, #160]
    40003054:	a94b5ff6 	ldp	x22, x23, [sp, #176]
    40003058:	a94c67f8 	ldp	x24, x25, [sp, #192]
    4000305c:	a94d6ffa 	ldp	x26, x27, [sp, #208]
    40003060:	a94e77fc 	ldp	x28, x29, [sp, #224]
    40003064:	f9407bfe 	ldr	x30, [sp, #240]
    40003068:	910403ff 	add	sp, sp, #0x100
    4000306c:	d69f03e0 	eret

0000000040003070 <_el1_low_a32_serror>:

_el1_low_a32_serror:
    EL1_CALL_WITH_CONTEXT el1_low_a32_serror_handler
    40003070:	d10403ff 	sub	sp, sp, #0x100
    40003074:	a90007e0 	stp	x0, x1, [sp]
    40003078:	a9010fe2 	stp	x2, x3, [sp, #16]
    4000307c:	a90217e4 	stp	x4, x5, [sp, #32]
    40003080:	a9031fe6 	stp	x6, x7, [sp, #48]
    40003084:	a90427e8 	stp	x8, x9, [sp, #64]
    40003088:	a9052fea 	stp	x10, x11, [sp, #80]
    4000308c:	a90637ec 	stp	x12, x13, [sp, #96]
    40003090:	a9073fee 	stp	x14, x15, [sp, #112]
    40003094:	a90847f0 	stp	x16, x17, [sp, #128]
    40003098:	a9094ff2 	stp	x18, x19, [sp, #144]
    4000309c:	a90a57f4 	stp	x20, x21, [sp, #160]
    400030a0:	a90b5ff6 	stp	x22, x23, [sp, #176]
    400030a4:	a90c67f8 	stp	x24, x25, [sp, #192]
    400030a8:	a90d6ffa 	stp	x26, x27, [sp, #208]
    400030ac:	a90e77fc 	stp	x28, x29, [sp, #224]
    400030b0:	f9007bfe 	str	x30, [sp, #240]
    400030b4:	94000237 	bl	40003990 <el1_low_a32_serror_handler>
    400030b8:	a94007e0 	ldp	x0, x1, [sp]
    400030bc:	a9410fe2 	ldp	x2, x3, [sp, #16]
    400030c0:	a94217e4 	ldp	x4, x5, [sp, #32]
    400030c4:	a9431fe6 	ldp	x6, x7, [sp, #48]
    400030c8:	a94427e8 	ldp	x8, x9, [sp, #64]
    400030cc:	a9452fea 	ldp	x10, x11, [sp, #80]
    400030d0:	a94637ec 	ldp	x12, x13, [sp, #96]
    400030d4:	a9473fee 	ldp	x14, x15, [sp, #112]
    400030d8:	a94847f0 	ldp	x16, x17, [sp, #128]
    400030dc:	a9494ff2 	ldp	x18, x19, [sp, #144]
    400030e0:	a94a57f4 	ldp	x20, x21, [sp, #160]
    400030e4:	a94b5ff6 	ldp	x22, x23, [sp, #176]
    400030e8:	a94c67f8 	ldp	x24, x25, [sp, #192]
    400030ec:	a94d6ffa 	ldp	x26, x27, [sp, #208]
    400030f0:	a94e77fc 	ldp	x28, x29, [sp, #224]
    400030f4:	f9407bfe 	ldr	x30, [sp, #240]
    400030f8:	910403ff 	add	sp, sp, #0x100
    400030fc:	d69f03e0 	eret

0000000040003100 <_memcpy>:

// void *_memcpy64(void *dst, void *src, uint64 size);
.global _memcpy
.align 4
_memcpy:
    mov     x3, x0
    40003100:	aa0003e3 	mov	x3, x0

    cmp     x2, #16
    40003104:	f100405f 	cmp	x2, #0x10
    b.lt    tail8
    40003108:	5400056b 	b.lt	400031b4 <tail8>  // b.tstop

//  Alignment: x4 = misalign
    ands    x4, x0, #15     // x4 = dst % 16
    4000310c:	f2400c04 	ands	x4, x0, #0xf
    b.eq    aligned         // if (x4 == 0) goto aligned;
    40003110:	54000340 	b.eq	40003178 <aligned>  // b.none
    
    mov     x5, #16
    40003114:	d2800205 	mov	x5, #0x10                  	// #16
    sub     x4, x5, x4      // x4 = 16 - x4 
    40003118:	cb0400a4 	sub	x4, x5, x4

    cmp     x4, x2
    4000311c:	eb02009f 	cmp	x4, x2
    csel    x4, x2, x4, hi  // x4 = min(misalign, size)
    40003120:	9a848044 	csel	x4, x2, x4, hi	// hi = pmore

    sub     x2, x2, x4
    40003124:	cb040042 	sub	x2, x2, x4

0000000040003128 <head8>:

head8:
    cmp     x4, #8
    40003128:	f100209f 	cmp	x4, #0x8
    b.lt    head4
    4000312c:	5400008b 	b.lt	4000313c <head4>  // b.tstop

    ldr     x5, [x1], #8
    40003130:	f8408425 	ldr	x5, [x1], #8
    str     x5, [x0], #8
    40003134:	f8008405 	str	x5, [x0], #8
    sub     x4, x4, #8
    40003138:	d1002084 	sub	x4, x4, #0x8

000000004000313c <head4>:

head4:
    cmp     x4, #4
    4000313c:	f100109f 	cmp	x4, #0x4
    b.lt    head2
    40003140:	5400008b 	b.lt	40003150 <head2>  // b.tstop

0000000040003144 <h4>:
h4:
    ldr     x5, [x1], #4
    40003144:	f8404425 	ldr	x5, [x1], #4
    str     x5, [x0], #4
    40003148:	f8004405 	str	x5, [x0], #4
    sub    x4, x4, #4
    4000314c:	d1001084 	sub	x4, x4, #0x4

0000000040003150 <head2>:

head2:
    cmp     x4, #2
    40003150:	f100089f 	cmp	x4, #0x2
    b.lt    head1
    40003154:	5400008b 	b.lt	40003164 <head1>  // b.tstop

0000000040003158 <h2>:
h2:
    ldrh    w5, [x1], #2
    40003158:	78402425 	ldrh	w5, [x1], #2
    strh    w5, [x0], #2
    4000315c:	78002405 	strh	w5, [x0], #2
    sub    x4, x4, #2
    40003160:	d1000884 	sub	x4, x4, #0x2

0000000040003164 <head1>:

head1:
    cbz     x4, aligned
    40003164:	b40000a4 	cbz	x4, 40003178 <aligned>

0000000040003168 <h1>:
h1:
    ldrb    w5, [x1], #1
    40003168:	38401425 	ldrb	w5, [x1], #1
    strb    w5, [x0], #1
    4000316c:	38001405 	strb	w5, [x0], #1

    sub     x4, x4, #1 // TODO: check if needed loop for head1
    40003170:	d1000484 	sub	x4, x4, #0x1
    cbnz    x4, hang
    40003174:	b5000464 	cbnz	x4, 40003200 <hang>

0000000040003178 <aligned>:

aligned:
    // TODO: delete after testing
    ands    xzr, x0, #15
    40003178:	f2400c1f 	tst	x0, #0xf
    b.ne    hang  // only for debug, if not aligned to 16 hang, to verify with gdb
    4000317c:	54000421 	b.ne	40003200 <hang>  // b.any

    cmp     x2, #64
    40003180:	f101005f 	cmp	x2, #0x40
    b.lt    tail32
    40003184:	540000eb 	b.lt	400031a0 <tail32>  // b.tstop

0000000040003188 <loop>:

loop:
    ld1     {v0.16b-v3.16b}, [x1], #64
    40003188:	4cdf2020 	ld1	{v0.16b-v3.16b}, [x1], #64
    st1     {v0.16b-v3.16b}, [x0], #64
    4000318c:	4c9f2000 	st1	{v0.16b-v3.16b}, [x0], #64

    sub     x2, x2, #64
    40003190:	d1010042 	sub	x2, x2, #0x40
    cmp     x2, #64
    40003194:	f101005f 	cmp	x2, #0x40
    b.ge    loop
    40003198:	54ffff8a 	b.ge	40003188 <loop>  // b.tcont
    b       tail8
    4000319c:	14000006 	b	400031b4 <tail8>

00000000400031a0 <tail32>:

tail32:
    cmp     x2, #32
    400031a0:	f100805f 	cmp	x2, #0x20
    b.lt    tail8
    400031a4:	5400008b 	b.lt	400031b4 <tail8>  // b.tstop

    ld1     {v0.16b, v1.16b}, [x1], #32
    400031a8:	4cdfa020 	ld1	{v0.16b-v1.16b}, [x1], #32
    st1     {v0.16b, v1.16b}, [x0], #32
    400031ac:	4c9fa000 	st1	{v0.16b-v1.16b}, [x0], #32

    sub     x2, x2, #32
    400031b0:	d1008042 	sub	x2, x2, #0x20

00000000400031b4 <tail8>:

tail8:      // tail8 loops as for example if the size 63 is requested 63 - 32 -> 31, and then with 8 loops the result is near for tail4 or tail1
    cmp     x2, #8
    400031b4:	f100205f 	cmp	x2, #0x8
    b.lt    tail4
    400031b8:	540000cb 	b.lt	400031d0 <tail4>  // b.tstop

00000000400031bc <t8>:
t8:
    ldr     x4, [x1], #8
    400031bc:	f8408424 	ldr	x4, [x1], #8
    str     x4, [x0], #8
    400031c0:	f8008404 	str	x4, [x0], #8

    sub     x2, x2, #8
    400031c4:	d1002042 	sub	x2, x2, #0x8
    cmp     x2, #8
    400031c8:	f100205f 	cmp	x2, #0x8
    b.ge    t8
    400031cc:	54ffff8a 	b.ge	400031bc <t8>  // b.tcont

00000000400031d0 <tail4>:

tail4:
    cmp     x2, #4
    400031d0:	f100105f 	cmp	x2, #0x4
    b.lt    tail1
    400031d4:	5400008b 	b.lt	400031e4 <tail1>  // b.tstop

00000000400031d8 <t4>:
t4:
    ldr     w4, [x1], #4
    400031d8:	b8404424 	ldr	w4, [x1], #4
    str     w4, [x0], #4
    400031dc:	b8004404 	str	w4, [x0], #4

    sub     x2, x2, #4
    400031e0:	d1001042 	sub	x2, x2, #0x4

00000000400031e4 <tail1>:

tail1:
    cbz     x2, return
    400031e4:	b40000a2 	cbz	x2, 400031f8 <return>

00000000400031e8 <t1>:
t1:
    ldrb    w4, [x1], #1
    400031e8:	38401424 	ldrb	w4, [x1], #1
    strb    w4, [x0], #1
    400031ec:	38001404 	strb	w4, [x0], #1

    subs    x2, x2, #1
    400031f0:	f1000442 	subs	x2, x2, #0x1
    b.ne    t1
    400031f4:	54ffffa1 	b.ne	400031e8 <t1>  // b.any

00000000400031f8 <return>:

return:
    mov     x0, x3
    400031f8:	aa0303e0 	mov	x0, x3
    ret
    400031fc:	d65f03c0 	ret

0000000040003200 <hang>:

hang:
    wfe
    40003200:	d503205f 	wfe
    b hang
    40003204:	17ffffff 	b	40003200 <hang>
    40003208:	d503201f 	nop
    4000320c:	d503201f 	nop

0000000040003210 <_memcpy64>:

// void *_memcpy64(void *dst, void *src, uint64 size);
.global _memcpy64
.align 4
_memcpy64:
    mov     x3, x0      // save return value (dst)
    40003210:	aa0003e3 	mov	x3, x0

    cmp     x2, #64
    40003214:	f101005f 	cmp	x2, #0x40
    b.lt    return64
    40003218:	540000cb 	b.lt	40003230 <return64>  // b.tstop

000000004000321c <loop64>:
    
loop64:     
    ld1		{v0.16b-v3.16b}, [x1], #64
    4000321c:	4cdf2020 	ld1	{v0.16b-v3.16b}, [x1], #64
    st1     {v0.16b-v3.16b}, [x0], #64
    40003220:	4c9f2000 	st1	{v0.16b-v3.16b}, [x0], #64

    sub     x2, x2, #64
    40003224:	d1010042 	sub	x2, x2, #0x40
    cmp     x2, #64
    40003228:	f101005f 	cmp	x2, #0x40
    b.ge    loop64      // if (size >= 64) goto loop64;
    4000322c:	54ffff8a 	b.ge	4000321c <loop64>  // b.tcont

0000000040003230 <return64>:

return64:
    mov     x0, x3
    40003230:	aa0303e0 	mov	x0, x3
    ret
    40003234:	d65f03c0 	ret
    40003238:	d503201f 	nop
    4000323c:	d503201f 	nop

0000000040003240 <_memcpy32>:

// void *_memcpy32(void *dst, void *src, uint64 size);
.global _memcpy32
.align 4
_memcpy32:
    mov     x3, x0
    40003240:	aa0003e3 	mov	x3, x0

    cmp     x2, #32
    40003244:	f100805f 	cmp	x2, #0x20
    b.lt    return32
    40003248:	540000cb 	b.lt	40003260 <return32>  // b.tstop

000000004000324c <loop32>:

loop32:
    ld1     {v0.16b, v1.16b}, [x1], #32
    4000324c:	4cdfa020 	ld1	{v0.16b-v1.16b}, [x1], #32
    st1     {v0.16b, v1.16b}, [x0], #32
    40003250:	4c9fa000 	st1	{v0.16b-v1.16b}, [x0], #32

    sub     x2, x2, #32
    40003254:	d1008042 	sub	x2, x2, #0x20
    cmp     x2, #32
    40003258:	f100805f 	cmp	x2, #0x20
    b.ge    loop32
    4000325c:	54ffff8a 	b.ge	4000324c <loop32>  // b.tcont

0000000040003260 <return32>:

return32:
    mov     x0, x3
    40003260:	aa0303e0 	mov	x0, x3
    ret
    40003264:	d65f03c0 	ret
    40003268:	d503201f 	nop
    4000326c:	d503201f 	nop

0000000040003270 <_memcpy16>:

// void *_memcpy16(void *dst, void *src, uint64 size);
.global _memcpy16
.align 4
_memcpy16:
    mov     x3, x0
    40003270:	aa0003e3 	mov	x3, x0

    cmp     x2, #16
    40003274:	f100405f 	cmp	x2, #0x10
    b.lt    return16
    40003278:	540000cb 	b.lt	40003290 <return16>  // b.tstop

000000004000327c <loop16>:
loop16:
    ld1     {v0.16b}, [x1], #16
    4000327c:	4cdf7020 	ld1	{v0.16b}, [x1], #16
    st1     {v0.16b}, [x0], #16
    40003280:	4c9f7000 	st1	{v0.16b}, [x0], #16

    sub     x2, x2, #16
    40003284:	d1004042 	sub	x2, x2, #0x10
    cmp     x2, #16
    40003288:	f100405f 	cmp	x2, #0x10
    b.ge    loop16
    4000328c:	54ffff8a 	b.ge	4000327c <loop16>  // b.tcont

0000000040003290 <return16>:

return16:
    mov     x0,x3
    40003290:	aa0303e0 	mov	x0, x3
    ret
    40003294:	d65f03c0 	ret
    40003298:	d503201f 	nop
    4000329c:	d503201f 	nop

00000000400032a0 <_memcpy8>:

// void *_memcpy8(void *dst, void *src, uint64 size);
.global _memcpy8
.align 4
_memcpy8:
    mov     x3, x0
    400032a0:	aa0003e3 	mov	x3, x0

    cmp     x2, #8
    400032a4:	f100205f 	cmp	x2, #0x8
    b.lt    return8
    400032a8:	540000cb 	b.lt	400032c0 <return8>  // b.tstop

00000000400032ac <loop8>:

loop8:
    ldr     x4, [x1], #8
    400032ac:	f8408424 	ldr	x4, [x1], #8
    str     x4, [x0], #8
    400032b0:	f8008404 	str	x4, [x0], #8

    sub     x2, x2, #8
    400032b4:	d1002042 	sub	x2, x2, #0x8
    cmp     x2, #8
    400032b8:	f100205f 	cmp	x2, #0x8
    b.ge    loop8
    400032bc:	54ffff8a 	b.ge	400032ac <loop8>  // b.tcont

00000000400032c0 <return8>:

return8:
    mov     x0, x3
    400032c0:	aa0303e0 	mov	x0, x3
    ret
    400032c4:	d65f03c0 	ret
    400032c8:	d503201f 	nop
    400032cc:	d503201f 	nop

00000000400032d0 <_memcpy4>:

// void *_memcpy4(void *dst, void *src, uint64 size);
.global _memcpy4
.align 4
_memcpy4:
    mov     x3, x0
    400032d0:	aa0003e3 	mov	x3, x0

    cmp     x2, #4
    400032d4:	f100105f 	cmp	x2, #0x4
    b.lt    return4
    400032d8:	540000cb 	b.lt	400032f0 <return4>  // b.tstop

00000000400032dc <loop4>:

loop4:
    ldr     w4, [x1], #4
    400032dc:	b8404424 	ldr	w4, [x1], #4
    str     w4, [x0], #4
    400032e0:	b8004404 	str	w4, [x0], #4

    sub     x2, x2, #4
    400032e4:	d1001042 	sub	x2, x2, #0x4
    cmp     x2, #4
    400032e8:	f100105f 	cmp	x2, #0x4
    b.ge    loop4
    400032ec:	54ffff8a 	b.ge	400032dc <loop4>  // b.tcont

00000000400032f0 <return4>:

return4:
    mov     x0, x3
    400032f0:	aa0303e0 	mov	x0, x3
    ret
    400032f4:	d65f03c0 	ret
    400032f8:	d503201f 	nop
    400032fc:	d503201f 	nop

0000000040003300 <_memcpy2>:

// void *_memcpy2(void *dst, void *src, uint64 size);
.global _memcpy2
.align 4
_memcpy2:
    mov     x3, x0
    40003300:	aa0003e3 	mov	x3, x0

    cmp     x2, #2
    40003304:	f100085f 	cmp	x2, #0x2
    b.lt    return2
    40003308:	540000cb 	b.lt	40003320 <return2>  // b.tstop

000000004000330c <loop2>:

loop2:
    ldrh    w4, [x1], #2
    4000330c:	78402424 	ldrh	w4, [x1], #2
    strh    w4, [x0], #2
    40003310:	78002404 	strh	w4, [x0], #2

    sub     x2, x2, #2
    40003314:	d1000842 	sub	x2, x2, #0x2
    cmp     x2, #2
    40003318:	f100085f 	cmp	x2, #0x2
    b.ge    loop2
    4000331c:	54ffff8a 	b.ge	4000330c <loop2>  // b.tcont

0000000040003320 <return2>:

return2:
    mov     x0, x3
    40003320:	aa0303e0 	mov	x0, x3
    ret
    40003324:	d65f03c0 	ret
    40003328:	d503201f 	nop
    4000332c:	d503201f 	nop

0000000040003330 <_memcpy1>:

// void *_memcpy1(void *dst, void *src, uint64 size);
.global _memcpy1
.align 4
_memcpy1:
    mov     x3, x0
    40003330:	aa0003e3 	mov	x3, x0

    cbz     x2, return1
    40003334:	b40000a2 	cbz	x2, 40003348 <return1>

0000000040003338 <loop1>:

loop1:
    ldrb    w4, [x1], #1
    40003338:	38401424 	ldrb	w4, [x1], #1
    strb    w4, [x0], #1
    4000333c:	38001404 	strb	w4, [x0], #1

    subs    x2, x2, #1
    40003340:	f1000442 	subs	x2, x2, #0x1
    b.ne    loop1
    40003344:	54ffffa1 	b.ne	40003338 <loop1>  // b.any

0000000040003348 <return1>:

return1:
    mov     x0, x3
    40003348:	aa0303e0 	mov	x0, x3
    ret    
    4000334c:	d65f03c0 	ret

0000000040003350 <_clean_bss>:
.section .text
.global _clean_bss
.align 2

_clean_bss:
    ldr     x0, =__bss_start
    40003350:	58000240 	ldr	x0, 40003398 <hang+0xc>
    ldr     x1, =__bss_end
    40003354:	58000261 	ldr	x1, 400033a0 <hang+0x14>

    movi    v0.16b, #0
    40003358:	4f00e400 	movi	v0.16b, #0x0
    movi    v1.16b, #0
    4000335c:	4f00e401 	movi	v1.16b, #0x0
    movi    v2.16b, #0
    40003360:	4f00e402 	movi	v2.16b, #0x0
    movi    v3.16b, #0
    40003364:	4f00e403 	movi	v3.16b, #0x0

//  Check 64 byte align
    ands    xzr, x0, #63
    40003368:	f240141f 	tst	x0, #0x3f
    b.ne    hang
    4000336c:	54000101 	b.ne	4000338c <hang>  // b.any

    ands    xzr, x1, #63
    40003370:	f240143f 	tst	x1, #0x3f
    b.ne    hang
    40003374:	540000c1 	b.ne	4000338c <hang>  // b.any

1:
    cmp     x0, x1
    40003378:	eb01001f 	cmp	x0, x1
    b.ge    2f      // pointer of __bss_start >= __bss_end
    4000337c:	5400006a 	b.ge	40003388 <_clean_bss+0x38>  // b.tcont

    st1     {v0.16b, v1.16b, v2.16b, v3.16b}, [x0], #64
    40003380:	4c9f2000 	st1	{v0.16b-v3.16b}, [x0], #64
    b       1b
    40003384:	17fffffd 	b	40003378 <_clean_bss+0x28>
2:
    ret
    40003388:	d65f03c0 	ret

000000004000338c <hang>:

hang:
    wfe
    4000338c:	d503205f 	wfe
    b hang
    40003390:	17ffffff 	b	4000338c <hang>
    40003394:	00000000 	udf	#0
    40003398:	4000a380 	.inst	0x4000a380 ; undefined
    4000339c:	00000000 	udf	#0
    400033a0:	40c0bdc0 	.inst	0x40c0bdc0 ; undefined
	...

00000000400033b0 <_switch_to_el1>:
.section .text
.align 4

.global _switch_to_el1
_switch_to_el1:
 mrs x0, CurrentEL
    400033b0:	d5384240 	mrs	x0, currentel
    lsr x0, x0, #2
    400033b4:	d342fc00 	lsr	x0, x0, #2
    cmp x0, #2
    400033b8:	f100081f 	cmp	x0, #0x2
    b.ne hang
    400033bc:	54000281 	b.ne	4000340c <hang>  // b.any

    ldr x0, =__stack_el1_top
    400033c0:	58000480 	ldr	x0, 40003450 <_el1_entry+0x30>
    msr SP_EL1, x0
    400033c4:	d51c4100 	msr	sp_el1, x0

    /* EL1 AArch64 */
    mov x0, #(1 << 31)
    400033c8:	d2b00000 	mov	x0, #0x80000000            	// #2147483648
    msr HCR_EL2, x0
    400033cc:	d51c1100 	msr	hcr_el2, x0

    adr x0, _el1_vector_table
    400033d0:	1002a180 	adr	x0, 40008800 <_el1_vector_table>
    msr VBAR_EL1, x0
    400033d4:	d518c000 	msr	vbar_el1, x0

    mov x0, #0x3c5
    400033d8:	d28078a0 	mov	x0, #0x3c5                 	// #965
    msr SPSR_EL2, x0
    400033dc:	d51c4000 	msr	spsr_el2, x0

    // Enable simd instructions for EL1
    mov  x0, #(3 << 20)    // FPEN = 0b11
    400033e0:	d2a00600 	mov	x0, #0x300000              	// #3145728
    msr  CPACR_EL1, x0
    400033e4:	d5181040 	msr	cpacr_el1, x0

    ldr x0, =_el1_entry
    400033e8:	58000380 	ldr	x0, 40003458 <_el1_entry+0x38>
    msr ELR_EL2, x0
    400033ec:	d51c4020 	msr	elr_el2, x0

    ldr x0, =__text_start
    400033f0:	58000380 	ldr	x0, 40003460 <_el1_entry+0x40>
    ldr x1, =__bss_end
    400033f4:	580003a1 	ldr	x1, 40003468 <_el1_entry+0x48>
    bl _cache_flush_range
    400033f8:	97fff312 	bl	40000040 <_cache_flush_range>

    dsb sy
    400033fc:	d5033f9f 	dsb	sy
    dsb ish
    40003400:	d5033b9f 	dsb	ish
    isb
    40003404:	d5033fdf 	isb

    eret
    40003408:	d69f03e0 	eret

000000004000340c <hang>:

hang:
    wfe
    4000340c:	d503205f 	wfe
    b hang
    40003410:	17ffffff 	b	4000340c <hang>
    40003414:	d503201f 	nop
    40003418:	d503201f 	nop
    4000341c:	d503201f 	nop

0000000040003420 <_el1_entry>:


.align 4
.global _el1_entry
_el1_entry:
    nop
    40003420:	d503201f 	nop
    mov x0, #1
    40003424:	d2800020 	mov	x0, #0x1                   	// #1
    msr spsel, x0
    40003428:	d5184200 	msr	spsel, x0

    mov x0, #0x00            
    4000342c:	d2800000 	mov	x0, #0x0                   	// #0
    msr MAIR_EL1, x0
    40003430:	d518a200 	msr	mair_el1, x0

    mov x0, #(16)            
    40003434:	d2800200 	mov	x0, #0x10                  	// #16
    msr TCR_EL1, x0
    40003438:	d5182040 	msr	tcr_el1, x0

    mov x0, #(1 << 11)      
    4000343c:	d2810000 	mov	x0, #0x800                 	// #2048
    msr SCTLR_EL1, x0
    40003440:	d5181000 	msr	sctlr_el1, x0
    isb
    40003444:	d5033fdf 	isb

    bl kernel_entry
    40003448:	9400011e 	bl	400038c0 <kernel_entry>
    4000344c:	00000000 	udf	#0
    40003450:	4160c000 	.inst	0x4160c000 ; undefined
    40003454:	00000000 	udf	#0
    40003458:	40003420 	.inst	0x40003420 ; undefined
    4000345c:	00000000 	udf	#0
    40003460:	40000000 	.inst	0x40000000 ; undefined
    40003464:	00000000 	udf	#0
    40003468:	40c0bdc0 	.inst	0x40c0bdc0 ; undefined
    4000346c:	00000000 	udf	#0

0000000040003470 <_panic_exception_save_gpr>:
// FIXME: Implement it inside the exception vectors

.align 4
.global _panic_exception_save_gpr
_panic_exception_save_gpr:
    sub sp, sp, #16
    40003470:	d10043ff 	sub	sp, sp, #0x10
    stp x0, x1, [sp]
    40003474:	a90007e0 	stp	x0, x1, [sp]
    
    ldr x0, =PANIC_REGISTERS
    40003478:	580002c0 	ldr	x0, 400034d0 <_panic_exception_save_gpr+0x60>

    stp x2, x3, [x0, #(1 * 16)]
    4000347c:	a9010c02 	stp	x2, x3, [x0, #16]
    stp x4, x5, [x0, #(2 * 16)]
    40003480:	a9021404 	stp	x4, x5, [x0, #32]
    stp x6, x7, [x0, #(3 * 16)]
    40003484:	a9031c06 	stp	x6, x7, [x0, #48]
    stp x8, x9, [x0, #(4 * 16)]
    40003488:	a9042408 	stp	x8, x9, [x0, #64]
    stp x10, x11, [x0, #(5 * 16)]
    4000348c:	a9052c0a 	stp	x10, x11, [x0, #80]
    stp x12, x13, [x0, #(6 * 16)]
    40003490:	a906340c 	stp	x12, x13, [x0, #96]
    stp x14, x15, [x0, #(7 * 16)]
    40003494:	a9073c0e 	stp	x14, x15, [x0, #112]
    stp x16, x17, [x0, #(8 * 16)]
    40003498:	a9084410 	stp	x16, x17, [x0, #128]
    stp x18, x19, [x0, #(9 * 16)]
    4000349c:	a9094c12 	stp	x18, x19, [x0, #144]
    stp x20, x21, [x0, #(10 * 16)]
    400034a0:	a90a5414 	stp	x20, x21, [x0, #160]
    stp x22, x23, [x0, #(11 * 16)]
    400034a4:	a90b5c16 	stp	x22, x23, [x0, #176]
    stp x24, x25, [x0, #(12 * 16)]
    400034a8:	a90c6418 	stp	x24, x25, [x0, #192]
    stp x26, x27, [x0, #(13 * 16)]
    400034ac:	a90d6c1a 	stp	x26, x27, [x0, #208]
    stp x28, x29, [x0, #(14 * 16)]
    400034b0:	a90e741c 	stp	x28, x29, [x0, #224]
    
    ldp x2, x3, [sp]
    400034b4:	a9400fe2 	ldp	x2, x3, [sp]
    stp x2, x3, [x0]
    400034b8:	a9000c02 	stp	x2, x3, [x0]

    add sp, sp, #16
    400034bc:	910043ff 	add	sp, sp, #0x10

    mov x1, sp
    400034c0:	910003e1 	mov	x1, sp

    stp x30, x1, [x0, #(15 * 16)]
    400034c4:	a90f041e 	stp	x30, x1, [x0, #240]

    ret
    400034c8:	d65f03c0 	ret
    400034cc:	00000000 	udf	#0
    400034d0:	40c0a8b0 	.inst	0x40c0a8b0 ; undefined
	...

00000000400034e0 <GICV3_ARM_ICC_SRE_EL1_write>:

.align 4

.global GICV3_ARM_ICC_SRE_EL1_write
GICV3_ARM_ICC_SRE_EL1_write:
    msr ICC_SRE_EL1, x0
    400034e0:	d518cca0 	msr	icc_sre_el1, x0
    isb
    400034e4:	d5033fdf 	isb
    ret
    400034e8:	d65f03c0 	ret

00000000400034ec <GICV3_ARM_ICC_PMR_EL1_write>:

.global GICV3_ARM_ICC_PMR_EL1_write
GICV3_ARM_ICC_PMR_EL1_write:
    msr ICC_PMR_EL1, x0
    400034ec:	d5184600 	msr	icc_pmr_el1, x0
    isb
    400034f0:	d5033fdf 	isb
    ret
    400034f4:	d65f03c0 	ret

00000000400034f8 <GICV3_ARM_ICC_IGRPEN1_EL1_EL1_write>:

.global GICV3_ARM_ICC_IGRPEN1_EL1_EL1_write
GICV3_ARM_ICC_IGRPEN1_EL1_EL1_write:
    msr ICC_IGRPEN1_EL1, x0
    400034f8:	d518cce0 	msr	icc_igrpen1_el1, x0
    isb
    400034fc:	d5033fdf 	isb
    ret
    40003500:	d65f03c0 	ret

0000000040003504 <GICV3_ARM_ICC_IAR1_EL1_read>:

.global GICV3_ARM_ICC_IAR1_EL1_read
GICV3_ARM_ICC_IAR1_EL1_read:
    mrs x0, ICC_IAR1_EL1
    40003504:	d538cc00 	mrs	x0, icc_iar1_el1
    ret
    40003508:	d65f03c0 	ret

000000004000350c <GICV3_ARM_ICC_EOIR1_EL1_write>:

.global GICV3_ARM_ICC_EOIR1_EL1_write
GICV3_ARM_ICC_EOIR1_EL1_write:
    msr ICC_EOIR1_EL1, x0
    4000350c:	d518cc20 	msr	icc_eoir1_el1, x0
    40003510:	d65f03c0 	ret

0000000040003514 <kernel_init>:

extern kernel_initcall_t __kernel_init_start[];
extern kernel_initcall_t __kernel_init_end[];

void kernel_init(void)
{
    40003514:	a9bb7bfd 	stp	x29, x30, [sp, #-80]!
    40003518:	910003fd 	mov	x29, sp
    4000351c:	f9000bf3 	str	x19, [sp, #16]
	UART_init(UART_ID_2);
    40003520:	52800020 	mov	w0, #0x1                   	// #1
    40003524:	94000f67 	bl	400072c0 <UART_init>

	ARM_exceptions_set_status((ARM_exception_status){
    40003528:	52800020 	mov	w0, #0x1                   	// #1
    4000352c:	33001c13 	bfxil	w19, w0, #0, #8
    40003530:	52800020 	mov	w0, #0x1                   	// #1
    40003534:	33181c13 	bfi	w19, w0, #8, #8
    40003538:	52800020 	mov	w0, #0x1                   	// #1
    4000353c:	33101c13 	bfi	w19, w0, #16, #8
    40003540:	52800020 	mov	w0, #0x1                   	// #1
    40003544:	33081c13 	bfi	w19, w0, #24, #8
    40003548:	2a1303e0 	mov	w0, w19
    4000354c:	940003b8 	bl	4000442c <ARM_exceptions_set_status>
		.irq = true,
		.serror = true,
		.debug = true,
	});

	GICV3_init_distributor();
    40003550:	94000bf5 	bl	40006524 <GICV3_init_distributor>
	GICV3_init_cpu(ARM_get_cpu_affinity().aff0);
    40003554:	940000e4 	bl	400038e4 <ARM_get_cpu_affinity>
    40003558:	53187c00 	lsr	w0, w0, #24
    4000355c:	12001c00 	and	w0, w0, #0xff
    40003560:	92401c00 	and	x0, x0, #0xff
    40003564:	94000bff 	bl	40006560 <GICV3_init_cpu>
	uart_irq_init();
    40003568:	94000c07 	bl	40006584 <uart_irq_init>
		((uintptr)__kernel_init_end & 0x7)) {
		PANIC("kernel_init section not 8 byte aligned");
	}
#endif

	for (kernel_initcall_t *fn = __kernel_init_start; fn < __kernel_init_end;
    4000356c:	f0000020 	adrp	x0, 4000a000 <STDINT_BASE_REPR_CHARS+0x400>
    40003570:	910cc000 	add	x0, x0, #0x330
    40003574:	f90027e0 	str	x0, [sp, #72]
    40003578:	14000007 	b	40003594 <kernel_init+0x80>
		 fn++) {
		(*fn)();
    4000357c:	f94027e0 	ldr	x0, [sp, #72]
    40003580:	f9400000 	ldr	x0, [x0]
    40003584:	d63f0000 	blr	x0
		 fn++) {
    40003588:	f94027e0 	ldr	x0, [sp, #72]
    4000358c:	91002000 	add	x0, x0, #0x8
    40003590:	f90027e0 	str	x0, [sp, #72]
	for (kernel_initcall_t *fn = __kernel_init_start; fn < __kernel_init_end;
    40003594:	f94027e1 	ldr	x1, [sp, #72]
    40003598:	f0000020 	adrp	x0, 4000a000 <STDINT_BASE_REPR_CHARS+0x400>
    4000359c:	910ce000 	add	x0, x0, #0x338
    400035a0:	eb00003f 	cmp	x1, x0
    400035a4:	54fffec3 	b.cc	4000357c <kernel_init+0x68>  // b.lo, b.ul, b.last
	}
}
    400035a8:	d503201f 	nop
    400035ac:	d503201f 	nop
    400035b0:	f9400bf3 	ldr	x19, [sp, #16]
    400035b4:	a8c57bfd 	ldp	x29, x30, [sp], #80
    400035b8:	d65f03c0 	ret

00000000400035bc <handle_RRDY>:
#include <lib/stdint.h>

typedef void (*uart_irq_handler)(UART_ID id);

static void handle_RRDY(UART_ID id)
{
    400035bc:	a9bd7bfd 	stp	x29, x30, [sp, #-48]!
    400035c0:	910003fd 	mov	x29, sp
    400035c4:	b9001fe0 	str	w0, [sp, #28]
	uint8 c;

	while (UART_read(id, &c) == true) {
    400035c8:	14000005 	b	400035dc <handle_RRDY+0x20>
		UART_putc(id, c);
    400035cc:	3940bfe0 	ldrb	w0, [sp, #47]
    400035d0:	2a0003e1 	mov	w1, w0
    400035d4:	b9401fe0 	ldr	w0, [sp, #28]
    400035d8:	94000ef6 	bl	400071b0 <UART_putc>
	while (UART_read(id, &c) == true) {
    400035dc:	9100bfe0 	add	x0, sp, #0x2f
    400035e0:	aa0003e1 	mov	x1, x0
    400035e4:	b9401fe0 	ldr	w0, [sp, #28]
    400035e8:	94000fda 	bl	40007550 <UART_read>
    400035ec:	12001c00 	and	w0, w0, #0xff
    400035f0:	12000000 	and	w0, w0, #0x1
    400035f4:	7100001f 	cmp	w0, #0x0
    400035f8:	54fffea1 	b.ne	400035cc <handle_RRDY+0x10>  // b.any
	}
}
    400035fc:	d503201f 	nop
    40003600:	d503201f 	nop
    40003604:	a8c37bfd 	ldp	x29, x30, [sp], #48
    40003608:	d65f03c0 	ret

000000004000360c <unhandled>:

static void unhandled(UART_ID) { PANIC("Unhandled UART irq"); }
    4000360c:	a9ba7bfd 	stp	x29, x30, [sp, #-96]!
    40003610:	910003fd 	mov	x29, sp
    40003614:	b9003fe0 	str	w0, [sp, #60]
    40003618:	b0000020 	adrp	x0, 40008000 <__vectors_start>
    4000361c:	913f0000 	add	x0, x0, #0xfc0
    40003620:	f90023e0 	str	x0, [sp, #64]
    40003624:	b0000020 	adrp	x0, 40008000 <__vectors_start>
    40003628:	913f6000 	add	x0, x0, #0xfd8
    4000362c:	f90027e0 	str	x0, [sp, #72]
    40003630:	52800260 	mov	w0, #0x13                  	// #19
    40003634:	b90053e0 	str	w0, [sp, #80]
    40003638:	b90057ff 	str	wzr, [sp, #84]
    4000363c:	52800040 	mov	w0, #0x2                   	// #2
    40003640:	b9005be0 	str	w0, [sp, #88]
    40003644:	910043e0 	add	x0, sp, #0x10
    40003648:	910103e1 	add	x1, sp, #0x40
    4000364c:	3dc0003e 	ldr	q30, [x1]
    40003650:	3dc0043f 	ldr	q31, [x1, #16]
    40003654:	3d80001e 	str	q30, [x0]
    40003658:	3d80041f 	str	q31, [x0, #16]
    4000365c:	910043e0 	add	x0, sp, #0x10
    40003660:	940007d6 	bl	400055b8 <set_and_throw_panic>

0000000040003664 <kernel_uart1_irq_handler>:
static const uart_irq_handler UART_IRQ_HANDLERS[UART_IRQ_SRC_COUNT] = {
	[UART_IRQ_SRC_RRDY] = handle_RRDY,
	[1 ... UART_IRQ_SRC_COUNT - 1] = unhandled,
};

void kernel_uart1_irq_handler() { PANIC("Unhandled"); }
    40003664:	a9bb7bfd 	stp	x29, x30, [sp, #-80]!
    40003668:	910003fd 	mov	x29, sp
    4000366c:	d0000020 	adrp	x0, 40009000 <UART_IRQ_HANDLERS+0x8>
    40003670:	91018000 	add	x0, x0, #0x60
    40003674:	f9001be0 	str	x0, [sp, #48]
    40003678:	b0000020 	adrp	x0, 40008000 <__vectors_start>
    4000367c:	913f6000 	add	x0, x0, #0xfd8
    40003680:	f9001fe0 	str	x0, [sp, #56]
    40003684:	52800340 	mov	w0, #0x1a                  	// #26
    40003688:	b90043e0 	str	w0, [sp, #64]
    4000368c:	b90047ff 	str	wzr, [sp, #68]
    40003690:	52800040 	mov	w0, #0x2                   	// #2
    40003694:	b9004be0 	str	w0, [sp, #72]
    40003698:	910043e0 	add	x0, sp, #0x10
    4000369c:	9100c3e1 	add	x1, sp, #0x30
    400036a0:	3dc0003e 	ldr	q30, [x1]
    400036a4:	3dc0043f 	ldr	q31, [x1, #16]
    400036a8:	3d80001e 	str	q30, [x0]
    400036ac:	3d80041f 	str	q31, [x0, #16]
    400036b0:	910043e0 	add	x0, sp, #0x10
    400036b4:	940007c1 	bl	400055b8 <set_and_throw_panic>

00000000400036b8 <kernel_uart2_irq_handler>:

void kernel_uart2_irq_handler()
{
    400036b8:	a9be7bfd 	stp	x29, x30, [sp, #-32]!
    400036bc:	910003fd 	mov	x29, sp
	UART_puts(UART_ID_2, "-");
    400036c0:	d0000020 	adrp	x0, 40009000 <UART_IRQ_HANDLERS+0x8>
    400036c4:	9101c001 	add	x1, x0, #0x70
    400036c8:	52800020 	mov	w0, #0x1                   	// #1
    400036cc:	94000ed3 	bl	40007218 <UART_puts>

	bitfield16 sources = UART_get_irq_sources(UART_ID_2);
    400036d0:	52800020 	mov	w0, #0x1                   	// #1
    400036d4:	94000fbc 	bl	400075c4 <UART_get_irq_sources>
    400036d8:	79002fe0 	strh	w0, [sp, #22]

	for (size_t i = 0; i < UART_IRQ_SRC_COUNT; i++) {
    400036dc:	f9000fff 	str	xzr, [sp, #24]
    400036e0:	14000010 	b	40003720 <kernel_uart2_irq_handler+0x68>
		if (BITFIELD16_GET(sources, i)) {
    400036e4:	79402fe0 	ldrh	w0, [sp, #22]
    400036e8:	f9400fe1 	ldr	x1, [sp, #24]
    400036ec:	1ac12800 	asr	w0, w0, w1
    400036f0:	12000000 	and	w0, w0, #0x1
    400036f4:	7100001f 	cmp	w0, #0x0
    400036f8:	540000e0 	b.eq	40003714 <kernel_uart2_irq_handler+0x5c>  // b.none
			UART_IRQ_HANDLERS[i](UART_ID_2);
    400036fc:	b0000020 	adrp	x0, 40008000 <__vectors_start>
    40003700:	913fe000 	add	x0, x0, #0xff8
    40003704:	f9400fe1 	ldr	x1, [sp, #24]
    40003708:	f8617801 	ldr	x1, [x0, x1, lsl #3]
    4000370c:	52800020 	mov	w0, #0x1                   	// #1
    40003710:	d63f0020 	blr	x1
	for (size_t i = 0; i < UART_IRQ_SRC_COUNT; i++) {
    40003714:	f9400fe0 	ldr	x0, [sp, #24]
    40003718:	91000400 	add	x0, x0, #0x1
    4000371c:	f9000fe0 	str	x0, [sp, #24]
    40003720:	f9400fe0 	ldr	x0, [sp, #24]
    40003724:	f100301f 	cmp	x0, #0xc
    40003728:	54fffde9 	b.ls	400036e4 <kernel_uart2_irq_handler+0x2c>  // b.plast
		}
	}
}
    4000372c:	d503201f 	nop
    40003730:	d503201f 	nop
    40003734:	a8c27bfd 	ldp	x29, x30, [sp], #32
    40003738:	d65f03c0 	ret

000000004000373c <kernel_uart3_irq_handler>:

void kernel_uart3_irq_handler() { PANIC("Unhandled"); }
    4000373c:	a9bb7bfd 	stp	x29, x30, [sp, #-80]!
    40003740:	910003fd 	mov	x29, sp
    40003744:	d0000020 	adrp	x0, 40009000 <UART_IRQ_HANDLERS+0x8>
    40003748:	91018000 	add	x0, x0, #0x60
    4000374c:	f9001be0 	str	x0, [sp, #48]
    40003750:	b0000020 	adrp	x0, 40008000 <__vectors_start>
    40003754:	913f6000 	add	x0, x0, #0xfd8
    40003758:	f9001fe0 	str	x0, [sp, #56]
    4000375c:	52800520 	mov	w0, #0x29                  	// #41
    40003760:	b90043e0 	str	w0, [sp, #64]
    40003764:	b90047ff 	str	wzr, [sp, #68]
    40003768:	52800040 	mov	w0, #0x2                   	// #2
    4000376c:	b9004be0 	str	w0, [sp, #72]
    40003770:	910043e0 	add	x0, sp, #0x10
    40003774:	9100c3e1 	add	x1, sp, #0x30
    40003778:	3dc0003e 	ldr	q30, [x1]
    4000377c:	3dc0043f 	ldr	q31, [x1, #16]
    40003780:	3d80001e 	str	q30, [x0]
    40003784:	3d80041f 	str	q31, [x0, #16]
    40003788:	910043e0 	add	x0, sp, #0x10
    4000378c:	9400078b 	bl	400055b8 <set_and_throw_panic>

0000000040003790 <kernel_uart4_irq_handler>:

void kernel_uart4_irq_handler() { PANIC("Unhandled"); }
    40003790:	a9bb7bfd 	stp	x29, x30, [sp, #-80]!
    40003794:	910003fd 	mov	x29, sp
    40003798:	d0000020 	adrp	x0, 40009000 <UART_IRQ_HANDLERS+0x8>
    4000379c:	91018000 	add	x0, x0, #0x60
    400037a0:	f9001be0 	str	x0, [sp, #48]
    400037a4:	b0000020 	adrp	x0, 40008000 <__vectors_start>
    400037a8:	913f6000 	add	x0, x0, #0xfd8
    400037ac:	f9001fe0 	str	x0, [sp, #56]
    400037b0:	52800560 	mov	w0, #0x2b                  	// #43
    400037b4:	b90043e0 	str	w0, [sp, #64]
    400037b8:	b90047ff 	str	wzr, [sp, #68]
    400037bc:	52800040 	mov	w0, #0x2                   	// #2
    400037c0:	b9004be0 	str	w0, [sp, #72]
    400037c4:	910043e0 	add	x0, sp, #0x10
    400037c8:	9100c3e1 	add	x1, sp, #0x30
    400037cc:	3dc0003e 	ldr	q30, [x1]
    400037d0:	3dc0043f 	ldr	q31, [x1, #16]
    400037d4:	3d80001e 	str	q30, [x0]
    400037d8:	3d80041f 	str	q31, [x0, #16]
    400037dc:	910043e0 	add	x0, sp, #0x10
    400037e0:	94000776 	bl	400055b8 <set_and_throw_panic>

00000000400037e4 <unhandled_irq>:
#include <kernel/irq/irq.h>
#include <lib/stdint.h>

static irq_handler_t KERNEL_IRQ_HANDLER_TABLE[IMX8MP_IRQ_SIZE];

static void unhandled_irq() { PANIC("UNHANDLED IRQ"); }
    400037e4:	a9bb7bfd 	stp	x29, x30, [sp, #-80]!
    400037e8:	910003fd 	mov	x29, sp
    400037ec:	d0000020 	adrp	x0, 40009000 <UART_IRQ_HANDLERS+0x8>
    400037f0:	9101e000 	add	x0, x0, #0x78
    400037f4:	f9001be0 	str	x0, [sp, #48]
    400037f8:	d0000020 	adrp	x0, 40009000 <UART_IRQ_HANDLERS+0x8>
    400037fc:	91022000 	add	x0, x0, #0x88
    40003800:	f9001fe0 	str	x0, [sp, #56]
    40003804:	52800140 	mov	w0, #0xa                   	// #10
    40003808:	b90043e0 	str	w0, [sp, #64]
    4000380c:	b90047ff 	str	wzr, [sp, #68]
    40003810:	52800040 	mov	w0, #0x2                   	// #2
    40003814:	b9004be0 	str	w0, [sp, #72]
    40003818:	910043e0 	add	x0, sp, #0x10
    4000381c:	9100c3e1 	add	x1, sp, #0x30
    40003820:	3dc0003e 	ldr	q30, [x1]
    40003824:	3dc0043f 	ldr	q31, [x1, #16]
    40003828:	3d80001e 	str	q30, [x0]
    4000382c:	3d80041f 	str	q31, [x0, #16]
    40003830:	910043e0 	add	x0, sp, #0x10
    40003834:	94000761 	bl	400055b8 <set_and_throw_panic>

0000000040003838 <init_irq_handler_table>:

static void init_irq_handler_table()
{
    40003838:	d10043ff 	sub	sp, sp, #0x10
	for (size_t i = 0; i < IMX8MP_IRQ_SIZE; i++) {
    4000383c:	f90007ff 	str	xzr, [sp, #8]
    40003840:	1400000a 	b	40003868 <init_irq_handler_table+0x30>
		KERNEL_IRQ_HANDLER_TABLE[i] = unhandled_irq;
    40003844:	f0000020 	adrp	x0, 4000a000 <STDINT_BASE_REPR_CHARS+0x400>
    40003848:	910e0000 	add	x0, x0, #0x380
    4000384c:	f94007e1 	ldr	x1, [sp, #8]
    40003850:	90000002 	adrp	x2, 40003000 <_el1_low_a32_fiq+0x20>
    40003854:	911f9042 	add	x2, x2, #0x7e4
    40003858:	f8217802 	str	x2, [x0, x1, lsl #3]
	for (size_t i = 0; i < IMX8MP_IRQ_SIZE; i++) {
    4000385c:	f94007e0 	ldr	x0, [sp, #8]
    40003860:	91000400 	add	x0, x0, #0x1
    40003864:	f90007e0 	str	x0, [sp, #8]
    40003868:	f94007e0 	ldr	x0, [sp, #8]
    4000386c:	f1027c1f 	cmp	x0, #0x9f
    40003870:	54fffea9 	b.ls	40003844 <init_irq_handler_table+0xc>  // b.plast
	}

	// KERNEL_IRQ_HANDLER_TABLE[IMX8MP_IRQ_UART1] = kernel_uart1_irq_handler;
	KERNEL_IRQ_HANDLER_TABLE[IMX8MP_IRQ_UART2] = kernel_uart2_irq_handler;
    40003874:	f0000020 	adrp	x0, 4000a000 <STDINT_BASE_REPR_CHARS+0x400>
    40003878:	910e0000 	add	x0, x0, #0x380
    4000387c:	90000001 	adrp	x1, 40003000 <_el1_low_a32_fiq+0x20>
    40003880:	911ae021 	add	x1, x1, #0x6b8
    40003884:	f9006c01 	str	x1, [x0, #216]
	// KERNEL_IRQ_HANDLER_TABLE[IMX8MP_IRQ_UART3] = kernel_uart3_irq_handler;
	// KERNEL_IRQ_HANDLER_TABLE[IMX8MP_IRQ_UART4] = kernel_uart4_irq_handler;
}
    40003888:	d503201f 	nop
    4000388c:	910043ff 	add	sp, sp, #0x10
    40003890:	d65f03c0 	ret

0000000040003894 <kernel_handle_irq>:
KERNEL_INITCALL(init_irq_handler_table);

void kernel_handle_irq(imx8mp_irq irqid) { KERNEL_IRQ_HANDLER_TABLE[irqid](); }
    40003894:	a9be7bfd 	stp	x29, x30, [sp, #-32]!
    40003898:	910003fd 	mov	x29, sp
    4000389c:	b9001fe0 	str	w0, [sp, #28]
    400038a0:	f0000020 	adrp	x0, 4000a000 <STDINT_BASE_REPR_CHARS+0x400>
    400038a4:	910e0000 	add	x0, x0, #0x380
    400038a8:	b9401fe1 	ldr	w1, [sp, #28]
    400038ac:	f8617800 	ldr	x0, [x0, x1, lsl #3]
    400038b0:	d63f0000 	blr	x0
    400038b4:	d503201f 	nop
    400038b8:	a8c27bfd 	ldp	x29, x30, [sp], #32
    400038bc:	d65f03c0 	ret

00000000400038c0 <kernel_entry>:
extern uint64 _ARM_HCR_EL2();
extern void _switch_to_el1();

// Main function of the kernel, called by the bootloader (/boot/boot.S)
_Noreturn void kernel_entry()
{
    400038c0:	a9bf7bfd 	stp	x29, x30, [sp, #-16]!
    400038c4:	910003fd 	mov	x29, sp
	kernel_init();
    400038c8:	97ffff13 	bl	40003514 <kernel_init>

	UART_puts(UART_ID_2, "Hello world!\n\r");
    400038cc:	d0000020 	adrp	x0, 40009000 <UART_IRQ_HANDLERS+0x8>
    400038d0:	91028001 	add	x1, x0, #0xa0
    400038d4:	52800020 	mov	w0, #0x1                   	// #1
    400038d8:	94000e50 	bl	40007218 <UART_puts>

	loop {}
    400038dc:	d503201f 	nop
    400038e0:	17ffffff 	b	400038dc <kernel_entry+0x1c>

00000000400038e4 <ARM_get_cpu_affinity>:
#include <arm/sysregs.h>

#include "lib/stdint.h"

ARM_cpu_affinity ARM_get_cpu_affinity()
{
    400038e4:	a9be7bfd 	stp	x29, x30, [sp, #-32]!
    400038e8:	910003fd 	mov	x29, sp
	uint64 v = _ARM_MPIDR_EL1();
    400038ec:	97fff206 	bl	40000104 <_ARM_MPIDR_EL1>
    400038f0:	f9000fe0 	str	x0, [sp, #24]
	ARM_cpu_affinity cpuid = {
		.aff0 = (v & 0xFFUL),
		.aff1 = ((v >> 8) & 0xFFUL),
		.aff2 = ((v >> 16) & 0xFFUL),
		.aff3 = ((v >> 32) & 0xFFUL),
    400038f4:	f9400fe0 	ldr	x0, [sp, #24]
    400038f8:	d360fc00 	lsr	x0, x0, #32
	ARM_cpu_affinity cpuid = {
    400038fc:	12001c00 	and	w0, w0, #0xff
    40003900:	390043e0 	strb	w0, [sp, #16]
		.aff2 = ((v >> 16) & 0xFFUL),
    40003904:	f9400fe0 	ldr	x0, [sp, #24]
    40003908:	d350fc00 	lsr	x0, x0, #16
	ARM_cpu_affinity cpuid = {
    4000390c:	12001c00 	and	w0, w0, #0xff
    40003910:	390047e0 	strb	w0, [sp, #17]
		.aff1 = ((v >> 8) & 0xFFUL),
    40003914:	f9400fe0 	ldr	x0, [sp, #24]
    40003918:	d348fc00 	lsr	x0, x0, #8
	ARM_cpu_affinity cpuid = {
    4000391c:	12001c00 	and	w0, w0, #0xff
    40003920:	39004be0 	strb	w0, [sp, #18]
    40003924:	f9400fe0 	ldr	x0, [sp, #24]
    40003928:	12001c00 	and	w0, w0, #0xff
    4000392c:	39004fe0 	strb	w0, [sp, #19]
	};

	return cpuid;
    40003930:	b94013e0 	ldr	w0, [sp, #16]
}
    40003934:	a8c27bfd 	ldp	x29, x30, [sp], #32
    40003938:	d65f03c0 	ret

000000004000393c <el1_cur_sp0_fiq_handler>:
#include <arm/exceptions/handlers/handlers_macros.h>

    4000393c:	a9bb7bfd 	stp	x29, x30, [sp, #-80]!
    40003940:	910003fd 	mov	x29, sp
    40003944:	d0000020 	adrp	x0, 40009000 <UART_IRQ_HANDLERS+0x8>
    40003948:	9102c000 	add	x0, x0, #0xb0
    4000394c:	f9001be0 	str	x0, [sp, #48]
    40003950:	d0000020 	adrp	x0, 40009000 <UART_IRQ_HANDLERS+0x8>
    40003954:	91034000 	add	x0, x0, #0xd0
    40003958:	f9001fe0 	str	x0, [sp, #56]
    4000395c:	52800060 	mov	w0, #0x3                   	// #3
    40003960:	b90043e0 	str	w0, [sp, #64]
    40003964:	b90047ff 	str	wzr, [sp, #68]
    40003968:	52800020 	mov	w0, #0x1                   	// #1
    4000396c:	b9004be0 	str	w0, [sp, #72]
    40003970:	910043e0 	add	x0, sp, #0x10
    40003974:	9100c3e1 	add	x1, sp, #0x30
    40003978:	3dc0003e 	ldr	q30, [x1]
    4000397c:	3dc0043f 	ldr	q31, [x1, #16]
    40003980:	3d80001e 	str	q30, [x0]
    40003984:	3d80041f 	str	q31, [x0, #16]
    40003988:	910043e0 	add	x0, sp, #0x10
    4000398c:	9400070b 	bl	400055b8 <set_and_throw_panic>

0000000040003990 <el1_low_a32_serror_handler>:
#include <arm/exceptions/handlers/handlers_macros.h>

    40003990:	a9bb7bfd 	stp	x29, x30, [sp, #-80]!
    40003994:	910003fd 	mov	x29, sp
    40003998:	d0000020 	adrp	x0, 40009000 <UART_IRQ_HANDLERS+0x8>
    4000399c:	91042000 	add	x0, x0, #0x108
    400039a0:	f9001be0 	str	x0, [sp, #48]
    400039a4:	d0000020 	adrp	x0, 40009000 <UART_IRQ_HANDLERS+0x8>
    400039a8:	9104a000 	add	x0, x0, #0x128
    400039ac:	f9001fe0 	str	x0, [sp, #56]
    400039b0:	52800060 	mov	w0, #0x3                   	// #3
    400039b4:	b90043e0 	str	w0, [sp, #64]
    400039b8:	b90047ff 	str	wzr, [sp, #68]
    400039bc:	52800020 	mov	w0, #0x1                   	// #1
    400039c0:	b9004be0 	str	w0, [sp, #72]
    400039c4:	910043e0 	add	x0, sp, #0x10
    400039c8:	9100c3e1 	add	x1, sp, #0x30
    400039cc:	3dc0003e 	ldr	q30, [x1]
    400039d0:	3dc0043f 	ldr	q31, [x1, #16]
    400039d4:	3d80001e 	str	q30, [x0]
    400039d8:	3d80041f 	str	q31, [x0, #16]
    400039dc:	910043e0 	add	x0, sp, #0x10
    400039e0:	940006f6 	bl	400055b8 <set_and_throw_panic>

00000000400039e4 <el1_low_a32_fiq_handler>:
#include <arm/exceptions/handlers/handlers_macros.h>

    400039e4:	a9bb7bfd 	stp	x29, x30, [sp, #-80]!
    400039e8:	910003fd 	mov	x29, sp
    400039ec:	d0000020 	adrp	x0, 40009000 <UART_IRQ_HANDLERS+0x8>
    400039f0:	91058000 	add	x0, x0, #0x160
    400039f4:	f9001be0 	str	x0, [sp, #48]
    400039f8:	d0000020 	adrp	x0, 40009000 <UART_IRQ_HANDLERS+0x8>
    400039fc:	91060000 	add	x0, x0, #0x180
    40003a00:	f9001fe0 	str	x0, [sp, #56]
    40003a04:	52800060 	mov	w0, #0x3                   	// #3
    40003a08:	b90043e0 	str	w0, [sp, #64]
    40003a0c:	b90047ff 	str	wzr, [sp, #68]
    40003a10:	52800020 	mov	w0, #0x1                   	// #1
    40003a14:	b9004be0 	str	w0, [sp, #72]
    40003a18:	910043e0 	add	x0, sp, #0x10
    40003a1c:	9100c3e1 	add	x1, sp, #0x30
    40003a20:	3dc0003e 	ldr	q30, [x1]
    40003a24:	3dc0043f 	ldr	q31, [x1, #16]
    40003a28:	3d80001e 	str	q30, [x0]
    40003a2c:	3d80041f 	str	q31, [x0, #16]
    40003a30:	910043e0 	add	x0, sp, #0x10
    40003a34:	940006e1 	bl	400055b8 <set_and_throw_panic>

0000000040003a38 <el1_low_a64_sync_handler>:
#include <arm/exceptions/handlers/handlers_macros.h>

    40003a38:	a9bb7bfd 	stp	x29, x30, [sp, #-80]!
    40003a3c:	910003fd 	mov	x29, sp
    40003a40:	d0000020 	adrp	x0, 40009000 <UART_IRQ_HANDLERS+0x8>
    40003a44:	9106e000 	add	x0, x0, #0x1b8
    40003a48:	f9001be0 	str	x0, [sp, #48]
    40003a4c:	d0000020 	adrp	x0, 40009000 <UART_IRQ_HANDLERS+0x8>
    40003a50:	91076000 	add	x0, x0, #0x1d8
    40003a54:	f9001fe0 	str	x0, [sp, #56]
    40003a58:	52800060 	mov	w0, #0x3                   	// #3
    40003a5c:	b90043e0 	str	w0, [sp, #64]
    40003a60:	b90047ff 	str	wzr, [sp, #68]
    40003a64:	52800020 	mov	w0, #0x1                   	// #1
    40003a68:	b9004be0 	str	w0, [sp, #72]
    40003a6c:	910043e0 	add	x0, sp, #0x10
    40003a70:	9100c3e1 	add	x1, sp, #0x30
    40003a74:	3dc0003e 	ldr	q30, [x1]
    40003a78:	3dc0043f 	ldr	q31, [x1, #16]
    40003a7c:	3d80001e 	str	q30, [x0]
    40003a80:	3d80041f 	str	q31, [x0, #16]
    40003a84:	910043e0 	add	x0, sp, #0x10
    40003a88:	940006cc 	bl	400055b8 <set_and_throw_panic>

0000000040003a8c <el1_cur_spx_sync_handler>:
#include <arm/exceptions/handlers/handlers_macros.h>

    40003a8c:	a9bb7bfd 	stp	x29, x30, [sp, #-80]!
    40003a90:	910003fd 	mov	x29, sp
    40003a94:	d0000020 	adrp	x0, 40009000 <UART_IRQ_HANDLERS+0x8>
    40003a98:	91084000 	add	x0, x0, #0x210
    40003a9c:	f9001be0 	str	x0, [sp, #48]
    40003aa0:	d0000020 	adrp	x0, 40009000 <UART_IRQ_HANDLERS+0x8>
    40003aa4:	9108c000 	add	x0, x0, #0x230
    40003aa8:	f9001fe0 	str	x0, [sp, #56]
    40003aac:	52800060 	mov	w0, #0x3                   	// #3
    40003ab0:	b90043e0 	str	w0, [sp, #64]
    40003ab4:	b90047ff 	str	wzr, [sp, #68]
    40003ab8:	52800020 	mov	w0, #0x1                   	// #1
    40003abc:	b9004be0 	str	w0, [sp, #72]
    40003ac0:	910043e0 	add	x0, sp, #0x10
    40003ac4:	9100c3e1 	add	x1, sp, #0x30
    40003ac8:	3dc0003e 	ldr	q30, [x1]
    40003acc:	3dc0043f 	ldr	q31, [x1, #16]
    40003ad0:	3d80001e 	str	q30, [x0]
    40003ad4:	3d80041f 	str	q31, [x0, #16]
    40003ad8:	910043e0 	add	x0, sp, #0x10
    40003adc:	940006b7 	bl	400055b8 <set_and_throw_panic>

0000000040003ae0 <el1_cur_spx_fiq_handler>:
#include <arm/exceptions/handlers/handlers_macros.h>

    40003ae0:	a9bb7bfd 	stp	x29, x30, [sp, #-80]!
    40003ae4:	910003fd 	mov	x29, sp
    40003ae8:	d0000020 	adrp	x0, 40009000 <UART_IRQ_HANDLERS+0x8>
    40003aec:	9109a000 	add	x0, x0, #0x268
    40003af0:	f9001be0 	str	x0, [sp, #48]
    40003af4:	d0000020 	adrp	x0, 40009000 <UART_IRQ_HANDLERS+0x8>
    40003af8:	910a2000 	add	x0, x0, #0x288
    40003afc:	f9001fe0 	str	x0, [sp, #56]
    40003b00:	52800060 	mov	w0, #0x3                   	// #3
    40003b04:	b90043e0 	str	w0, [sp, #64]
    40003b08:	b90047ff 	str	wzr, [sp, #68]
    40003b0c:	52800020 	mov	w0, #0x1                   	// #1
    40003b10:	b9004be0 	str	w0, [sp, #72]
    40003b14:	910043e0 	add	x0, sp, #0x10
    40003b18:	9100c3e1 	add	x1, sp, #0x30
    40003b1c:	3dc0003e 	ldr	q30, [x1]
    40003b20:	3dc0043f 	ldr	q31, [x1, #16]
    40003b24:	3d80001e 	str	q30, [x0]
    40003b28:	3d80041f 	str	q31, [x0, #16]
    40003b2c:	910043e0 	add	x0, sp, #0x10
    40003b30:	940006a2 	bl	400055b8 <set_and_throw_panic>

0000000040003b34 <el1_cur_spx_irq_handler>:
#include <drivers/uart/uart.h>
#include <kernel/irq/irq.h>
#include <lib/string.h>

void el1_cur_spx_irq_handler(void)
{
    40003b34:	a9be7bfd 	stp	x29, x30, [sp, #-32]!
    40003b38:	910003fd 	mov	x29, sp
	uint64 intid = GICV3_get_intid_el1();
    40003b3c:	94000aa5 	bl	400065d0 <GICV3_get_intid_el1>
    40003b40:	f9000fe0 	str	x0, [sp, #24]

	kernel_handle_irq(GICV3_imx8mp_irq_from_intid(intid));
    40003b44:	f9400fe0 	ldr	x0, [sp, #24]
    40003b48:	94000aa8 	bl	400065e8 <GICV3_imx8mp_irq_from_intid>
    40003b4c:	97ffff52 	bl	40003894 <kernel_handle_irq>

	GICV3_ack_intid_el1(intid);
    40003b50:	f9400fe0 	ldr	x0, [sp, #24]
    40003b54:	94000aea 	bl	400066fc <GICV3_ack_intid_el1>
}
    40003b58:	d503201f 	nop
    40003b5c:	a8c27bfd 	ldp	x29, x30, [sp], #32
    40003b60:	d65f03c0 	ret

0000000040003b64 <el1_cur_spx_serror_handler>:
#include <arm/exceptions/handlers/handlers_macros.h>

    40003b64:	a9bb7bfd 	stp	x29, x30, [sp, #-80]!
    40003b68:	910003fd 	mov	x29, sp
    40003b6c:	d0000020 	adrp	x0, 40009000 <UART_IRQ_HANDLERS+0x8>
    40003b70:	910b0000 	add	x0, x0, #0x2c0
    40003b74:	f9001be0 	str	x0, [sp, #48]
    40003b78:	d0000020 	adrp	x0, 40009000 <UART_IRQ_HANDLERS+0x8>
    40003b7c:	910b8000 	add	x0, x0, #0x2e0
    40003b80:	f9001fe0 	str	x0, [sp, #56]
    40003b84:	52800060 	mov	w0, #0x3                   	// #3
    40003b88:	b90043e0 	str	w0, [sp, #64]
    40003b8c:	b90047ff 	str	wzr, [sp, #68]
    40003b90:	52800020 	mov	w0, #0x1                   	// #1
    40003b94:	b9004be0 	str	w0, [sp, #72]
    40003b98:	910043e0 	add	x0, sp, #0x10
    40003b9c:	9100c3e1 	add	x1, sp, #0x30
    40003ba0:	3dc0003e 	ldr	q30, [x1]
    40003ba4:	3dc0043f 	ldr	q31, [x1, #16]
    40003ba8:	3d80001e 	str	q30, [x0]
    40003bac:	3d80041f 	str	q31, [x0, #16]
    40003bb0:	910043e0 	add	x0, sp, #0x10
    40003bb4:	94000681 	bl	400055b8 <set_and_throw_panic>

0000000040003bb8 <el1_low_a32_irq_handler>:
#include <arm/exceptions/handlers/handlers_macros.h>

    40003bb8:	a9bb7bfd 	stp	x29, x30, [sp, #-80]!
    40003bbc:	910003fd 	mov	x29, sp
    40003bc0:	d0000020 	adrp	x0, 40009000 <UART_IRQ_HANDLERS+0x8>
    40003bc4:	910c6000 	add	x0, x0, #0x318
    40003bc8:	f9001be0 	str	x0, [sp, #48]
    40003bcc:	d0000020 	adrp	x0, 40009000 <UART_IRQ_HANDLERS+0x8>
    40003bd0:	910ce000 	add	x0, x0, #0x338
    40003bd4:	f9001fe0 	str	x0, [sp, #56]
    40003bd8:	52800060 	mov	w0, #0x3                   	// #3
    40003bdc:	b90043e0 	str	w0, [sp, #64]
    40003be0:	b90047ff 	str	wzr, [sp, #68]
    40003be4:	52800020 	mov	w0, #0x1                   	// #1
    40003be8:	b9004be0 	str	w0, [sp, #72]
    40003bec:	910043e0 	add	x0, sp, #0x10
    40003bf0:	9100c3e1 	add	x1, sp, #0x30
    40003bf4:	3dc0003e 	ldr	q30, [x1]
    40003bf8:	3dc0043f 	ldr	q31, [x1, #16]
    40003bfc:	3d80001e 	str	q30, [x0]
    40003c00:	3d80041f 	str	q31, [x0, #16]
    40003c04:	910043e0 	add	x0, sp, #0x10
    40003c08:	9400066c 	bl	400055b8 <set_and_throw_panic>

0000000040003c0c <el1_low_a64_fiq_handler>:
#include <arm/exceptions/handlers/handlers_macros.h>

    40003c0c:	a9bb7bfd 	stp	x29, x30, [sp, #-80]!
    40003c10:	910003fd 	mov	x29, sp
    40003c14:	d0000020 	adrp	x0, 40009000 <UART_IRQ_HANDLERS+0x8>
    40003c18:	910dc000 	add	x0, x0, #0x370
    40003c1c:	f9001be0 	str	x0, [sp, #48]
    40003c20:	d0000020 	adrp	x0, 40009000 <UART_IRQ_HANDLERS+0x8>
    40003c24:	910e4000 	add	x0, x0, #0x390
    40003c28:	f9001fe0 	str	x0, [sp, #56]
    40003c2c:	52800060 	mov	w0, #0x3                   	// #3
    40003c30:	b90043e0 	str	w0, [sp, #64]
    40003c34:	b90047ff 	str	wzr, [sp, #68]
    40003c38:	52800020 	mov	w0, #0x1                   	// #1
    40003c3c:	b9004be0 	str	w0, [sp, #72]
    40003c40:	910043e0 	add	x0, sp, #0x10
    40003c44:	9100c3e1 	add	x1, sp, #0x30
    40003c48:	3dc0003e 	ldr	q30, [x1]
    40003c4c:	3dc0043f 	ldr	q31, [x1, #16]
    40003c50:	3d80001e 	str	q30, [x0]
    40003c54:	3d80041f 	str	q31, [x0, #16]
    40003c58:	910043e0 	add	x0, sp, #0x10
    40003c5c:	94000657 	bl	400055b8 <set_and_throw_panic>

0000000040003c60 <el1_low_a64_irq_handler>:
#include <arm/exceptions/handlers/handlers_macros.h>

    40003c60:	a9bb7bfd 	stp	x29, x30, [sp, #-80]!
    40003c64:	910003fd 	mov	x29, sp
    40003c68:	d0000020 	adrp	x0, 40009000 <UART_IRQ_HANDLERS+0x8>
    40003c6c:	910f2000 	add	x0, x0, #0x3c8
    40003c70:	f9001be0 	str	x0, [sp, #48]
    40003c74:	d0000020 	adrp	x0, 40009000 <UART_IRQ_HANDLERS+0x8>
    40003c78:	910fa000 	add	x0, x0, #0x3e8
    40003c7c:	f9001fe0 	str	x0, [sp, #56]
    40003c80:	52800060 	mov	w0, #0x3                   	// #3
    40003c84:	b90043e0 	str	w0, [sp, #64]
    40003c88:	b90047ff 	str	wzr, [sp, #68]
    40003c8c:	52800020 	mov	w0, #0x1                   	// #1
    40003c90:	b9004be0 	str	w0, [sp, #72]
    40003c94:	910043e0 	add	x0, sp, #0x10
    40003c98:	9100c3e1 	add	x1, sp, #0x30
    40003c9c:	3dc0003e 	ldr	q30, [x1]
    40003ca0:	3dc0043f 	ldr	q31, [x1, #16]
    40003ca4:	3d80001e 	str	q30, [x0]
    40003ca8:	3d80041f 	str	q31, [x0, #16]
    40003cac:	910043e0 	add	x0, sp, #0x10
    40003cb0:	94000642 	bl	400055b8 <set_and_throw_panic>

0000000040003cb4 <el1_cur_sp0_sync_handler>:
#include <arm/exceptions/handlers/handlers_macros.h>

    40003cb4:	a9bb7bfd 	stp	x29, x30, [sp, #-80]!
    40003cb8:	910003fd 	mov	x29, sp
    40003cbc:	d0000020 	adrp	x0, 40009000 <UART_IRQ_HANDLERS+0x8>
    40003cc0:	91108000 	add	x0, x0, #0x420
    40003cc4:	f9001be0 	str	x0, [sp, #48]
    40003cc8:	d0000020 	adrp	x0, 40009000 <UART_IRQ_HANDLERS+0x8>
    40003ccc:	91110000 	add	x0, x0, #0x440
    40003cd0:	f9001fe0 	str	x0, [sp, #56]
    40003cd4:	52800060 	mov	w0, #0x3                   	// #3
    40003cd8:	b90043e0 	str	w0, [sp, #64]
    40003cdc:	b90047ff 	str	wzr, [sp, #68]
    40003ce0:	52800020 	mov	w0, #0x1                   	// #1
    40003ce4:	b9004be0 	str	w0, [sp, #72]
    40003ce8:	910043e0 	add	x0, sp, #0x10
    40003cec:	9100c3e1 	add	x1, sp, #0x30
    40003cf0:	3dc0003e 	ldr	q30, [x1]
    40003cf4:	3dc0043f 	ldr	q31, [x1, #16]
    40003cf8:	3d80001e 	str	q30, [x0]
    40003cfc:	3d80041f 	str	q31, [x0, #16]
    40003d00:	910043e0 	add	x0, sp, #0x10
    40003d04:	9400062d 	bl	400055b8 <set_and_throw_panic>

0000000040003d08 <el1_cur_sp0_irq_handler>:
#include <arm/exceptions/handlers/handlers_macros.h>

    40003d08:	a9bb7bfd 	stp	x29, x30, [sp, #-80]!
    40003d0c:	910003fd 	mov	x29, sp
    40003d10:	d0000020 	adrp	x0, 40009000 <UART_IRQ_HANDLERS+0x8>
    40003d14:	9111e000 	add	x0, x0, #0x478
    40003d18:	f9001be0 	str	x0, [sp, #48]
    40003d1c:	d0000020 	adrp	x0, 40009000 <UART_IRQ_HANDLERS+0x8>
    40003d20:	91126000 	add	x0, x0, #0x498
    40003d24:	f9001fe0 	str	x0, [sp, #56]
    40003d28:	52800060 	mov	w0, #0x3                   	// #3
    40003d2c:	b90043e0 	str	w0, [sp, #64]
    40003d30:	b90047ff 	str	wzr, [sp, #68]
    40003d34:	52800020 	mov	w0, #0x1                   	// #1
    40003d38:	b9004be0 	str	w0, [sp, #72]
    40003d3c:	910043e0 	add	x0, sp, #0x10
    40003d40:	9100c3e1 	add	x1, sp, #0x30
    40003d44:	3dc0003e 	ldr	q30, [x1]
    40003d48:	3dc0043f 	ldr	q31, [x1, #16]
    40003d4c:	3d80001e 	str	q30, [x0]
    40003d50:	3d80041f 	str	q31, [x0, #16]
    40003d54:	910043e0 	add	x0, sp, #0x10
    40003d58:	94000618 	bl	400055b8 <set_and_throw_panic>

0000000040003d5c <el1_low_a64_serror_handler>:
#include <arm/exceptions/handlers/handlers_macros.h>

    40003d5c:	a9bb7bfd 	stp	x29, x30, [sp, #-80]!
    40003d60:	910003fd 	mov	x29, sp
    40003d64:	d0000020 	adrp	x0, 40009000 <UART_IRQ_HANDLERS+0x8>
    40003d68:	91134000 	add	x0, x0, #0x4d0
    40003d6c:	f9001be0 	str	x0, [sp, #48]
    40003d70:	d0000020 	adrp	x0, 40009000 <UART_IRQ_HANDLERS+0x8>
    40003d74:	9113c000 	add	x0, x0, #0x4f0
    40003d78:	f9001fe0 	str	x0, [sp, #56]
    40003d7c:	52800060 	mov	w0, #0x3                   	// #3
    40003d80:	b90043e0 	str	w0, [sp, #64]
    40003d84:	b90047ff 	str	wzr, [sp, #68]
    40003d88:	52800020 	mov	w0, #0x1                   	// #1
    40003d8c:	b9004be0 	str	w0, [sp, #72]
    40003d90:	910043e0 	add	x0, sp, #0x10
    40003d94:	9100c3e1 	add	x1, sp, #0x30
    40003d98:	3dc0003e 	ldr	q30, [x1]
    40003d9c:	3dc0043f 	ldr	q31, [x1, #16]
    40003da0:	3d80001e 	str	q30, [x0]
    40003da4:	3d80041f 	str	q31, [x0, #16]
    40003da8:	910043e0 	add	x0, sp, #0x10
    40003dac:	94000603 	bl	400055b8 <set_and_throw_panic>

0000000040003db0 <el1_low_a32_sync_handler>:
#include <arm/exceptions/handlers/handlers_macros.h>

    40003db0:	a9bb7bfd 	stp	x29, x30, [sp, #-80]!
    40003db4:	910003fd 	mov	x29, sp
    40003db8:	d0000020 	adrp	x0, 40009000 <UART_IRQ_HANDLERS+0x8>
    40003dbc:	9114a000 	add	x0, x0, #0x528
    40003dc0:	f9001be0 	str	x0, [sp, #48]
    40003dc4:	d0000020 	adrp	x0, 40009000 <UART_IRQ_HANDLERS+0x8>
    40003dc8:	91152000 	add	x0, x0, #0x548
    40003dcc:	f9001fe0 	str	x0, [sp, #56]
    40003dd0:	52800060 	mov	w0, #0x3                   	// #3
    40003dd4:	b90043e0 	str	w0, [sp, #64]
    40003dd8:	b90047ff 	str	wzr, [sp, #68]
    40003ddc:	52800020 	mov	w0, #0x1                   	// #1
    40003de0:	b9004be0 	str	w0, [sp, #72]
    40003de4:	910043e0 	add	x0, sp, #0x10
    40003de8:	9100c3e1 	add	x1, sp, #0x30
    40003dec:	3dc0003e 	ldr	q30, [x1]
    40003df0:	3dc0043f 	ldr	q31, [x1, #16]
    40003df4:	3d80001e 	str	q30, [x0]
    40003df8:	3d80041f 	str	q31, [x0, #16]
    40003dfc:	910043e0 	add	x0, sp, #0x10
    40003e00:	940005ee 	bl	400055b8 <set_and_throw_panic>

0000000040003e04 <el1_cur_sp0_serror_handler>:
#include <arm/exceptions/handlers/handlers_macros.h>

    40003e04:	a9bb7bfd 	stp	x29, x30, [sp, #-80]!
    40003e08:	910003fd 	mov	x29, sp
    40003e0c:	d0000020 	adrp	x0, 40009000 <UART_IRQ_HANDLERS+0x8>
    40003e10:	91160000 	add	x0, x0, #0x580
    40003e14:	f9001be0 	str	x0, [sp, #48]
    40003e18:	d0000020 	adrp	x0, 40009000 <UART_IRQ_HANDLERS+0x8>
    40003e1c:	91168000 	add	x0, x0, #0x5a0
    40003e20:	f9001fe0 	str	x0, [sp, #56]
    40003e24:	52800060 	mov	w0, #0x3                   	// #3
    40003e28:	b90043e0 	str	w0, [sp, #64]
    40003e2c:	b90047ff 	str	wzr, [sp, #68]
    40003e30:	52800020 	mov	w0, #0x1                   	// #1
    40003e34:	b9004be0 	str	w0, [sp, #72]
    40003e38:	910043e0 	add	x0, sp, #0x10
    40003e3c:	9100c3e1 	add	x1, sp, #0x30
    40003e40:	3dc0003e 	ldr	q30, [x1]
    40003e44:	3dc0043f 	ldr	q31, [x1, #16]
    40003e48:	3d80001e 	str	q30, [x0]
    40003e4c:	3d80041f 	str	q31, [x0, #16]
    40003e50:	910043e0 	add	x0, sp, #0x10
    40003e54:	940005d9 	bl	400055b8 <set_and_throw_panic>

0000000040003e58 <el2_low_a32_serror_handler>:
#include <arm/exceptions/handlers/handlers_macros.h>

    40003e58:	a9bb7bfd 	stp	x29, x30, [sp, #-80]!
    40003e5c:	910003fd 	mov	x29, sp
    40003e60:	d0000020 	adrp	x0, 40009000 <UART_IRQ_HANDLERS+0x8>
    40003e64:	91176000 	add	x0, x0, #0x5d8
    40003e68:	f9001be0 	str	x0, [sp, #48]
    40003e6c:	d0000020 	adrp	x0, 40009000 <UART_IRQ_HANDLERS+0x8>
    40003e70:	9117e000 	add	x0, x0, #0x5f8
    40003e74:	f9001fe0 	str	x0, [sp, #56]
    40003e78:	52800060 	mov	w0, #0x3                   	// #3
    40003e7c:	b90043e0 	str	w0, [sp, #64]
    40003e80:	b90047ff 	str	wzr, [sp, #68]
    40003e84:	52800020 	mov	w0, #0x1                   	// #1
    40003e88:	b9004be0 	str	w0, [sp, #72]
    40003e8c:	910043e0 	add	x0, sp, #0x10
    40003e90:	9100c3e1 	add	x1, sp, #0x30
    40003e94:	3dc0003e 	ldr	q30, [x1]
    40003e98:	3dc0043f 	ldr	q31, [x1, #16]
    40003e9c:	3d80001e 	str	q30, [x0]
    40003ea0:	3d80041f 	str	q31, [x0, #16]
    40003ea4:	910043e0 	add	x0, sp, #0x10
    40003ea8:	940005c4 	bl	400055b8 <set_and_throw_panic>

0000000040003eac <el2_cur_spx_serror_handler>:
#include <arm/exceptions/handlers/handlers_macros.h>

    40003eac:	a9bb7bfd 	stp	x29, x30, [sp, #-80]!
    40003eb0:	910003fd 	mov	x29, sp
    40003eb4:	d0000020 	adrp	x0, 40009000 <UART_IRQ_HANDLERS+0x8>
    40003eb8:	9118c000 	add	x0, x0, #0x630
    40003ebc:	f9001be0 	str	x0, [sp, #48]
    40003ec0:	d0000020 	adrp	x0, 40009000 <UART_IRQ_HANDLERS+0x8>
    40003ec4:	91194000 	add	x0, x0, #0x650
    40003ec8:	f9001fe0 	str	x0, [sp, #56]
    40003ecc:	52800060 	mov	w0, #0x3                   	// #3
    40003ed0:	b90043e0 	str	w0, [sp, #64]
    40003ed4:	b90047ff 	str	wzr, [sp, #68]
    40003ed8:	52800020 	mov	w0, #0x1                   	// #1
    40003edc:	b9004be0 	str	w0, [sp, #72]
    40003ee0:	910043e0 	add	x0, sp, #0x10
    40003ee4:	9100c3e1 	add	x1, sp, #0x30
    40003ee8:	3dc0003e 	ldr	q30, [x1]
    40003eec:	3dc0043f 	ldr	q31, [x1, #16]
    40003ef0:	3d80001e 	str	q30, [x0]
    40003ef4:	3d80041f 	str	q31, [x0, #16]
    40003ef8:	910043e0 	add	x0, sp, #0x10
    40003efc:	940005af 	bl	400055b8 <set_and_throw_panic>

0000000040003f00 <el2_low_a64_serror_handler>:
#include <arm/exceptions/handlers/handlers_macros.h>

    40003f00:	a9bb7bfd 	stp	x29, x30, [sp, #-80]!
    40003f04:	910003fd 	mov	x29, sp
    40003f08:	d0000020 	adrp	x0, 40009000 <UART_IRQ_HANDLERS+0x8>
    40003f0c:	911a2000 	add	x0, x0, #0x688
    40003f10:	f9001be0 	str	x0, [sp, #48]
    40003f14:	d0000020 	adrp	x0, 40009000 <UART_IRQ_HANDLERS+0x8>
    40003f18:	911aa000 	add	x0, x0, #0x6a8
    40003f1c:	f9001fe0 	str	x0, [sp, #56]
    40003f20:	52800060 	mov	w0, #0x3                   	// #3
    40003f24:	b90043e0 	str	w0, [sp, #64]
    40003f28:	b90047ff 	str	wzr, [sp, #68]
    40003f2c:	52800020 	mov	w0, #0x1                   	// #1
    40003f30:	b9004be0 	str	w0, [sp, #72]
    40003f34:	910043e0 	add	x0, sp, #0x10
    40003f38:	9100c3e1 	add	x1, sp, #0x30
    40003f3c:	3dc0003e 	ldr	q30, [x1]
    40003f40:	3dc0043f 	ldr	q31, [x1, #16]
    40003f44:	3d80001e 	str	q30, [x0]
    40003f48:	3d80041f 	str	q31, [x0, #16]
    40003f4c:	910043e0 	add	x0, sp, #0x10
    40003f50:	9400059a 	bl	400055b8 <set_and_throw_panic>

0000000040003f54 <el2_low_a64_sync_handler>:
#include <arm/exceptions/handlers/handlers_macros.h>

    40003f54:	a9bb7bfd 	stp	x29, x30, [sp, #-80]!
    40003f58:	910003fd 	mov	x29, sp
    40003f5c:	d0000020 	adrp	x0, 40009000 <UART_IRQ_HANDLERS+0x8>
    40003f60:	911b8000 	add	x0, x0, #0x6e0
    40003f64:	f9001be0 	str	x0, [sp, #48]
    40003f68:	d0000020 	adrp	x0, 40009000 <UART_IRQ_HANDLERS+0x8>
    40003f6c:	911c0000 	add	x0, x0, #0x700
    40003f70:	f9001fe0 	str	x0, [sp, #56]
    40003f74:	52800060 	mov	w0, #0x3                   	// #3
    40003f78:	b90043e0 	str	w0, [sp, #64]
    40003f7c:	b90047ff 	str	wzr, [sp, #68]
    40003f80:	52800020 	mov	w0, #0x1                   	// #1
    40003f84:	b9004be0 	str	w0, [sp, #72]
    40003f88:	910043e0 	add	x0, sp, #0x10
    40003f8c:	9100c3e1 	add	x1, sp, #0x30
    40003f90:	3dc0003e 	ldr	q30, [x1]
    40003f94:	3dc0043f 	ldr	q31, [x1, #16]
    40003f98:	3d80001e 	str	q30, [x0]
    40003f9c:	3d80041f 	str	q31, [x0, #16]
    40003fa0:	910043e0 	add	x0, sp, #0x10
    40003fa4:	94000585 	bl	400055b8 <set_and_throw_panic>

0000000040003fa8 <el2_cur_sp0_irq_handler>:
#include <arm/exceptions/handlers/handlers_macros.h>

    40003fa8:	a9bb7bfd 	stp	x29, x30, [sp, #-80]!
    40003fac:	910003fd 	mov	x29, sp
    40003fb0:	d0000020 	adrp	x0, 40009000 <UART_IRQ_HANDLERS+0x8>
    40003fb4:	911ce000 	add	x0, x0, #0x738
    40003fb8:	f9001be0 	str	x0, [sp, #48]
    40003fbc:	d0000020 	adrp	x0, 40009000 <UART_IRQ_HANDLERS+0x8>
    40003fc0:	911d6000 	add	x0, x0, #0x758
    40003fc4:	f9001fe0 	str	x0, [sp, #56]
    40003fc8:	52800060 	mov	w0, #0x3                   	// #3
    40003fcc:	b90043e0 	str	w0, [sp, #64]
    40003fd0:	b90047ff 	str	wzr, [sp, #68]
    40003fd4:	52800020 	mov	w0, #0x1                   	// #1
    40003fd8:	b9004be0 	str	w0, [sp, #72]
    40003fdc:	910043e0 	add	x0, sp, #0x10
    40003fe0:	9100c3e1 	add	x1, sp, #0x30
    40003fe4:	3dc0003e 	ldr	q30, [x1]
    40003fe8:	3dc0043f 	ldr	q31, [x1, #16]
    40003fec:	3d80001e 	str	q30, [x0]
    40003ff0:	3d80041f 	str	q31, [x0, #16]
    40003ff4:	910043e0 	add	x0, sp, #0x10
    40003ff8:	94000570 	bl	400055b8 <set_and_throw_panic>

0000000040003ffc <el2_cur_sp0_serror_handler>:
#include <arm/exceptions/handlers/handlers_macros.h>

    40003ffc:	a9bb7bfd 	stp	x29, x30, [sp, #-80]!
    40004000:	910003fd 	mov	x29, sp
    40004004:	b0000020 	adrp	x0, 40009000 <UART_IRQ_HANDLERS+0x8>
    40004008:	911e4000 	add	x0, x0, #0x790
    4000400c:	f9001be0 	str	x0, [sp, #48]
    40004010:	b0000020 	adrp	x0, 40009000 <UART_IRQ_HANDLERS+0x8>
    40004014:	911ec000 	add	x0, x0, #0x7b0
    40004018:	f9001fe0 	str	x0, [sp, #56]
    4000401c:	52800060 	mov	w0, #0x3                   	// #3
    40004020:	b90043e0 	str	w0, [sp, #64]
    40004024:	b90047ff 	str	wzr, [sp, #68]
    40004028:	52800020 	mov	w0, #0x1                   	// #1
    4000402c:	b9004be0 	str	w0, [sp, #72]
    40004030:	910043e0 	add	x0, sp, #0x10
    40004034:	9100c3e1 	add	x1, sp, #0x30
    40004038:	3dc0003e 	ldr	q30, [x1]
    4000403c:	3dc0043f 	ldr	q31, [x1, #16]
    40004040:	3d80001e 	str	q30, [x0]
    40004044:	3d80041f 	str	q31, [x0, #16]
    40004048:	910043e0 	add	x0, sp, #0x10
    4000404c:	9400055b 	bl	400055b8 <set_and_throw_panic>

0000000040004050 <el2_low_a64_irq_handler>:
#include <arm/exceptions/handlers/handlers_macros.h>

    40004050:	a9bb7bfd 	stp	x29, x30, [sp, #-80]!
    40004054:	910003fd 	mov	x29, sp
    40004058:	b0000020 	adrp	x0, 40009000 <UART_IRQ_HANDLERS+0x8>
    4000405c:	911fa000 	add	x0, x0, #0x7e8
    40004060:	f9001be0 	str	x0, [sp, #48]
    40004064:	b0000020 	adrp	x0, 40009000 <UART_IRQ_HANDLERS+0x8>
    40004068:	91202000 	add	x0, x0, #0x808
    4000406c:	f9001fe0 	str	x0, [sp, #56]
    40004070:	52800060 	mov	w0, #0x3                   	// #3
    40004074:	b90043e0 	str	w0, [sp, #64]
    40004078:	b90047ff 	str	wzr, [sp, #68]
    4000407c:	52800020 	mov	w0, #0x1                   	// #1
    40004080:	b9004be0 	str	w0, [sp, #72]
    40004084:	910043e0 	add	x0, sp, #0x10
    40004088:	9100c3e1 	add	x1, sp, #0x30
    4000408c:	3dc0003e 	ldr	q30, [x1]
    40004090:	3dc0043f 	ldr	q31, [x1, #16]
    40004094:	3d80001e 	str	q30, [x0]
    40004098:	3d80041f 	str	q31, [x0, #16]
    4000409c:	910043e0 	add	x0, sp, #0x10
    400040a0:	94000546 	bl	400055b8 <set_and_throw_panic>

00000000400040a4 <el2_low_a64_fiq_handler>:
#include <arm/exceptions/handlers/handlers_macros.h>

    400040a4:	a9bb7bfd 	stp	x29, x30, [sp, #-80]!
    400040a8:	910003fd 	mov	x29, sp
    400040ac:	b0000020 	adrp	x0, 40009000 <UART_IRQ_HANDLERS+0x8>
    400040b0:	91210000 	add	x0, x0, #0x840
    400040b4:	f9001be0 	str	x0, [sp, #48]
    400040b8:	b0000020 	adrp	x0, 40009000 <UART_IRQ_HANDLERS+0x8>
    400040bc:	91218000 	add	x0, x0, #0x860
    400040c0:	f9001fe0 	str	x0, [sp, #56]
    400040c4:	52800060 	mov	w0, #0x3                   	// #3
    400040c8:	b90043e0 	str	w0, [sp, #64]
    400040cc:	b90047ff 	str	wzr, [sp, #68]
    400040d0:	52800020 	mov	w0, #0x1                   	// #1
    400040d4:	b9004be0 	str	w0, [sp, #72]
    400040d8:	910043e0 	add	x0, sp, #0x10
    400040dc:	9100c3e1 	add	x1, sp, #0x30
    400040e0:	3dc0003e 	ldr	q30, [x1]
    400040e4:	3dc0043f 	ldr	q31, [x1, #16]
    400040e8:	3d80001e 	str	q30, [x0]
    400040ec:	3d80041f 	str	q31, [x0, #16]
    400040f0:	910043e0 	add	x0, sp, #0x10
    400040f4:	94000531 	bl	400055b8 <set_and_throw_panic>

00000000400040f8 <el2_cur_spx_fiq_handler>:
#include <arm/exceptions/handlers/handlers_macros.h>

    400040f8:	a9bb7bfd 	stp	x29, x30, [sp, #-80]!
    400040fc:	910003fd 	mov	x29, sp
    40004100:	b0000020 	adrp	x0, 40009000 <UART_IRQ_HANDLERS+0x8>
    40004104:	91226000 	add	x0, x0, #0x898
    40004108:	f9001be0 	str	x0, [sp, #48]
    4000410c:	b0000020 	adrp	x0, 40009000 <UART_IRQ_HANDLERS+0x8>
    40004110:	9122e000 	add	x0, x0, #0x8b8
    40004114:	f9001fe0 	str	x0, [sp, #56]
    40004118:	52800060 	mov	w0, #0x3                   	// #3
    4000411c:	b90043e0 	str	w0, [sp, #64]
    40004120:	b90047ff 	str	wzr, [sp, #68]
    40004124:	52800020 	mov	w0, #0x1                   	// #1
    40004128:	b9004be0 	str	w0, [sp, #72]
    4000412c:	910043e0 	add	x0, sp, #0x10
    40004130:	9100c3e1 	add	x1, sp, #0x30
    40004134:	3dc0003e 	ldr	q30, [x1]
    40004138:	3dc0043f 	ldr	q31, [x1, #16]
    4000413c:	3d80001e 	str	q30, [x0]
    40004140:	3d80041f 	str	q31, [x0, #16]
    40004144:	910043e0 	add	x0, sp, #0x10
    40004148:	9400051c 	bl	400055b8 <set_and_throw_panic>

000000004000414c <el2_low_a32_irq_handler>:
#include <arm/exceptions/handlers/handlers_macros.h>

    4000414c:	a9bb7bfd 	stp	x29, x30, [sp, #-80]!
    40004150:	910003fd 	mov	x29, sp
    40004154:	b0000020 	adrp	x0, 40009000 <UART_IRQ_HANDLERS+0x8>
    40004158:	9123c000 	add	x0, x0, #0x8f0
    4000415c:	f9001be0 	str	x0, [sp, #48]
    40004160:	b0000020 	adrp	x0, 40009000 <UART_IRQ_HANDLERS+0x8>
    40004164:	91244000 	add	x0, x0, #0x910
    40004168:	f9001fe0 	str	x0, [sp, #56]
    4000416c:	52800060 	mov	w0, #0x3                   	// #3
    40004170:	b90043e0 	str	w0, [sp, #64]
    40004174:	b90047ff 	str	wzr, [sp, #68]
    40004178:	52800020 	mov	w0, #0x1                   	// #1
    4000417c:	b9004be0 	str	w0, [sp, #72]
    40004180:	910043e0 	add	x0, sp, #0x10
    40004184:	9100c3e1 	add	x1, sp, #0x30
    40004188:	3dc0003e 	ldr	q30, [x1]
    4000418c:	3dc0043f 	ldr	q31, [x1, #16]
    40004190:	3d80001e 	str	q30, [x0]
    40004194:	3d80041f 	str	q31, [x0, #16]
    40004198:	910043e0 	add	x0, sp, #0x10
    4000419c:	94000507 	bl	400055b8 <set_and_throw_panic>

00000000400041a0 <el2_cur_sp0_fiq_handler>:
#include <arm/exceptions/handlers/handlers_macros.h>

    400041a0:	a9bb7bfd 	stp	x29, x30, [sp, #-80]!
    400041a4:	910003fd 	mov	x29, sp
    400041a8:	b0000020 	adrp	x0, 40009000 <UART_IRQ_HANDLERS+0x8>
    400041ac:	91252000 	add	x0, x0, #0x948
    400041b0:	f9001be0 	str	x0, [sp, #48]
    400041b4:	b0000020 	adrp	x0, 40009000 <UART_IRQ_HANDLERS+0x8>
    400041b8:	9125a000 	add	x0, x0, #0x968
    400041bc:	f9001fe0 	str	x0, [sp, #56]
    400041c0:	52800060 	mov	w0, #0x3                   	// #3
    400041c4:	b90043e0 	str	w0, [sp, #64]
    400041c8:	b90047ff 	str	wzr, [sp, #68]
    400041cc:	52800020 	mov	w0, #0x1                   	// #1
    400041d0:	b9004be0 	str	w0, [sp, #72]
    400041d4:	910043e0 	add	x0, sp, #0x10
    400041d8:	9100c3e1 	add	x1, sp, #0x30
    400041dc:	3dc0003e 	ldr	q30, [x1]
    400041e0:	3dc0043f 	ldr	q31, [x1, #16]
    400041e4:	3d80001e 	str	q30, [x0]
    400041e8:	3d80041f 	str	q31, [x0, #16]
    400041ec:	910043e0 	add	x0, sp, #0x10
    400041f0:	940004f2 	bl	400055b8 <set_and_throw_panic>

00000000400041f4 <el2_low_a32_fiq_handler>:
#include <arm/exceptions/handlers/handlers_macros.h>

    400041f4:	a9bb7bfd 	stp	x29, x30, [sp, #-80]!
    400041f8:	910003fd 	mov	x29, sp
    400041fc:	b0000020 	adrp	x0, 40009000 <UART_IRQ_HANDLERS+0x8>
    40004200:	91268000 	add	x0, x0, #0x9a0
    40004204:	f9001be0 	str	x0, [sp, #48]
    40004208:	b0000020 	adrp	x0, 40009000 <UART_IRQ_HANDLERS+0x8>
    4000420c:	91270000 	add	x0, x0, #0x9c0
    40004210:	f9001fe0 	str	x0, [sp, #56]
    40004214:	52800060 	mov	w0, #0x3                   	// #3
    40004218:	b90043e0 	str	w0, [sp, #64]
    4000421c:	b90047ff 	str	wzr, [sp, #68]
    40004220:	52800020 	mov	w0, #0x1                   	// #1
    40004224:	b9004be0 	str	w0, [sp, #72]
    40004228:	910043e0 	add	x0, sp, #0x10
    4000422c:	9100c3e1 	add	x1, sp, #0x30
    40004230:	3dc0003e 	ldr	q30, [x1]
    40004234:	3dc0043f 	ldr	q31, [x1, #16]
    40004238:	3d80001e 	str	q30, [x0]
    4000423c:	3d80041f 	str	q31, [x0, #16]
    40004240:	910043e0 	add	x0, sp, #0x10
    40004244:	940004dd 	bl	400055b8 <set_and_throw_panic>

0000000040004248 <el2_cur_spx_sync_handler>:
#include <arm/exceptions/handlers/handlers_macros.h>

    40004248:	a9bb7bfd 	stp	x29, x30, [sp, #-80]!
    4000424c:	910003fd 	mov	x29, sp
    40004250:	b0000020 	adrp	x0, 40009000 <UART_IRQ_HANDLERS+0x8>
    40004254:	9127e000 	add	x0, x0, #0x9f8
    40004258:	f9001be0 	str	x0, [sp, #48]
    4000425c:	b0000020 	adrp	x0, 40009000 <UART_IRQ_HANDLERS+0x8>
    40004260:	91286000 	add	x0, x0, #0xa18
    40004264:	f9001fe0 	str	x0, [sp, #56]
    40004268:	52800060 	mov	w0, #0x3                   	// #3
    4000426c:	b90043e0 	str	w0, [sp, #64]
    40004270:	b90047ff 	str	wzr, [sp, #68]
    40004274:	52800020 	mov	w0, #0x1                   	// #1
    40004278:	b9004be0 	str	w0, [sp, #72]
    4000427c:	910043e0 	add	x0, sp, #0x10
    40004280:	9100c3e1 	add	x1, sp, #0x30
    40004284:	3dc0003e 	ldr	q30, [x1]
    40004288:	3dc0043f 	ldr	q31, [x1, #16]
    4000428c:	3d80001e 	str	q30, [x0]
    40004290:	3d80041f 	str	q31, [x0, #16]
    40004294:	910043e0 	add	x0, sp, #0x10
    40004298:	940004c8 	bl	400055b8 <set_and_throw_panic>

000000004000429c <el2_low_a32_sync_handler>:
#include <arm/exceptions/handlers/handlers_macros.h>

    4000429c:	a9bb7bfd 	stp	x29, x30, [sp, #-80]!
    400042a0:	910003fd 	mov	x29, sp
    400042a4:	b0000020 	adrp	x0, 40009000 <UART_IRQ_HANDLERS+0x8>
    400042a8:	91294000 	add	x0, x0, #0xa50
    400042ac:	f9001be0 	str	x0, [sp, #48]
    400042b0:	b0000020 	adrp	x0, 40009000 <UART_IRQ_HANDLERS+0x8>
    400042b4:	9129c000 	add	x0, x0, #0xa70
    400042b8:	f9001fe0 	str	x0, [sp, #56]
    400042bc:	52800060 	mov	w0, #0x3                   	// #3
    400042c0:	b90043e0 	str	w0, [sp, #64]
    400042c4:	b90047ff 	str	wzr, [sp, #68]
    400042c8:	52800020 	mov	w0, #0x1                   	// #1
    400042cc:	b9004be0 	str	w0, [sp, #72]
    400042d0:	910043e0 	add	x0, sp, #0x10
    400042d4:	9100c3e1 	add	x1, sp, #0x30
    400042d8:	3dc0003e 	ldr	q30, [x1]
    400042dc:	3dc0043f 	ldr	q31, [x1, #16]
    400042e0:	3d80001e 	str	q30, [x0]
    400042e4:	3d80041f 	str	q31, [x0, #16]
    400042e8:	910043e0 	add	x0, sp, #0x10
    400042ec:	940004b3 	bl	400055b8 <set_and_throw_panic>

00000000400042f0 <el2_cur_sp0_sync_handler>:
#include <arm/exceptions/handlers/handlers_macros.h>

    400042f0:	a9bb7bfd 	stp	x29, x30, [sp, #-80]!
    400042f4:	910003fd 	mov	x29, sp
    400042f8:	b0000020 	adrp	x0, 40009000 <UART_IRQ_HANDLERS+0x8>
    400042fc:	912aa000 	add	x0, x0, #0xaa8
    40004300:	f9001be0 	str	x0, [sp, #48]
    40004304:	b0000020 	adrp	x0, 40009000 <UART_IRQ_HANDLERS+0x8>
    40004308:	912b2000 	add	x0, x0, #0xac8
    4000430c:	f9001fe0 	str	x0, [sp, #56]
    40004310:	52800060 	mov	w0, #0x3                   	// #3
    40004314:	b90043e0 	str	w0, [sp, #64]
    40004318:	b90047ff 	str	wzr, [sp, #68]
    4000431c:	52800020 	mov	w0, #0x1                   	// #1
    40004320:	b9004be0 	str	w0, [sp, #72]
    40004324:	910043e0 	add	x0, sp, #0x10
    40004328:	9100c3e1 	add	x1, sp, #0x30
    4000432c:	3dc0003e 	ldr	q30, [x1]
    40004330:	3dc0043f 	ldr	q31, [x1, #16]
    40004334:	3d80001e 	str	q30, [x0]
    40004338:	3d80041f 	str	q31, [x0, #16]
    4000433c:	910043e0 	add	x0, sp, #0x10
    40004340:	9400049e 	bl	400055b8 <set_and_throw_panic>

0000000040004344 <el2_cur_spx_irq_handler>:
#include <arm/exceptions/handlers/handlers_macros.h>

    40004344:	a9bb7bfd 	stp	x29, x30, [sp, #-80]!
    40004348:	910003fd 	mov	x29, sp
    4000434c:	b0000020 	adrp	x0, 40009000 <UART_IRQ_HANDLERS+0x8>
    40004350:	912c0000 	add	x0, x0, #0xb00
    40004354:	f9001be0 	str	x0, [sp, #48]
    40004358:	b0000020 	adrp	x0, 40009000 <UART_IRQ_HANDLERS+0x8>
    4000435c:	912c8000 	add	x0, x0, #0xb20
    40004360:	f9001fe0 	str	x0, [sp, #56]
    40004364:	52800060 	mov	w0, #0x3                   	// #3
    40004368:	b90043e0 	str	w0, [sp, #64]
    4000436c:	b90047ff 	str	wzr, [sp, #68]
    40004370:	52800020 	mov	w0, #0x1                   	// #1
    40004374:	b9004be0 	str	w0, [sp, #72]
    40004378:	910043e0 	add	x0, sp, #0x10
    4000437c:	9100c3e1 	add	x1, sp, #0x30
    40004380:	3dc0003e 	ldr	q30, [x1]
    40004384:	3dc0043f 	ldr	q31, [x1, #16]
    40004388:	3d80001e 	str	q30, [x0]
    4000438c:	3d80041f 	str	q31, [x0, #16]
    40004390:	910043e0 	add	x0, sp, #0x10
    40004394:	94000489 	bl	400055b8 <set_and_throw_panic>

0000000040004398 <ARM_exceptions_get_status>:
extern void _serror_exceptions_disable();
extern void _debug_exceptions_disable();

// https://developer.arm.com/documentation/111107/2025-09/AArch64-Registers/DAIF--Interrupt-Mask-Bits
ARM_exception_status ARM_exceptions_get_status()
{
    40004398:	a9bd7bfd 	stp	x29, x30, [sp, #-48]!
    4000439c:	910003fd 	mov	x29, sp
    400043a0:	f9000bf3 	str	x19, [sp, #16]
	uint64 daif = _exceptions_get_DAIF();
    400043a4:	97fff557 	bl	40001900 <_exceptions_get_DAIF>
    400043a8:	f90017e0 	str	x0, [sp, #40]

	return (ARM_exception_status){.fiq = !((daif >> 6) & 1UL),
    400043ac:	f94017e0 	ldr	x0, [sp, #40]
    400043b0:	d346fc00 	lsr	x0, x0, #6
    400043b4:	92400000 	and	x0, x0, #0x1
    400043b8:	f100001f 	cmp	x0, #0x0
    400043bc:	1a9f17e0 	cset	w0, eq	// eq = none
    400043c0:	12001c03 	and	w3, w0, #0xff
								  .irq = !((daif >> 7) & 1UL),
    400043c4:	f94017e0 	ldr	x0, [sp, #40]
    400043c8:	d347fc00 	lsr	x0, x0, #7
    400043cc:	92400000 	and	x0, x0, #0x1
    400043d0:	f100001f 	cmp	x0, #0x0
    400043d4:	1a9f17e0 	cset	w0, eq	// eq = none
    400043d8:	12001c02 	and	w2, w0, #0xff
								  .serror = !((daif >> 8) & 1UL),
    400043dc:	f94017e0 	ldr	x0, [sp, #40]
    400043e0:	d348fc00 	lsr	x0, x0, #8
    400043e4:	92400000 	and	x0, x0, #0x1
    400043e8:	f100001f 	cmp	x0, #0x0
    400043ec:	1a9f17e0 	cset	w0, eq	// eq = none
    400043f0:	12001c01 	and	w1, w0, #0xff
								  .debug = !((daif >> 9) & 1UL)};
    400043f4:	f94017e0 	ldr	x0, [sp, #40]
    400043f8:	d349fc00 	lsr	x0, x0, #9
    400043fc:	92400000 	and	x0, x0, #0x1
    40004400:	f100001f 	cmp	x0, #0x0
    40004404:	1a9f17e0 	cset	w0, eq	// eq = none
    40004408:	12001c00 	and	w0, w0, #0xff
	return (ARM_exception_status){.fiq = !((daif >> 6) & 1UL),
    4000440c:	33001c73 	bfxil	w19, w3, #0, #8
    40004410:	33181c53 	bfi	w19, w2, #8, #8
    40004414:	33101c33 	bfi	w19, w1, #16, #8
    40004418:	33081c13 	bfi	w19, w0, #24, #8
    4000441c:	2a1303e0 	mov	w0, w19
}
    40004420:	f9400bf3 	ldr	x19, [sp, #16]
    40004424:	a8c37bfd 	ldp	x29, x30, [sp], #48
    40004428:	d65f03c0 	ret

000000004000442c <ARM_exceptions_set_status>:

void ARM_exceptions_set_status(ARM_exception_status status)
{
    4000442c:	a9b97bfd 	stp	x29, x30, [sp, #-112]!
    40004430:	910003fd 	mov	x29, sp
    40004434:	b9003be0 	str	w0, [sp, #56]
	if (status.fiq)
    40004438:	3940e3e0 	ldrb	w0, [sp, #56]
    4000443c:	12000000 	and	w0, w0, #0x1
    40004440:	7100001f 	cmp	w0, #0x0
    40004444:	54000060 	b.eq	40004450 <ARM_exceptions_set_status+0x24>  // b.none
		_fiq_exceptions_enable();
    40004448:	97fff530 	bl	40001908 <_fiq_exceptions_enable>
    4000444c:	14000002 	b	40004454 <ARM_exceptions_set_status+0x28>
	else
		_fiq_exceptions_disable();
    40004450:	97fff53a 	bl	40001938 <_fiq_exceptions_disable>

	if (status.irq)
    40004454:	3940e7e0 	ldrb	w0, [sp, #57]
    40004458:	12000000 	and	w0, w0, #0x1
    4000445c:	7100001f 	cmp	w0, #0x0
    40004460:	54000060 	b.eq	4000446c <ARM_exceptions_set_status+0x40>  // b.none
		_irq_exceptions_enable();
    40004464:	97fff52c 	bl	40001914 <_irq_exceptions_enable>
    40004468:	14000002 	b	40004470 <ARM_exceptions_set_status+0x44>
	else
		_irq_exceptions_disable();
    4000446c:	97fff536 	bl	40001944 <_irq_exceptions_disable>

	if (status.serror)
    40004470:	3940ebe0 	ldrb	w0, [sp, #58]
    40004474:	12000000 	and	w0, w0, #0x1
    40004478:	7100001f 	cmp	w0, #0x0
    4000447c:	54000060 	b.eq	40004488 <ARM_exceptions_set_status+0x5c>  // b.none
		_serror_exceptions_enable();
    40004480:	97fff528 	bl	40001920 <_serror_exceptions_enable>
    40004484:	14000002 	b	4000448c <ARM_exceptions_set_status+0x60>
	else
		_serror_exceptions_disable();
    40004488:	97fff532 	bl	40001950 <_serror_exceptions_disable>

	if (status.debug)
    4000448c:	3940efe0 	ldrb	w0, [sp, #59]
    40004490:	12000000 	and	w0, w0, #0x1
    40004494:	7100001f 	cmp	w0, #0x0
    40004498:	54000060 	b.eq	400044a4 <ARM_exceptions_set_status+0x78>  // b.none
		_debug_exceptions_enable();
    4000449c:	97fff524 	bl	4000192c <_debug_exceptions_enable>
    400044a0:	14000002 	b	400044a8 <ARM_exceptions_set_status+0x7c>
	else
		_debug_exceptions_disable();
    400044a4:	97fff52e 	bl	4000195c <_debug_exceptions_disable>

#ifdef TEST
	ARM_exception_status current = ARM_exceptions_get_status();
    400044a8:	97ffffbc 	bl	40004398 <ARM_exceptions_get_status>
    400044ac:	b9006be0 	str	w0, [sp, #104]

	if (current.fiq != status.fiq || current.irq != status.irq ||
    400044b0:	3941a3e1 	ldrb	w1, [sp, #104]
    400044b4:	3940e3e0 	ldrb	w0, [sp, #56]
    400044b8:	6b00003f 	cmp	w1, w0
    400044bc:	540001a1 	b.ne	400044f0 <ARM_exceptions_set_status+0xc4>  // b.any
    400044c0:	3941a7e1 	ldrb	w1, [sp, #105]
    400044c4:	3940e7e0 	ldrb	w0, [sp, #57]
    400044c8:	6b00003f 	cmp	w1, w0
    400044cc:	54000121 	b.ne	400044f0 <ARM_exceptions_set_status+0xc4>  // b.any
		current.serror != status.serror || current.debug != status.debug)
    400044d0:	3941abe1 	ldrb	w1, [sp, #106]
    400044d4:	3940ebe0 	ldrb	w0, [sp, #58]
	if (current.fiq != status.fiq || current.irq != status.irq ||
    400044d8:	6b00003f 	cmp	w1, w0
    400044dc:	540000a1 	b.ne	400044f0 <ARM_exceptions_set_status+0xc4>  // b.any
		current.serror != status.serror || current.debug != status.debug)
    400044e0:	3941afe1 	ldrb	w1, [sp, #107]
    400044e4:	3940efe0 	ldrb	w0, [sp, #59]
    400044e8:	6b00003f 	cmp	w1, w0
    400044ec:	54000280 	b.eq	4000453c <ARM_exceptions_set_status+0x110>  // b.none
		PANIC("exceptions_set_status error");
    400044f0:	b0000020 	adrp	x0, 40009000 <UART_IRQ_HANDLERS+0x8>
    400044f4:	912d6000 	add	x0, x0, #0xb58
    400044f8:	f90027e0 	str	x0, [sp, #72]
    400044fc:	b0000020 	adrp	x0, 40009000 <UART_IRQ_HANDLERS+0x8>
    40004500:	912de000 	add	x0, x0, #0xb78
    40004504:	f9002be0 	str	x0, [sp, #80]
    40004508:	52800700 	mov	w0, #0x38                  	// #56
    4000450c:	b9005be0 	str	w0, [sp, #88]
    40004510:	b9005fff 	str	wzr, [sp, #92]
    40004514:	52800040 	mov	w0, #0x2                   	// #2
    40004518:	b90063e0 	str	w0, [sp, #96]
    4000451c:	910043e0 	add	x0, sp, #0x10
    40004520:	910123e1 	add	x1, sp, #0x48
    40004524:	3dc0003e 	ldr	q30, [x1]
    40004528:	3dc0043f 	ldr	q31, [x1, #16]
    4000452c:	3d80001e 	str	q30, [x0]
    40004530:	3d80041f 	str	q31, [x0, #16]
    40004534:	910043e0 	add	x0, sp, #0x10
    40004538:	94000420 	bl	400055b8 <set_and_throw_panic>
#endif
}
    4000453c:	d503201f 	nop
    40004540:	a8c77bfd 	ldp	x29, x30, [sp], #112
    40004544:	d65f03c0 	ret

0000000040004548 <ARM_exceptions_enable>:

void ARM_exceptions_enable(bool fiq, bool irq, bool serror, bool debug)
{
    40004548:	a9be7bfd 	stp	x29, x30, [sp, #-32]!
    4000454c:	910003fd 	mov	x29, sp
    40004550:	39007fe0 	strb	w0, [sp, #31]
    40004554:	39007be1 	strb	w1, [sp, #30]
    40004558:	390077e2 	strb	w2, [sp, #29]
    4000455c:	390073e3 	strb	w3, [sp, #28]
	if (fiq) _fiq_exceptions_enable();
    40004560:	39407fe0 	ldrb	w0, [sp, #31]
    40004564:	12000000 	and	w0, w0, #0x1
    40004568:	7100001f 	cmp	w0, #0x0
    4000456c:	54000040 	b.eq	40004574 <ARM_exceptions_enable+0x2c>  // b.none
    40004570:	97fff4e6 	bl	40001908 <_fiq_exceptions_enable>

	if (irq) _irq_exceptions_enable();
    40004574:	39407be0 	ldrb	w0, [sp, #30]
    40004578:	12000000 	and	w0, w0, #0x1
    4000457c:	7100001f 	cmp	w0, #0x0
    40004580:	54000040 	b.eq	40004588 <ARM_exceptions_enable+0x40>  // b.none
    40004584:	97fff4e4 	bl	40001914 <_irq_exceptions_enable>

	if (serror) _serror_exceptions_enable();
    40004588:	394077e0 	ldrb	w0, [sp, #29]
    4000458c:	12000000 	and	w0, w0, #0x1
    40004590:	7100001f 	cmp	w0, #0x0
    40004594:	54000040 	b.eq	4000459c <ARM_exceptions_enable+0x54>  // b.none
    40004598:	97fff4e2 	bl	40001920 <_serror_exceptions_enable>

	if (debug) _debug_exceptions_enable();
    4000459c:	394073e0 	ldrb	w0, [sp, #28]
    400045a0:	12000000 	and	w0, w0, #0x1
    400045a4:	7100001f 	cmp	w0, #0x0
    400045a8:	54000040 	b.eq	400045b0 <ARM_exceptions_enable+0x68>  // b.none
    400045ac:	97fff4e0 	bl	4000192c <_debug_exceptions_enable>
}
    400045b0:	d503201f 	nop
    400045b4:	a8c27bfd 	ldp	x29, x30, [sp], #32
    400045b8:	d65f03c0 	ret

00000000400045bc <ARM_exceptions_disable>:

void ARM_exceptions_disable(bool fiq, bool irq, bool serror, bool debug)
{
    400045bc:	a9be7bfd 	stp	x29, x30, [sp, #-32]!
    400045c0:	910003fd 	mov	x29, sp
    400045c4:	39007fe0 	strb	w0, [sp, #31]
    400045c8:	39007be1 	strb	w1, [sp, #30]
    400045cc:	390077e2 	strb	w2, [sp, #29]
    400045d0:	390073e3 	strb	w3, [sp, #28]
	if (fiq) _fiq_exceptions_disable();
    400045d4:	39407fe0 	ldrb	w0, [sp, #31]
    400045d8:	12000000 	and	w0, w0, #0x1
    400045dc:	7100001f 	cmp	w0, #0x0
    400045e0:	54000040 	b.eq	400045e8 <ARM_exceptions_disable+0x2c>  // b.none
    400045e4:	97fff4d5 	bl	40001938 <_fiq_exceptions_disable>

	if (irq) _irq_exceptions_disable();
    400045e8:	39407be0 	ldrb	w0, [sp, #30]
    400045ec:	12000000 	and	w0, w0, #0x1
    400045f0:	7100001f 	cmp	w0, #0x0
    400045f4:	54000040 	b.eq	400045fc <ARM_exceptions_disable+0x40>  // b.none
    400045f8:	97fff4d3 	bl	40001944 <_irq_exceptions_disable>

	if (serror) _serror_exceptions_disable();
    400045fc:	394077e0 	ldrb	w0, [sp, #29]
    40004600:	12000000 	and	w0, w0, #0x1
    40004604:	7100001f 	cmp	w0, #0x0
    40004608:	54000040 	b.eq	40004610 <ARM_exceptions_disable+0x54>  // b.none
    4000460c:	97fff4d1 	bl	40001950 <_serror_exceptions_disable>

	if (debug) _debug_exceptions_disable();
    40004610:	394073e0 	ldrb	w0, [sp, #28]
    40004614:	12000000 	and	w0, w0, #0x1
    40004618:	7100001f 	cmp	w0, #0x0
    4000461c:	54000040 	b.eq	40004624 <ARM_exceptions_disable+0x68>  // b.none
    40004620:	97fff4cf 	bl	4000195c <_debug_exceptions_disable>
}
    40004624:	d503201f 	nop
    40004628:	a8c27bfd 	ldp	x29, x30, [sp], #32
    4000462c:	d65f03c0 	ret

0000000040004630 <ARM_get_exception_level>:

size_t ARM_get_exception_level() { return (size_t)_ARM_currentEL(); }
    40004630:	a9bf7bfd 	stp	x29, x30, [sp, #-16]!
    40004634:	910003fd 	mov	x29, sp
    40004638:	97ffeeb0 	bl	400000f8 <_ARM_currentEL>
    4000463c:	a8c17bfd 	ldp	x29, x30, [sp], #16
    40004640:	d65f03c0 	ret

0000000040004644 <strcopy>:
#include <lib/stdbool.h>
#include <lib/stdint.h>
#include <lib/string.h>

void strcopy(char *dst, char *src, uint64 max_size)
{
    40004644:	d100c3ff 	sub	sp, sp, #0x30
    40004648:	f9000fe0 	str	x0, [sp, #24]
    4000464c:	f9000be1 	str	x1, [sp, #16]
    40004650:	f90007e2 	str	x2, [sp, #8]
	for (uint64 i = 0; i < max_size - 1; i++) {
    40004654:	f90017ff 	str	xzr, [sp, #40]
    40004658:	14000012 	b	400046a0 <strcopy+0x5c>
		dst[i] = src[i];
    4000465c:	f9400be1 	ldr	x1, [sp, #16]
    40004660:	f94017e0 	ldr	x0, [sp, #40]
    40004664:	8b000021 	add	x1, x1, x0
    40004668:	f9400fe2 	ldr	x2, [sp, #24]
    4000466c:	f94017e0 	ldr	x0, [sp, #40]
    40004670:	8b000040 	add	x0, x2, x0
    40004674:	39400021 	ldrb	w1, [x1]
    40004678:	39000001 	strb	w1, [x0]

		if (src[i] == '\0') return;
    4000467c:	f9400be1 	ldr	x1, [sp, #16]
    40004680:	f94017e0 	ldr	x0, [sp, #40]
    40004684:	8b000020 	add	x0, x1, x0
    40004688:	39400000 	ldrb	w0, [x0]
    4000468c:	7100001f 	cmp	w0, #0x0
    40004690:	540001e0 	b.eq	400046cc <strcopy+0x88>  // b.none
	for (uint64 i = 0; i < max_size - 1; i++) {
    40004694:	f94017e0 	ldr	x0, [sp, #40]
    40004698:	91000400 	add	x0, x0, #0x1
    4000469c:	f90017e0 	str	x0, [sp, #40]
    400046a0:	f94007e0 	ldr	x0, [sp, #8]
    400046a4:	d1000400 	sub	x0, x0, #0x1
    400046a8:	f94017e1 	ldr	x1, [sp, #40]
    400046ac:	eb00003f 	cmp	x1, x0
    400046b0:	54fffd63 	b.cc	4000465c <strcopy+0x18>  // b.lo, b.ul, b.last
	}

	dst[max_size - 1] = '\0';
    400046b4:	f94007e0 	ldr	x0, [sp, #8]
    400046b8:	d1000400 	sub	x0, x0, #0x1
    400046bc:	f9400fe1 	ldr	x1, [sp, #24]
    400046c0:	8b000020 	add	x0, x1, x0
    400046c4:	3900001f 	strb	wzr, [x0]
    400046c8:	14000002 	b	400046d0 <strcopy+0x8c>
		if (src[i] == '\0') return;
    400046cc:	d503201f 	nop
}
    400046d0:	9100c3ff 	add	sp, sp, #0x30
    400046d4:	d65f03c0 	ret

00000000400046d8 <uint8_to_ascii_char>:

char uint8_to_ascii_char(uint8 n)
{
    400046d8:	a9ba7bfd 	stp	x29, x30, [sp, #-96]!
    400046dc:	910003fd 	mov	x29, sp
    400046e0:	3900ffe0 	strb	w0, [sp, #63]
	if (n > 9) {
    400046e4:	3940ffe0 	ldrb	w0, [sp, #63]
    400046e8:	7100241f 	cmp	w0, #0x9
    400046ec:	54000289 	b.ls	4000473c <uint8_to_ascii_char+0x64>  // b.plast
		PANIC(
    400046f0:	b0000020 	adrp	x0, 40009000 <UART_IRQ_HANDLERS+0x8>
    400046f4:	912e8000 	add	x0, x0, #0xba0
    400046f8:	f90023e0 	str	x0, [sp, #64]
    400046fc:	b0000020 	adrp	x0, 40009000 <UART_IRQ_HANDLERS+0x8>
    40004700:	912fa000 	add	x0, x0, #0xbe8
    40004704:	f90027e0 	str	x0, [sp, #72]
    40004708:	52800280 	mov	w0, #0x14                  	// #20
    4000470c:	b90053e0 	str	w0, [sp, #80]
    40004710:	b90057ff 	str	wzr, [sp, #84]
    40004714:	52800040 	mov	w0, #0x2                   	// #2
    40004718:	b9005be0 	str	w0, [sp, #88]
    4000471c:	910043e0 	add	x0, sp, #0x10
    40004720:	910103e1 	add	x1, sp, #0x40
    40004724:	3dc0003e 	ldr	q30, [x1]
    40004728:	3dc0043f 	ldr	q31, [x1, #16]
    4000472c:	3d80001e 	str	q30, [x0]
    40004730:	3d80041f 	str	q31, [x0, #16]
    40004734:	910043e0 	add	x0, sp, #0x10
    40004738:	940003a0 	bl	400055b8 <set_and_throw_panic>
			"uint8_to_ascii_char: requires the input number to be between 0 "
			"and 9");
	}

	return (char)(n + '0');
    4000473c:	3940ffe0 	ldrb	w0, [sp, #63]
    40004740:	1100c000 	add	w0, w0, #0x30
    40004744:	12001c00 	and	w0, w0, #0xff
}
    40004748:	a8c67bfd 	ldp	x29, x30, [sp], #96
    4000474c:	d65f03c0 	ret

0000000040004750 <stdint_to_ascii>:
	'8', '9', 'A', 'B', 'C', 'D', 'E', 'F',
};

char *stdint_to_ascii(STDINT_UNION n, STDINT_TYPES n_type, char *buf,
					  uint64 buf_len, STDINT_BASE_REPR repr)
{
    40004750:	a9b17bfd 	stp	x29, x30, [sp, #-240]!
    40004754:	910003fd 	mov	x29, sp
    40004758:	f90027e0 	str	x0, [sp, #72]
    4000475c:	b90047e1 	str	w1, [sp, #68]
    40004760:	f9001fe2 	str	x2, [sp, #56]
    40004764:	f9001be3 	str	x3, [sp, #48]
    40004768:	b90043e4 	str	w4, [sp, #64]
	uint64 repr_len = 0;
    4000476c:	f90077ff 	str	xzr, [sp, #232]
	switch (repr) {
    40004770:	b94043e0 	ldr	w0, [sp, #64]
    40004774:	7100401f 	cmp	w0, #0x10
    40004778:	54000220 	b.eq	400047bc <stdint_to_ascii+0x6c>  // b.none
    4000477c:	b94043e0 	ldr	w0, [sp, #64]
    40004780:	7100401f 	cmp	w0, #0x10
    40004784:	540002e8 	b.hi	400047e0 <stdint_to_ascii+0x90>  // b.pmore
    40004788:	b94043e0 	ldr	w0, [sp, #64]
    4000478c:	7100281f 	cmp	w0, #0xa
    40004790:	540004e0 	b.eq	4000482c <stdint_to_ascii+0xdc>  // b.none
    40004794:	b94043e0 	ldr	w0, [sp, #64]
    40004798:	7100281f 	cmp	w0, #0xa
    4000479c:	54000228 	b.hi	400047e0 <stdint_to_ascii+0x90>  // b.pmore
    400047a0:	b94043e0 	ldr	w0, [sp, #64]
    400047a4:	7100081f 	cmp	w0, #0x2
    400047a8:	54000100 	b.eq	400047c8 <stdint_to_ascii+0x78>  // b.none
    400047ac:	b94043e0 	ldr	w0, [sp, #64]
    400047b0:	7100201f 	cmp	w0, #0x8
    400047b4:	54000100 	b.eq	400047d4 <stdint_to_ascii+0x84>  // b.none
    400047b8:	1400000a 	b	400047e0 <stdint_to_ascii+0x90>
		case STDINT_BASE_REPR_DEC:
			break;
		case STDINT_BASE_REPR_HEX:
			repr_len = 2;
    400047bc:	d2800040 	mov	x0, #0x2                   	// #2
    400047c0:	f90077e0 	str	x0, [sp, #232]
			break;
    400047c4:	1400001b 	b	40004830 <stdint_to_ascii+0xe0>
		case STDINT_BASE_REPR_BIN:
			repr_len = 2;
    400047c8:	d2800040 	mov	x0, #0x2                   	// #2
    400047cc:	f90077e0 	str	x0, [sp, #232]
			break;
    400047d0:	14000018 	b	40004830 <stdint_to_ascii+0xe0>
		case STDINT_BASE_REPR_OCT:
			repr_len = 1;
    400047d4:	d2800020 	mov	x0, #0x1                   	// #1
    400047d8:	f90077e0 	str	x0, [sp, #232]
			break;
    400047dc:	14000015 	b	40004830 <stdint_to_ascii+0xe0>
		default:
			PANIC("Unexpected value of repr");
    400047e0:	b0000020 	adrp	x0, 40009000 <UART_IRQ_HANDLERS+0x8>
    400047e4:	91304000 	add	x0, x0, #0xc10
    400047e8:	f9002fe0 	str	x0, [sp, #88]
    400047ec:	b0000020 	adrp	x0, 40009000 <UART_IRQ_HANDLERS+0x8>
    400047f0:	912fa000 	add	x0, x0, #0xbe8
    400047f4:	f90033e0 	str	x0, [sp, #96]
    400047f8:	52800640 	mov	w0, #0x32                  	// #50
    400047fc:	b9006be0 	str	w0, [sp, #104]
    40004800:	b9006fff 	str	wzr, [sp, #108]
    40004804:	52800040 	mov	w0, #0x2                   	// #2
    40004808:	b90073e0 	str	w0, [sp, #112]
    4000480c:	910043e0 	add	x0, sp, #0x10
    40004810:	910163e1 	add	x1, sp, #0x58
    40004814:	3dc0003e 	ldr	q30, [x1]
    40004818:	3dc0043f 	ldr	q31, [x1, #16]
    4000481c:	3d80001e 	str	q30, [x0]
    40004820:	3d80041f 	str	q31, [x0, #16]
    40004824:	910043e0 	add	x0, sp, #0x10
    40004828:	94000364 	bl	400055b8 <set_and_throw_panic>
			break;
    4000482c:	d503201f 	nop
	}

	bool is_signed;
	int64 signed_value = 0;
    40004830:	f9006fff 	str	xzr, [sp, #216]
	uint64 unsigned_value = 0;
    40004834:	f9006bff 	str	xzr, [sp, #208]

	switch (n_type) {
    40004838:	b94047e0 	ldr	w0, [sp, #68]
    4000483c:	71001c1f 	cmp	w0, #0x7
    40004840:	540009e0 	b.eq	4000497c <stdint_to_ascii+0x22c>  // b.none
    40004844:	b94047e0 	ldr	w0, [sp, #68]
    40004848:	71001c1f 	cmp	w0, #0x7
    4000484c:	54000a08 	b.hi	4000498c <stdint_to_ascii+0x23c>  // b.pmore
    40004850:	b94047e0 	ldr	w0, [sp, #68]
    40004854:	7100181f 	cmp	w0, #0x6
    40004858:	54000880 	b.eq	40004968 <stdint_to_ascii+0x218>  // b.none
    4000485c:	b94047e0 	ldr	w0, [sp, #68]
    40004860:	7100181f 	cmp	w0, #0x6
    40004864:	54000948 	b.hi	4000498c <stdint_to_ascii+0x23c>  // b.pmore
    40004868:	b94047e0 	ldr	w0, [sp, #68]
    4000486c:	7100141f 	cmp	w0, #0x5
    40004870:	54000720 	b.eq	40004954 <stdint_to_ascii+0x204>  // b.none
    40004874:	b94047e0 	ldr	w0, [sp, #68]
    40004878:	7100141f 	cmp	w0, #0x5
    4000487c:	54000888 	b.hi	4000498c <stdint_to_ascii+0x23c>  // b.pmore
    40004880:	b94047e0 	ldr	w0, [sp, #68]
    40004884:	7100101f 	cmp	w0, #0x4
    40004888:	540005a0 	b.eq	4000493c <stdint_to_ascii+0x1ec>  // b.none
    4000488c:	b94047e0 	ldr	w0, [sp, #68]
    40004890:	7100101f 	cmp	w0, #0x4
    40004894:	540007c8 	b.hi	4000498c <stdint_to_ascii+0x23c>  // b.pmore
    40004898:	b94047e0 	ldr	w0, [sp, #68]
    4000489c:	71000c1f 	cmp	w0, #0x3
    400048a0:	54000440 	b.eq	40004928 <stdint_to_ascii+0x1d8>  // b.none
    400048a4:	b94047e0 	ldr	w0, [sp, #68]
    400048a8:	71000c1f 	cmp	w0, #0x3
    400048ac:	54000708 	b.hi	4000498c <stdint_to_ascii+0x23c>  // b.pmore
    400048b0:	b94047e0 	ldr	w0, [sp, #68]
    400048b4:	7100081f 	cmp	w0, #0x2
    400048b8:	540002c0 	b.eq	40004910 <stdint_to_ascii+0x1c0>  // b.none
    400048bc:	b94047e0 	ldr	w0, [sp, #68]
    400048c0:	7100081f 	cmp	w0, #0x2
    400048c4:	54000648 	b.hi	4000498c <stdint_to_ascii+0x23c>  // b.pmore
    400048c8:	b94047e0 	ldr	w0, [sp, #68]
    400048cc:	7100001f 	cmp	w0, #0x0
    400048d0:	540000a0 	b.eq	400048e4 <stdint_to_ascii+0x194>  // b.none
    400048d4:	b94047e0 	ldr	w0, [sp, #68]
    400048d8:	7100041f 	cmp	w0, #0x1
    400048dc:	54000100 	b.eq	400048fc <stdint_to_ascii+0x1ac>  // b.none
    400048e0:	1400002b 	b	4000498c <stdint_to_ascii+0x23c>
		case STDINT_INT8:
			signed_value = n.int8;
    400048e4:	39c123e0 	ldrsb	w0, [sp, #72]
    400048e8:	93401c00 	sxtb	x0, w0
    400048ec:	f9006fe0 	str	x0, [sp, #216]
			is_signed = true;
    400048f0:	52800020 	mov	w0, #0x1                   	// #1
    400048f4:	39039fe0 	strb	w0, [sp, #231]
			break;
    400048f8:	14000038 	b	400049d8 <stdint_to_ascii+0x288>
		case STDINT_UINT8:
			unsigned_value = n.uint8;
    400048fc:	394123e0 	ldrb	w0, [sp, #72]
    40004900:	92401c00 	and	x0, x0, #0xff
    40004904:	f9006be0 	str	x0, [sp, #208]
			is_signed = false;
    40004908:	39039fff 	strb	wzr, [sp, #231]
			break;
    4000490c:	14000033 	b	400049d8 <stdint_to_ascii+0x288>
		case STDINT_INT16:
			signed_value = n.int16;
    40004910:	79c093e0 	ldrsh	w0, [sp, #72]
    40004914:	93403c00 	sxth	x0, w0
    40004918:	f9006fe0 	str	x0, [sp, #216]
			is_signed = true;
    4000491c:	52800020 	mov	w0, #0x1                   	// #1
    40004920:	39039fe0 	strb	w0, [sp, #231]
			break;
    40004924:	1400002d 	b	400049d8 <stdint_to_ascii+0x288>
		case STDINT_UINT16:
			unsigned_value = n.uint16;
    40004928:	794093e0 	ldrh	w0, [sp, #72]
    4000492c:	92403c00 	and	x0, x0, #0xffff
    40004930:	f9006be0 	str	x0, [sp, #208]
			is_signed = false;
    40004934:	39039fff 	strb	wzr, [sp, #231]
			break;
    40004938:	14000028 	b	400049d8 <stdint_to_ascii+0x288>
		case STDINT_INT32:
			signed_value = n.int32;
    4000493c:	b9404be0 	ldr	w0, [sp, #72]
    40004940:	93407c00 	sxtw	x0, w0
    40004944:	f9006fe0 	str	x0, [sp, #216]
			is_signed = true;
    40004948:	52800020 	mov	w0, #0x1                   	// #1
    4000494c:	39039fe0 	strb	w0, [sp, #231]
			break;
    40004950:	14000022 	b	400049d8 <stdint_to_ascii+0x288>
		case STDINT_UINT32:
			unsigned_value = n.uint32;
    40004954:	b9404be0 	ldr	w0, [sp, #72]
    40004958:	2a0003e0 	mov	w0, w0
    4000495c:	f9006be0 	str	x0, [sp, #208]
			is_signed = false;
    40004960:	39039fff 	strb	wzr, [sp, #231]
			break;
    40004964:	1400001d 	b	400049d8 <stdint_to_ascii+0x288>
		case STDINT_INT64:
			signed_value = n.int64;
    40004968:	f94027e0 	ldr	x0, [sp, #72]
    4000496c:	f9006fe0 	str	x0, [sp, #216]
			is_signed = true;
    40004970:	52800020 	mov	w0, #0x1                   	// #1
    40004974:	39039fe0 	strb	w0, [sp, #231]
			break;
    40004978:	14000018 	b	400049d8 <stdint_to_ascii+0x288>
		case STDINT_UINT64:
			unsigned_value = n.uint64;
    4000497c:	f94027e0 	ldr	x0, [sp, #72]
    40004980:	f9006be0 	str	x0, [sp, #208]
			is_signed = false;
    40004984:	39039fff 	strb	wzr, [sp, #231]
			break;
    40004988:	14000014 	b	400049d8 <stdint_to_ascii+0x288>
		default:
			PANIC("stdint_to_ascii: STDINT_TYPES case not supported");
    4000498c:	b0000020 	adrp	x0, 40009000 <UART_IRQ_HANDLERS+0x8>
    40004990:	9130c000 	add	x0, x0, #0xc30
    40004994:	f9002fe0 	str	x0, [sp, #88]
    40004998:	b0000020 	adrp	x0, 40009000 <UART_IRQ_HANDLERS+0x8>
    4000499c:	912fa000 	add	x0, x0, #0xbe8
    400049a0:	f90033e0 	str	x0, [sp, #96]
    400049a4:	52800b60 	mov	w0, #0x5b                  	// #91
    400049a8:	b9006be0 	str	w0, [sp, #104]
    400049ac:	b9006fff 	str	wzr, [sp, #108]
    400049b0:	52800040 	mov	w0, #0x2                   	// #2
    400049b4:	b90073e0 	str	w0, [sp, #112]
    400049b8:	910043e0 	add	x0, sp, #0x10
    400049bc:	910163e1 	add	x1, sp, #0x58
    400049c0:	3dc0003e 	ldr	q30, [x1]
    400049c4:	3dc0043f 	ldr	q31, [x1, #16]
    400049c8:	3d80001e 	str	q30, [x0]
    400049cc:	3d80041f 	str	q31, [x0, #16]
    400049d0:	910043e0 	add	x0, sp, #0x10
    400049d4:	940002f9 	bl	400055b8 <set_and_throw_panic>
	}

	uint64 value;
	bool negative = false;
    400049d8:	39031fff 	strb	wzr, [sp, #199]

	if (is_signed) {
    400049dc:	39439fe0 	ldrb	w0, [sp, #231]
    400049e0:	12000000 	and	w0, w0, #0x1
    400049e4:	7100001f 	cmp	w0, #0x0
    400049e8:	540001a0 	b.eq	40004a1c <stdint_to_ascii+0x2cc>  // b.none
		if (signed_value < 0) {
    400049ec:	f9406fe0 	ldr	x0, [sp, #216]
    400049f0:	f100001f 	cmp	x0, #0x0
    400049f4:	540000ea 	b.ge	40004a10 <stdint_to_ascii+0x2c0>  // b.tcont
			negative = true;
    400049f8:	52800020 	mov	w0, #0x1                   	// #1
    400049fc:	39031fe0 	strb	w0, [sp, #199]
			value = (uint64)-signed_value;
    40004a00:	f9406fe0 	ldr	x0, [sp, #216]
    40004a04:	cb0003e0 	neg	x0, x0
    40004a08:	f90067e0 	str	x0, [sp, #200]
    40004a0c:	14000006 	b	40004a24 <stdint_to_ascii+0x2d4>
		} else {
			value = (uint64)signed_value;
    40004a10:	f9406fe0 	ldr	x0, [sp, #216]
    40004a14:	f90067e0 	str	x0, [sp, #200]
    40004a18:	14000003 	b	40004a24 <stdint_to_ascii+0x2d4>
		}
	} else {
		value = unsigned_value;
    40004a1c:	f9406be0 	ldr	x0, [sp, #208]
    40004a20:	f90067e0 	str	x0, [sp, #200]
	}

	if (value == 0 && !negative) {
    40004a24:	f94067e0 	ldr	x0, [sp, #200]
    40004a28:	f100001f 	cmp	x0, #0x0
    40004a2c:	54000b41 	b.ne	40004b94 <stdint_to_ascii+0x444>  // b.any
    40004a30:	39431fe0 	ldrb	w0, [sp, #199]
    40004a34:	52000000 	eor	w0, w0, #0x1
    40004a38:	12001c00 	and	w0, w0, #0xff
    40004a3c:	12000000 	and	w0, w0, #0x1
    40004a40:	7100001f 	cmp	w0, #0x0
    40004a44:	54000a80 	b.eq	40004b94 <stdint_to_ascii+0x444>  // b.none
		if (buf_len < 2 + repr_len) goto panic;
    40004a48:	f94077e0 	ldr	x0, [sp, #232]
    40004a4c:	91000800 	add	x0, x0, #0x2
    40004a50:	f9401be1 	ldr	x1, [sp, #48]
    40004a54:	eb00003f 	cmp	x1, x0
    40004a58:	54001bc3 	b.cc	40004dd0 <stdint_to_ascii+0x680>  // b.lo, b.ul, b.last
		int64 i = 0;
    40004a5c:	f9005fff 	str	xzr, [sp, #184]
		switch (repr) {
    40004a60:	b94043e0 	ldr	w0, [sp, #64]
    40004a64:	7100401f 	cmp	w0, #0x10
    40004a68:	54000220 	b.eq	40004aac <stdint_to_ascii+0x35c>  // b.none
    40004a6c:	b94043e0 	ldr	w0, [sp, #64]
    40004a70:	7100401f 	cmp	w0, #0x10
    40004a74:	54000748 	b.hi	40004b5c <stdint_to_ascii+0x40c>  // b.pmore
    40004a78:	b94043e0 	ldr	w0, [sp, #64]
    40004a7c:	7100281f 	cmp	w0, #0xa
    40004a80:	540006c0 	b.eq	40004b58 <stdint_to_ascii+0x408>  // b.none
    40004a84:	b94043e0 	ldr	w0, [sp, #64]
    40004a88:	7100281f 	cmp	w0, #0xa
    40004a8c:	54000688 	b.hi	40004b5c <stdint_to_ascii+0x40c>  // b.pmore
    40004a90:	b94043e0 	ldr	w0, [sp, #64]
    40004a94:	7100081f 	cmp	w0, #0x2
    40004a98:	540002c0 	b.eq	40004af0 <stdint_to_ascii+0x3a0>  // b.none
    40004a9c:	b94043e0 	ldr	w0, [sp, #64]
    40004aa0:	7100201f 	cmp	w0, #0x8
    40004aa4:	54000480 	b.eq	40004b34 <stdint_to_ascii+0x3e4>  // b.none
    40004aa8:	1400002d 	b	40004b5c <stdint_to_ascii+0x40c>
			case STDINT_BASE_REPR_DEC:
				break;
			case STDINT_BASE_REPR_HEX:
				buf[i++] = '0';
    40004aac:	f9405fe0 	ldr	x0, [sp, #184]
    40004ab0:	91000401 	add	x1, x0, #0x1
    40004ab4:	f9005fe1 	str	x1, [sp, #184]
    40004ab8:	aa0003e1 	mov	x1, x0
    40004abc:	f9401fe0 	ldr	x0, [sp, #56]
    40004ac0:	8b010000 	add	x0, x0, x1
    40004ac4:	52800601 	mov	w1, #0x30                  	// #48
    40004ac8:	39000001 	strb	w1, [x0]
				buf[i++] = 'x';
    40004acc:	f9405fe0 	ldr	x0, [sp, #184]
    40004ad0:	91000401 	add	x1, x0, #0x1
    40004ad4:	f9005fe1 	str	x1, [sp, #184]
    40004ad8:	aa0003e1 	mov	x1, x0
    40004adc:	f9401fe0 	ldr	x0, [sp, #56]
    40004ae0:	8b010000 	add	x0, x0, x1
    40004ae4:	52800f01 	mov	w1, #0x78                  	// #120
    40004ae8:	39000001 	strb	w1, [x0]
				break;
    40004aec:	1400001c 	b	40004b5c <stdint_to_ascii+0x40c>
			case STDINT_BASE_REPR_BIN:
				buf[i++] = '0';
    40004af0:	f9405fe0 	ldr	x0, [sp, #184]
    40004af4:	91000401 	add	x1, x0, #0x1
    40004af8:	f9005fe1 	str	x1, [sp, #184]
    40004afc:	aa0003e1 	mov	x1, x0
    40004b00:	f9401fe0 	ldr	x0, [sp, #56]
    40004b04:	8b010000 	add	x0, x0, x1
    40004b08:	52800601 	mov	w1, #0x30                  	// #48
    40004b0c:	39000001 	strb	w1, [x0]
				buf[i++] = 'b';
    40004b10:	f9405fe0 	ldr	x0, [sp, #184]
    40004b14:	91000401 	add	x1, x0, #0x1
    40004b18:	f9005fe1 	str	x1, [sp, #184]
    40004b1c:	aa0003e1 	mov	x1, x0
    40004b20:	f9401fe0 	ldr	x0, [sp, #56]
    40004b24:	8b010000 	add	x0, x0, x1
    40004b28:	52800c41 	mov	w1, #0x62                  	// #98
    40004b2c:	39000001 	strb	w1, [x0]
				break;
    40004b30:	1400000b 	b	40004b5c <stdint_to_ascii+0x40c>
			case STDINT_BASE_REPR_OCT:
				buf[i++] = '0';
    40004b34:	f9405fe0 	ldr	x0, [sp, #184]
    40004b38:	91000401 	add	x1, x0, #0x1
    40004b3c:	f9005fe1 	str	x1, [sp, #184]
    40004b40:	aa0003e1 	mov	x1, x0
    40004b44:	f9401fe0 	ldr	x0, [sp, #56]
    40004b48:	8b010000 	add	x0, x0, x1
    40004b4c:	52800601 	mov	w1, #0x30                  	// #48
    40004b50:	39000001 	strb	w1, [x0]
				break;
    40004b54:	14000002 	b	40004b5c <stdint_to_ascii+0x40c>
				break;
    40004b58:	d503201f 	nop
		}
		buf[i++] = '0';
    40004b5c:	f9405fe0 	ldr	x0, [sp, #184]
    40004b60:	91000401 	add	x1, x0, #0x1
    40004b64:	f9005fe1 	str	x1, [sp, #184]
    40004b68:	aa0003e1 	mov	x1, x0
    40004b6c:	f9401fe0 	ldr	x0, [sp, #56]
    40004b70:	8b010000 	add	x0, x0, x1
    40004b74:	52800601 	mov	w1, #0x30                  	// #48
    40004b78:	39000001 	strb	w1, [x0]
		buf[i] = '\0';
    40004b7c:	f9405fe0 	ldr	x0, [sp, #184]
    40004b80:	f9401fe1 	ldr	x1, [sp, #56]
    40004b84:	8b000020 	add	x0, x1, x0
    40004b88:	3900001f 	strb	wzr, [x0]
		return buf;
    40004b8c:	f9401fe0 	ldr	x0, [sp, #56]
    40004b90:	140000a6 	b	40004e28 <stdint_to_ascii+0x6d8>
	}

	uint64 i = 0;
    40004b94:	f9005bff 	str	xzr, [sp, #176]
	while (value > 0) {
    40004b98:	1400001f 	b	40004c14 <stdint_to_ascii+0x4c4>
		// repr enum values represent the base
		uint8 digit = value % repr;
    40004b9c:	b94043e1 	ldr	w1, [sp, #64]
    40004ba0:	f94067e0 	ldr	x0, [sp, #200]
    40004ba4:	9ac10802 	udiv	x2, x0, x1
    40004ba8:	9b017c41 	mul	x1, x2, x1
    40004bac:	cb010000 	sub	x0, x0, x1
    40004bb0:	39027be0 	strb	w0, [sp, #158]
		value /= repr;
    40004bb4:	b94043e0 	ldr	w0, [sp, #64]
    40004bb8:	f94067e1 	ldr	x1, [sp, #200]
    40004bbc:	9ac00820 	udiv	x0, x1, x0
    40004bc0:	f90067e0 	str	x0, [sp, #200]

		// + 1 for the \0 + negative (0 or 1) for '-'
		if (i + 1 + (uint64)negative + repr_len >= buf_len) goto panic;
    40004bc4:	39431fe1 	ldrb	w1, [sp, #199]
    40004bc8:	f9405be0 	ldr	x0, [sp, #176]
    40004bcc:	8b000021 	add	x1, x1, x0
    40004bd0:	f94077e0 	ldr	x0, [sp, #232]
    40004bd4:	8b000020 	add	x0, x1, x0
    40004bd8:	91000400 	add	x0, x0, #0x1
    40004bdc:	f9401be1 	ldr	x1, [sp, #48]
    40004be0:	eb00003f 	cmp	x1, x0
    40004be4:	54000fa9 	b.ls	40004dd8 <stdint_to_ascii+0x688>  // b.plast

		buf[i++] = STDINT_BASE_REPR_CHARS[digit];
    40004be8:	39427be3 	ldrb	w3, [sp, #158]
    40004bec:	f9405be0 	ldr	x0, [sp, #176]
    40004bf0:	91000401 	add	x1, x0, #0x1
    40004bf4:	f9005be1 	str	x1, [sp, #176]
    40004bf8:	f9401fe1 	ldr	x1, [sp, #56]
    40004bfc:	8b000020 	add	x0, x1, x0
    40004c00:	b0000021 	adrp	x1, 40009000 <UART_IRQ_HANDLERS+0x8>
    40004c04:	91300022 	add	x2, x1, #0xc00
    40004c08:	93407c61 	sxtw	x1, w3
    40004c0c:	38616841 	ldrb	w1, [x2, x1]
    40004c10:	39000001 	strb	w1, [x0]
	while (value > 0) {
    40004c14:	f94067e0 	ldr	x0, [sp, #200]
    40004c18:	f100001f 	cmp	x0, #0x0
    40004c1c:	54fffc01 	b.ne	40004b9c <stdint_to_ascii+0x44c>  // b.any
	}

	switch (repr) {
    40004c20:	b94043e0 	ldr	w0, [sp, #64]
    40004c24:	7100401f 	cmp	w0, #0x10
    40004c28:	54000220 	b.eq	40004c6c <stdint_to_ascii+0x51c>  // b.none
    40004c2c:	b94043e0 	ldr	w0, [sp, #64]
    40004c30:	7100401f 	cmp	w0, #0x10
    40004c34:	540006a8 	b.hi	40004d08 <stdint_to_ascii+0x5b8>  // b.pmore
    40004c38:	b94043e0 	ldr	w0, [sp, #64]
    40004c3c:	7100281f 	cmp	w0, #0xa
    40004c40:	54000620 	b.eq	40004d04 <stdint_to_ascii+0x5b4>  // b.none
    40004c44:	b94043e0 	ldr	w0, [sp, #64]
    40004c48:	7100281f 	cmp	w0, #0xa
    40004c4c:	540005e8 	b.hi	40004d08 <stdint_to_ascii+0x5b8>  // b.pmore
    40004c50:	b94043e0 	ldr	w0, [sp, #64]
    40004c54:	7100081f 	cmp	w0, #0x2
    40004c58:	54000280 	b.eq	40004ca8 <stdint_to_ascii+0x558>  // b.none
    40004c5c:	b94043e0 	ldr	w0, [sp, #64]
    40004c60:	7100201f 	cmp	w0, #0x8
    40004c64:	54000400 	b.eq	40004ce4 <stdint_to_ascii+0x594>  // b.none
    40004c68:	14000028 	b	40004d08 <stdint_to_ascii+0x5b8>
		case STDINT_BASE_REPR_DEC:
			break;
		case STDINT_BASE_REPR_HEX:	// Values are reversed after
			buf[i++] = 'x';
    40004c6c:	f9405be0 	ldr	x0, [sp, #176]
    40004c70:	91000401 	add	x1, x0, #0x1
    40004c74:	f9005be1 	str	x1, [sp, #176]
    40004c78:	f9401fe1 	ldr	x1, [sp, #56]
    40004c7c:	8b000020 	add	x0, x1, x0
    40004c80:	52800f01 	mov	w1, #0x78                  	// #120
    40004c84:	39000001 	strb	w1, [x0]
			buf[i++] = '0';
    40004c88:	f9405be0 	ldr	x0, [sp, #176]
    40004c8c:	91000401 	add	x1, x0, #0x1
    40004c90:	f9005be1 	str	x1, [sp, #176]
    40004c94:	f9401fe1 	ldr	x1, [sp, #56]
    40004c98:	8b000020 	add	x0, x1, x0
    40004c9c:	52800601 	mov	w1, #0x30                  	// #48
    40004ca0:	39000001 	strb	w1, [x0]
			break;
    40004ca4:	14000019 	b	40004d08 <stdint_to_ascii+0x5b8>
		case STDINT_BASE_REPR_BIN:
			buf[i++] = 'b';
    40004ca8:	f9405be0 	ldr	x0, [sp, #176]
    40004cac:	91000401 	add	x1, x0, #0x1
    40004cb0:	f9005be1 	str	x1, [sp, #176]
    40004cb4:	f9401fe1 	ldr	x1, [sp, #56]
    40004cb8:	8b000020 	add	x0, x1, x0
    40004cbc:	52800c41 	mov	w1, #0x62                  	// #98
    40004cc0:	39000001 	strb	w1, [x0]
			buf[i++] = '0';
    40004cc4:	f9405be0 	ldr	x0, [sp, #176]
    40004cc8:	91000401 	add	x1, x0, #0x1
    40004ccc:	f9005be1 	str	x1, [sp, #176]
    40004cd0:	f9401fe1 	ldr	x1, [sp, #56]
    40004cd4:	8b000020 	add	x0, x1, x0
    40004cd8:	52800601 	mov	w1, #0x30                  	// #48
    40004cdc:	39000001 	strb	w1, [x0]
			break;
    40004ce0:	1400000a 	b	40004d08 <stdint_to_ascii+0x5b8>
		case STDINT_BASE_REPR_OCT:
			buf[i++] = '0';
    40004ce4:	f9405be0 	ldr	x0, [sp, #176]
    40004ce8:	91000401 	add	x1, x0, #0x1
    40004cec:	f9005be1 	str	x1, [sp, #176]
    40004cf0:	f9401fe1 	ldr	x1, [sp, #56]
    40004cf4:	8b000020 	add	x0, x1, x0
    40004cf8:	52800601 	mov	w1, #0x30                  	// #48
    40004cfc:	39000001 	strb	w1, [x0]
			break;
    40004d00:	14000002 	b	40004d08 <stdint_to_ascii+0x5b8>
			break;
    40004d04:	d503201f 	nop
	}

	if (negative) buf[i++] = '-';
    40004d08:	39431fe0 	ldrb	w0, [sp, #199]
    40004d0c:	12000000 	and	w0, w0, #0x1
    40004d10:	7100001f 	cmp	w0, #0x0
    40004d14:	54000100 	b.eq	40004d34 <stdint_to_ascii+0x5e4>  // b.none
    40004d18:	f9405be0 	ldr	x0, [sp, #176]
    40004d1c:	91000401 	add	x1, x0, #0x1
    40004d20:	f9005be1 	str	x1, [sp, #176]
    40004d24:	f9401fe1 	ldr	x1, [sp, #56]
    40004d28:	8b000020 	add	x0, x1, x0
    40004d2c:	528005a1 	mov	w1, #0x2d                  	// #45
    40004d30:	39000001 	strb	w1, [x0]
	buf[i] = '\0';
    40004d34:	f9401fe1 	ldr	x1, [sp, #56]
    40004d38:	f9405be0 	ldr	x0, [sp, #176]
    40004d3c:	8b000020 	add	x0, x1, x0
    40004d40:	3900001f 	strb	wzr, [x0]

	// Reverse created string
	uint64 start = 0;
    40004d44:	f90057ff 	str	xzr, [sp, #168]
	uint64 end = i - 1;	 // i -1 to not include the '\0'
    40004d48:	f9405be0 	ldr	x0, [sp, #176]
    40004d4c:	d1000400 	sub	x0, x0, #0x1
    40004d50:	f90053e0 	str	x0, [sp, #160]
	while (start < end) {
    40004d54:	14000019 	b	40004db8 <stdint_to_ascii+0x668>
		char tmp = buf[start];
    40004d58:	f9401fe1 	ldr	x1, [sp, #56]
    40004d5c:	f94057e0 	ldr	x0, [sp, #168]
    40004d60:	8b000020 	add	x0, x1, x0
    40004d64:	39400000 	ldrb	w0, [x0]
    40004d68:	39027fe0 	strb	w0, [sp, #159]
		buf[start] = buf[end];
    40004d6c:	f9401fe1 	ldr	x1, [sp, #56]
    40004d70:	f94053e0 	ldr	x0, [sp, #160]
    40004d74:	8b000021 	add	x1, x1, x0
    40004d78:	f9401fe2 	ldr	x2, [sp, #56]
    40004d7c:	f94057e0 	ldr	x0, [sp, #168]
    40004d80:	8b000040 	add	x0, x2, x0
    40004d84:	39400021 	ldrb	w1, [x1]
    40004d88:	39000001 	strb	w1, [x0]
		buf[end] = tmp;
    40004d8c:	f9401fe1 	ldr	x1, [sp, #56]
    40004d90:	f94053e0 	ldr	x0, [sp, #160]
    40004d94:	8b000020 	add	x0, x1, x0
    40004d98:	39427fe1 	ldrb	w1, [sp, #159]
    40004d9c:	39000001 	strb	w1, [x0]
		start++;
    40004da0:	f94057e0 	ldr	x0, [sp, #168]
    40004da4:	91000400 	add	x0, x0, #0x1
    40004da8:	f90057e0 	str	x0, [sp, #168]
		end--;
    40004dac:	f94053e0 	ldr	x0, [sp, #160]
    40004db0:	d1000400 	sub	x0, x0, #0x1
    40004db4:	f90053e0 	str	x0, [sp, #160]
	while (start < end) {
    40004db8:	f94057e1 	ldr	x1, [sp, #168]
    40004dbc:	f94053e0 	ldr	x0, [sp, #160]
    40004dc0:	eb00003f 	cmp	x1, x0
    40004dc4:	54fffca3 	b.cc	40004d58 <stdint_to_ascii+0x608>  // b.lo, b.ul, b.last
	}

	return buf;
    40004dc8:	f9401fe0 	ldr	x0, [sp, #56]
    40004dcc:	14000017 	b	40004e28 <stdint_to_ascii+0x6d8>
		if (buf_len < 2 + repr_len) goto panic;
    40004dd0:	d503201f 	nop
    40004dd4:	14000002 	b	40004ddc <stdint_to_ascii+0x68c>
		if (i + 1 + (uint64)negative + repr_len >= buf_len) goto panic;
    40004dd8:	d503201f 	nop

panic:
	PANIC(
    40004ddc:	b0000020 	adrp	x0, 40009000 <UART_IRQ_HANDLERS+0x8>
    40004de0:	9131a000 	add	x0, x0, #0xc68
    40004de4:	f9003fe0 	str	x0, [sp, #120]
    40004de8:	b0000020 	adrp	x0, 40009000 <UART_IRQ_HANDLERS+0x8>
    40004dec:	912fa000 	add	x0, x0, #0xbe8
    40004df0:	f90043e0 	str	x0, [sp, #128]
    40004df4:	52801600 	mov	w0, #0xb0                  	// #176
    40004df8:	b9008be0 	str	w0, [sp, #136]
    40004dfc:	b9008fff 	str	wzr, [sp, #140]
    40004e00:	52800040 	mov	w0, #0x2                   	// #2
    40004e04:	b90093e0 	str	w0, [sp, #144]
    40004e08:	910043e0 	add	x0, sp, #0x10
    40004e0c:	9101e3e1 	add	x1, sp, #0x78
    40004e10:	3dc0003e 	ldr	q30, [x1]
    40004e14:	3dc0043f 	ldr	q31, [x1, #16]
    40004e18:	3d80001e 	str	q30, [x0]
    40004e1c:	3d80041f 	str	q31, [x0, #16]
    40004e20:	910043e0 	add	x0, sp, #0x10
    40004e24:	940001e5 	bl	400055b8 <set_and_throw_panic>
		"stdint_to_ascii: provided buffer is smaller than requied "
		"for provided stdint");

	return (char *)0x0;
}
    40004e28:	a8cf7bfd 	ldp	x29, x30, [sp], #240
    40004e2c:	d65f03c0 	ret

0000000040004e30 <memcpy64_aligned>:

// byte per byte
// extern void *_memcpy(void *dst, void *src, uint64 size);

void *memcpy64_aligned(void *dst, void *src, uint64 size)
{
    40004e30:	a9b97bfd 	stp	x29, x30, [sp, #-112]!
    40004e34:	910003fd 	mov	x29, sp
    40004e38:	f90027e0 	str	x0, [sp, #72]
    40004e3c:	f90023e1 	str	x1, [sp, #64]
    40004e40:	f9001fe2 	str	x2, [sp, #56]
	if (size == 0) return dst;
    40004e44:	f9401fe0 	ldr	x0, [sp, #56]
    40004e48:	f100001f 	cmp	x0, #0x0
    40004e4c:	54000061 	b.ne	40004e58 <memcpy64_aligned+0x28>  // b.any
    40004e50:	f94027e0 	ldr	x0, [sp, #72]
    40004e54:	1400004a 	b	40004f7c <memcpy64_aligned+0x14c>

	if (((uintptr)dst & 15) != 0)
    40004e58:	f94027e0 	ldr	x0, [sp, #72]
    40004e5c:	92400c00 	and	x0, x0, #0xf
    40004e60:	f100001f 	cmp	x0, #0x0
    40004e64:	54000280 	b.eq	40004eb4 <memcpy64_aligned+0x84>  // b.none
		PANIC("memcpy64_aligned: dst not aligned to 16 bytes");
    40004e68:	b0000020 	adrp	x0, 40009000 <UART_IRQ_HANDLERS+0x8>
    40004e6c:	9132e000 	add	x0, x0, #0xcb8
    40004e70:	f9002be0 	str	x0, [sp, #80]
    40004e74:	b0000020 	adrp	x0, 40009000 <UART_IRQ_HANDLERS+0x8>
    40004e78:	9133a000 	add	x0, x0, #0xce8
    40004e7c:	f9002fe0 	str	x0, [sp, #88]
    40004e80:	528002c0 	mov	w0, #0x16                  	// #22
    40004e84:	b90063e0 	str	w0, [sp, #96]
    40004e88:	b90067ff 	str	wzr, [sp, #100]
    40004e8c:	52800040 	mov	w0, #0x2                   	// #2
    40004e90:	b9006be0 	str	w0, [sp, #104]
    40004e94:	910043e0 	add	x0, sp, #0x10
    40004e98:	910143e1 	add	x1, sp, #0x50
    40004e9c:	3dc0003e 	ldr	q30, [x1]
    40004ea0:	3dc0043f 	ldr	q31, [x1, #16]
    40004ea4:	3d80001e 	str	q30, [x0]
    40004ea8:	3d80041f 	str	q31, [x0, #16]
    40004eac:	910043e0 	add	x0, sp, #0x10
    40004eb0:	940001c2 	bl	400055b8 <set_and_throw_panic>

	if (((uintptr)src & 15) != 0)
    40004eb4:	f94023e0 	ldr	x0, [sp, #64]
    40004eb8:	92400c00 	and	x0, x0, #0xf
    40004ebc:	f100001f 	cmp	x0, #0x0
    40004ec0:	54000280 	b.eq	40004f10 <memcpy64_aligned+0xe0>  // b.none
		PANIC("memcpy64_aligned: src not aligned to 16 bytes");
    40004ec4:	b0000020 	adrp	x0, 40009000 <UART_IRQ_HANDLERS+0x8>
    40004ec8:	91342000 	add	x0, x0, #0xd08
    40004ecc:	f9002be0 	str	x0, [sp, #80]
    40004ed0:	b0000020 	adrp	x0, 40009000 <UART_IRQ_HANDLERS+0x8>
    40004ed4:	9133a000 	add	x0, x0, #0xce8
    40004ed8:	f9002fe0 	str	x0, [sp, #88]
    40004edc:	52800320 	mov	w0, #0x19                  	// #25
    40004ee0:	b90063e0 	str	w0, [sp, #96]
    40004ee4:	b90067ff 	str	wzr, [sp, #100]
    40004ee8:	52800040 	mov	w0, #0x2                   	// #2
    40004eec:	b9006be0 	str	w0, [sp, #104]
    40004ef0:	910043e0 	add	x0, sp, #0x10
    40004ef4:	910143e1 	add	x1, sp, #0x50
    40004ef8:	3dc0003e 	ldr	q30, [x1]
    40004efc:	3dc0043f 	ldr	q31, [x1, #16]
    40004f00:	3d80001e 	str	q30, [x0]
    40004f04:	3d80041f 	str	q31, [x0, #16]
    40004f08:	910043e0 	add	x0, sp, #0x10
    40004f0c:	940001ab 	bl	400055b8 <set_and_throw_panic>

	if ((size & 63) != 0)
    40004f10:	f9401fe0 	ldr	x0, [sp, #56]
    40004f14:	92401400 	and	x0, x0, #0x3f
    40004f18:	f100001f 	cmp	x0, #0x0
    40004f1c:	54000280 	b.eq	40004f6c <memcpy64_aligned+0x13c>  // b.none
		PANIC("memcpy64_aligned: size is not a multiple of 64");
    40004f20:	b0000020 	adrp	x0, 40009000 <UART_IRQ_HANDLERS+0x8>
    40004f24:	9134e000 	add	x0, x0, #0xd38
    40004f28:	f9002be0 	str	x0, [sp, #80]
    40004f2c:	b0000020 	adrp	x0, 40009000 <UART_IRQ_HANDLERS+0x8>
    40004f30:	9133a000 	add	x0, x0, #0xce8
    40004f34:	f9002fe0 	str	x0, [sp, #88]
    40004f38:	52800380 	mov	w0, #0x1c                  	// #28
    40004f3c:	b90063e0 	str	w0, [sp, #96]
    40004f40:	b90067ff 	str	wzr, [sp, #100]
    40004f44:	52800040 	mov	w0, #0x2                   	// #2
    40004f48:	b9006be0 	str	w0, [sp, #104]
    40004f4c:	910043e0 	add	x0, sp, #0x10
    40004f50:	910143e1 	add	x1, sp, #0x50
    40004f54:	3dc0003e 	ldr	q30, [x1]
    40004f58:	3dc0043f 	ldr	q31, [x1, #16]
    40004f5c:	3d80001e 	str	q30, [x0]
    40004f60:	3d80041f 	str	q31, [x0, #16]
    40004f64:	910043e0 	add	x0, sp, #0x10
    40004f68:	94000194 	bl	400055b8 <set_and_throw_panic>

	return _memcpy64(dst, src, size);
    40004f6c:	f9401fe2 	ldr	x2, [sp, #56]
    40004f70:	f94023e1 	ldr	x1, [sp, #64]
    40004f74:	f94027e0 	ldr	x0, [sp, #72]
    40004f78:	97fff8a6 	bl	40003210 <_memcpy64>
}
    40004f7c:	a8c77bfd 	ldp	x29, x30, [sp], #112
    40004f80:	d65f03c0 	ret

0000000040004f84 <memcpy64>:

void *memcpy64(void *dst, void *src, uint64 size)
{
    40004f84:	a9b97bfd 	stp	x29, x30, [sp, #-112]!
    40004f88:	910003fd 	mov	x29, sp
    40004f8c:	f90027e0 	str	x0, [sp, #72]
    40004f90:	f90023e1 	str	x1, [sp, #64]
    40004f94:	f9001fe2 	str	x2, [sp, #56]
	if (size == 0) return dst;
    40004f98:	f9401fe0 	ldr	x0, [sp, #56]
    40004f9c:	f100001f 	cmp	x0, #0x0
    40004fa0:	54000061 	b.ne	40004fac <memcpy64+0x28>  // b.any
    40004fa4:	f94027e0 	ldr	x0, [sp, #72]
    40004fa8:	1400001c 	b	40005018 <memcpy64+0x94>

	if ((size & 63) != 0) PANIC("memcpy64: size is not a multiple of 64");
    40004fac:	f9401fe0 	ldr	x0, [sp, #56]
    40004fb0:	92401400 	and	x0, x0, #0x3f
    40004fb4:	f100001f 	cmp	x0, #0x0
    40004fb8:	54000280 	b.eq	40005008 <memcpy64+0x84>  // b.none
    40004fbc:	b0000020 	adrp	x0, 40009000 <UART_IRQ_HANDLERS+0x8>
    40004fc0:	9135a000 	add	x0, x0, #0xd68
    40004fc4:	f9002be0 	str	x0, [sp, #80]
    40004fc8:	b0000020 	adrp	x0, 40009000 <UART_IRQ_HANDLERS+0x8>
    40004fcc:	9133a000 	add	x0, x0, #0xce8
    40004fd0:	f9002fe0 	str	x0, [sp, #88]
    40004fd4:	528004a0 	mov	w0, #0x25                  	// #37
    40004fd8:	b90063e0 	str	w0, [sp, #96]
    40004fdc:	b90067ff 	str	wzr, [sp, #100]
    40004fe0:	52800040 	mov	w0, #0x2                   	// #2
    40004fe4:	b9006be0 	str	w0, [sp, #104]
    40004fe8:	910043e0 	add	x0, sp, #0x10
    40004fec:	910143e1 	add	x1, sp, #0x50
    40004ff0:	3dc0003e 	ldr	q30, [x1]
    40004ff4:	3dc0043f 	ldr	q31, [x1, #16]
    40004ff8:	3d80001e 	str	q30, [x0]
    40004ffc:	3d80041f 	str	q31, [x0, #16]
    40005000:	910043e0 	add	x0, sp, #0x10
    40005004:	9400016d 	bl	400055b8 <set_and_throw_panic>

	return _memcpy64(dst, src, size);
    40005008:	f9401fe2 	ldr	x2, [sp, #56]
    4000500c:	f94023e1 	ldr	x1, [sp, #64]
    40005010:	f94027e0 	ldr	x0, [sp, #72]
    40005014:	97fff87f 	bl	40003210 <_memcpy64>
}
    40005018:	a8c77bfd 	ldp	x29, x30, [sp], #112
    4000501c:	d65f03c0 	ret

0000000040005020 <test_memcpy>:
_Alignas(64) uint8 src[MEMCPY_TEST_SIZE];
_Alignas(64) uint8 dst[MEMCPY_TEST_SIZE];
_Alignas(64) uint8 ref[MEMCPY_TEST_SIZE];

void test_memcpy(size_t size_start)
{
    40005020:	a9b57bfd 	stp	x29, x30, [sp, #-176]!
    40005024:	910003fd 	mov	x29, sp
    40005028:	f9000fe0 	str	x0, [sp, #24]
	char buf[100];

	for (size_t i = 0; i < sizeof(src); i++) {
    4000502c:	f90057ff 	str	xzr, [sp, #168]
    40005030:	14000011 	b	40005074 <test_memcpy+0x54>
		src[i] = (uint8)(i * 37 + 13);
    40005034:	f94057e0 	ldr	x0, [sp, #168]
    40005038:	12001c01 	and	w1, w0, #0xff
    4000503c:	528004a0 	mov	w0, #0x25                  	// #37
    40005040:	1b007c20 	mul	w0, w1, w0
    40005044:	12001c00 	and	w0, w0, #0xff
    40005048:	11003400 	add	w0, w0, #0xd
    4000504c:	12001c02 	and	w2, w0, #0xff
    40005050:	b0000020 	adrp	x0, 4000a000 <STDINT_BASE_REPR_CHARS+0x400>
    40005054:	91220001 	add	x1, x0, #0x880
    40005058:	f94057e0 	ldr	x0, [sp, #168]
    4000505c:	8b000020 	add	x0, x1, x0
    40005060:	2a0203e1 	mov	w1, w2
    40005064:	39000001 	strb	w1, [x0]
	for (size_t i = 0; i < sizeof(src); i++) {
    40005068:	f94057e0 	ldr	x0, [sp, #168]
    4000506c:	91000400 	add	x0, x0, #0x1
    40005070:	f90057e0 	str	x0, [sp, #168]
    40005074:	f94057e1 	ldr	x1, [sp, #168]
    40005078:	b24057e0 	mov	x0, #0x3fffff              	// #4194303
    4000507c:	eb00003f 	cmp	x1, x0
    40005080:	54fffda9 	b.ls	40005034 <test_memcpy+0x14>  // b.plast
	}

	for (size_t i = size_start; i < sizeof(src); i++) {
    40005084:	f9400fe0 	ldr	x0, [sp, #24]
    40005088:	f90053e0 	str	x0, [sp, #160]
    4000508c:	14000064 	b	4000521c <test_memcpy+0x1fc>
		for (size_t j = 0; j < sizeof(src); j++) {
    40005090:	f9004fff 	str	xzr, [sp, #152]
    40005094:	1400000a 	b	400050bc <test_memcpy+0x9c>
			dst[j] = (uint8)(0xFF);
    40005098:	b0002020 	adrp	x0, 4040a000 <src+0x3ff780>
    4000509c:	91220001 	add	x1, x0, #0x880
    400050a0:	f9404fe0 	ldr	x0, [sp, #152]
    400050a4:	8b000020 	add	x0, x1, x0
    400050a8:	12800001 	mov	w1, #0xffffffff            	// #-1
    400050ac:	39000001 	strb	w1, [x0]
		for (size_t j = 0; j < sizeof(src); j++) {
    400050b0:	f9404fe0 	ldr	x0, [sp, #152]
    400050b4:	91000400 	add	x0, x0, #0x1
    400050b8:	f9004fe0 	str	x0, [sp, #152]
    400050bc:	f9404fe1 	ldr	x1, [sp, #152]
    400050c0:	b24057e0 	mov	x0, #0x3fffff              	// #4194303
    400050c4:	eb00003f 	cmp	x1, x0
    400050c8:	54fffe89 	b.ls	40005098 <test_memcpy+0x78>  // b.plast
		}

		memcpy(&dst[sizeof(dst) - 1 - i], &src[sizeof(src) - 1 - i], i);
    400050cc:	b24057e1 	mov	x1, #0x3fffff              	// #4194303
    400050d0:	f94053e0 	ldr	x0, [sp, #160]
    400050d4:	cb000021 	sub	x1, x1, x0
    400050d8:	b0002020 	adrp	x0, 4040a000 <src+0x3ff780>
    400050dc:	91220000 	add	x0, x0, #0x880
    400050e0:	8b000023 	add	x3, x1, x0
    400050e4:	b24057e1 	mov	x1, #0x3fffff              	// #4194303
    400050e8:	f94053e0 	ldr	x0, [sp, #160]
    400050ec:	cb000021 	sub	x1, x1, x0
    400050f0:	b0000020 	adrp	x0, 4000a000 <STDINT_BASE_REPR_CHARS+0x400>
    400050f4:	91220000 	add	x0, x0, #0x880
    400050f8:	8b000020 	add	x0, x1, x0
    400050fc:	f94053e2 	ldr	x2, [sp, #160]
    40005100:	aa0003e1 	mov	x1, x0
    40005104:	aa0303e0 	mov	x0, x3
    40005108:	97fff7fe 	bl	40003100 <_memcpy>

		for (size_t j = 0; j < i; j++) {
    4000510c:	f9004bff 	str	xzr, [sp, #144]
    40005110:	1400001c 	b	40005180 <test_memcpy+0x160>
			if (dst[(sizeof(dst) - 1 - i) + j] !=
    40005114:	f9404be1 	ldr	x1, [sp, #144]
    40005118:	f94053e0 	ldr	x0, [sp, #160]
    4000511c:	cb000021 	sub	x1, x1, x0
    40005120:	b24057e0 	mov	x0, #0x3fffff              	// #4194303
    40005124:	8b000020 	add	x0, x1, x0
    40005128:	b0002021 	adrp	x1, 4040a000 <src+0x3ff780>
    4000512c:	91220021 	add	x1, x1, #0x880
    40005130:	38606821 	ldrb	w1, [x1, x0]
				src[(sizeof(src) - 1 - i) + j]) {
    40005134:	f9404be2 	ldr	x2, [sp, #144]
    40005138:	f94053e0 	ldr	x0, [sp, #160]
    4000513c:	cb000042 	sub	x2, x2, x0
    40005140:	b24057e0 	mov	x0, #0x3fffff              	// #4194303
    40005144:	8b000040 	add	x0, x2, x0
    40005148:	b0000022 	adrp	x2, 4000a000 <STDINT_BASE_REPR_CHARS+0x400>
    4000514c:	91220042 	add	x2, x2, #0x880
    40005150:	38606840 	ldrb	w0, [x2, x0]
			if (dst[(sizeof(dst) - 1 - i) + j] !=
    40005154:	6b00003f 	cmp	w1, w0
    40005158:	540000e0 	b.eq	40005174 <test_memcpy+0x154>  // b.none
				UART_puts(UART_ID_2, "Something went wrong");
    4000515c:	90000020 	adrp	x0, 40009000 <UART_IRQ_HANDLERS+0x8>
    40005160:	91364001 	add	x1, x0, #0xd90
    40005164:	52800020 	mov	w0, #0x1                   	// #1
    40005168:	9400082c 	bl	40007218 <UART_puts>

				loop {}
    4000516c:	d503201f 	nop
    40005170:	17ffffff 	b	4000516c <test_memcpy+0x14c>
		for (size_t j = 0; j < i; j++) {
    40005174:	f9404be0 	ldr	x0, [sp, #144]
    40005178:	91000400 	add	x0, x0, #0x1
    4000517c:	f9004be0 	str	x0, [sp, #144]
    40005180:	f9404be1 	ldr	x1, [sp, #144]
    40005184:	f94053e0 	ldr	x0, [sp, #160]
    40005188:	eb00003f 	cmp	x1, x0
    4000518c:	54fffc43 	b.cc	40005114 <test_memcpy+0xf4>  // b.lo, b.ul, b.last
			}
		}

		if (i % 10000 == 0) {
    40005190:	f94053e1 	ldr	x1, [sp, #160]
    40005194:	d28b2960 	mov	x0, #0x594b                	// #22859
    40005198:	f2a710c0 	movk	x0, #0x3886, lsl #16
    4000519c:	f2d8bac0 	movk	x0, #0xc5d6, lsl #32
    400051a0:	f2e68da0 	movk	x0, #0x346d, lsl #48
    400051a4:	9bc07c20 	umulh	x0, x1, x0
    400051a8:	d34bfc00 	lsr	x0, x0, #11
    400051ac:	d284e202 	mov	x2, #0x2710                	// #10000
    400051b0:	9b027c00 	mul	x0, x0, x2
    400051b4:	cb000020 	sub	x0, x1, x0
    400051b8:	f100001f 	cmp	x0, #0x0
    400051bc:	540002a1 	b.ne	40005210 <test_memcpy+0x1f0>  // b.any
			UART_puts(UART_ID_2, "i: ");
    400051c0:	90000020 	adrp	x0, 40009000 <UART_IRQ_HANDLERS+0x8>
    400051c4:	9136a001 	add	x1, x0, #0xda8
    400051c8:	52800020 	mov	w0, #0x1                   	// #1
    400051cc:	94000813 	bl	40007218 <UART_puts>
			UART_puts(UART_ID_2,
					  stdint_to_ascii((STDINT_UNION){.int64 = i}, STDINT_UINT64,
    400051d0:	f94053e0 	ldr	x0, [sp, #160]
    400051d4:	aa0003e5 	mov	x5, x0
    400051d8:	9100a3e0 	add	x0, sp, #0x28
    400051dc:	52800144 	mov	w4, #0xa                   	// #10
    400051e0:	d2800c83 	mov	x3, #0x64                  	// #100
    400051e4:	aa0003e2 	mov	x2, x0
    400051e8:	528000e1 	mov	w1, #0x7                   	// #7
    400051ec:	aa0503e0 	mov	x0, x5
    400051f0:	97fffd58 	bl	40004750 <stdint_to_ascii>
			UART_puts(UART_ID_2,
    400051f4:	aa0003e1 	mov	x1, x0
    400051f8:	52800020 	mov	w0, #0x1                   	// #1
    400051fc:	94000807 	bl	40007218 <UART_puts>
									  buf, 100, STDINT_BASE_REPR_DEC));
			UART_puts(UART_ID_2, " ok\n\r");
    40005200:	90000020 	adrp	x0, 40009000 <UART_IRQ_HANDLERS+0x8>
    40005204:	9136c001 	add	x1, x0, #0xdb0
    40005208:	52800020 	mov	w0, #0x1                   	// #1
    4000520c:	94000803 	bl	40007218 <UART_puts>
	for (size_t i = size_start; i < sizeof(src); i++) {
    40005210:	f94053e0 	ldr	x0, [sp, #160]
    40005214:	91000400 	add	x0, x0, #0x1
    40005218:	f90053e0 	str	x0, [sp, #160]
    4000521c:	f94053e1 	ldr	x1, [sp, #160]
    40005220:	b24057e0 	mov	x0, #0x3fffff              	// #4194303
    40005224:	eb00003f 	cmp	x1, x0
    40005228:	54fff349 	b.ls	40005090 <test_memcpy+0x70>  // b.plast
		}
	}

	UART_puts(UART_ID_2, "FINISHED without hang");
    4000522c:	90000020 	adrp	x0, 40009000 <UART_IRQ_HANDLERS+0x8>
    40005230:	9136e001 	add	x1, x0, #0xdb8
    40005234:	52800020 	mov	w0, #0x1                   	// #1
    40005238:	940007f8 	bl	40007218 <UART_puts>
}
    4000523c:	d503201f 	nop
    40005240:	a8cb7bfd 	ldp	x29, x30, [sp], #176
    40005244:	d65f03c0 	ret

0000000040005248 <init_panic>:

_Alignas(16) static uint8 panic_message_buffer[PANIC_MESSAGE_LEN_INIT_VALUE];
_Alignas(16) static uint8 panic_file_buffer[PANIC_FILE_LEN_INIT_VALUE];

void init_panic()
{
    40005248:	a9be7bfd 	stp	x29, x30, [sp, #-32]!
    4000524c:	910003fd 	mov	x29, sp
	PANIC_MESSAGE_BUF_SIZE = sizeof(panic_message_buffer);
    40005250:	b0006020 	adrp	x0, 40c0a000 <ref+0x3ff780>
    40005254:	91220000 	add	x0, x0, #0x880
    40005258:	d2820001 	mov	x1, #0x1000                	// #4096
    4000525c:	f9000001 	str	x1, [x0]
	PANIC_FILE_BUF_SIZE = sizeof(panic_file_buffer);
    40005260:	b0006020 	adrp	x0, 40c0a000 <ref+0x3ff780>
    40005264:	91222000 	add	x0, x0, #0x888
    40005268:	d2808001 	mov	x1, #0x400                 	// #1024
    4000526c:	f9000001 	str	x1, [x0]

	PANIC_MESSAGE_BUF_PTR = panic_message_buffer;
    40005270:	b0006020 	adrp	x0, 40c0a000 <ref+0x3ff780>
    40005274:	91224000 	add	x0, x0, #0x890
    40005278:	b0006021 	adrp	x1, 40c0a000 <ref+0x3ff780>
    4000527c:	9126c021 	add	x1, x1, #0x9b0
    40005280:	f9000001 	str	x1, [x0]
	PANIC_FILE_BUF_PTR = panic_file_buffer;
    40005284:	b0006020 	adrp	x0, 40c0a000 <ref+0x3ff780>
    40005288:	91226000 	add	x0, x0, #0x898
    4000528c:	d0006021 	adrp	x1, 40c0b000 <panic_message_buffer+0x650>
    40005290:	9126c021 	add	x1, x1, #0x9b0
    40005294:	f9000001 	str	x1, [x0]

	PANIC_LINE = 0;
    40005298:	b0006020 	adrp	x0, 40c0a000 <ref+0x3ff780>
    4000529c:	91228000 	add	x0, x0, #0x8a0
    400052a0:	b900001f 	str	wzr, [x0]
	PANIC_COL = 0;
    400052a4:	b0006020 	adrp	x0, 40c0a000 <ref+0x3ff780>
    400052a8:	91229000 	add	x0, x0, #0x8a4
    400052ac:	b900001f 	str	wzr, [x0]

	PANIC_REASON = PANIC_REASON_UNDEFINED;
    400052b0:	b0006020 	adrp	x0, 40c0a000 <ref+0x3ff780>
    400052b4:	9122a000 	add	x0, x0, #0x8a8
    400052b8:	b900001f 	str	wzr, [x0]

	strcopy((char *)PANIC_MESSAGE_BUF_PTR,
    400052bc:	b0006020 	adrp	x0, 40c0a000 <ref+0x3ff780>
    400052c0:	91224000 	add	x0, x0, #0x890
    400052c4:	f9400003 	ldr	x3, [x0]
    400052c8:	d2820002 	mov	x2, #0x1000                	// #4096
    400052cc:	90000020 	adrp	x0, 40009000 <UART_IRQ_HANDLERS+0x8>
    400052d0:	91374001 	add	x1, x0, #0xdd0
    400052d4:	aa0303e0 	mov	x0, x3
    400052d8:	97fffcdb 	bl	40004644 <strcopy>
			"Panic message not defined and not changed from init_panic() "
			"initialization stage.",
			PANIC_MESSAGE_LEN_INIT_VALUE);

	strcopy((char *)PANIC_FILE_BUF_PTR, "Panic file not defined",
    400052dc:	b0006020 	adrp	x0, 40c0a000 <ref+0x3ff780>
    400052e0:	91226000 	add	x0, x0, #0x898
    400052e4:	f9400003 	ldr	x3, [x0]
    400052e8:	d2808002 	mov	x2, #0x400                 	// #1024
    400052ec:	90000020 	adrp	x0, 40009000 <UART_IRQ_HANDLERS+0x8>
    400052f0:	9138a001 	add	x1, x0, #0xe28
    400052f4:	aa0303e0 	mov	x0, x3
    400052f8:	97fffcd3 	bl	40004644 <strcopy>
			PANIC_FILE_LEN_INIT_VALUE);

	for (size_t i = 0; i < 32; i++) PANIC_REGISTERS[i] = 0xdeadbeefdeadbeef;
    400052fc:	f9000fff 	str	xzr, [sp, #24]
    40005300:	1400000d 	b	40005334 <init_panic+0xec>
    40005304:	b0006020 	adrp	x0, 40c0a000 <ref+0x3ff780>
    40005308:	9122c001 	add	x1, x0, #0x8b0
    4000530c:	f9400fe0 	ldr	x0, [sp, #24]
    40005310:	d37df000 	lsl	x0, x0, #3
    40005314:	8b000021 	add	x1, x1, x0
    40005318:	5297dde0 	mov	w0, #0xbeef                	// #48879
    4000531c:	72bbd5a0 	movk	w0, #0xdead, lsl #16
    40005320:	b9000020 	str	w0, [x1]
    40005324:	b9000420 	str	w0, [x1, #4]
    40005328:	f9400fe0 	ldr	x0, [sp, #24]
    4000532c:	91000400 	add	x0, x0, #0x1
    40005330:	f9000fe0 	str	x0, [sp, #24]
    40005334:	f9400fe0 	ldr	x0, [sp, #24]
    40005338:	f1007c1f 	cmp	x0, #0x1f
    4000533c:	54fffe49 	b.ls	40005304 <init_panic+0xbc>  // b.plast
}
    40005340:	d503201f 	nop
    40005344:	d503201f 	nop
    40005348:	a8c27bfd 	ldp	x29, x30, [sp], #32
    4000534c:	d65f03c0 	ret

0000000040005350 <set_panic>:

void set_panic(panic_info panic_info)
{
    40005350:	a9be7bfd 	stp	x29, x30, [sp, #-32]!
    40005354:	910003fd 	mov	x29, sp
    40005358:	f9000bf3 	str	x19, [sp, #16]
    4000535c:	aa0003f3 	mov	x19, x0
	PANIC_LINE = panic_info.location.line;
    40005360:	b9401261 	ldr	w1, [x19, #16]
    40005364:	b0006020 	adrp	x0, 40c0a000 <ref+0x3ff780>
    40005368:	91228000 	add	x0, x0, #0x8a0
    4000536c:	b9000001 	str	w1, [x0]
	PANIC_COL = panic_info.location.col;
    40005370:	b9401661 	ldr	w1, [x19, #20]
    40005374:	b0006020 	adrp	x0, 40c0a000 <ref+0x3ff780>
    40005378:	91229000 	add	x0, x0, #0x8a4
    4000537c:	b9000001 	str	w1, [x0]
	PANIC_REASON = panic_info.panic_reason;
    40005380:	b9401a61 	ldr	w1, [x19, #24]
    40005384:	b0006020 	adrp	x0, 40c0a000 <ref+0x3ff780>
    40005388:	9122a000 	add	x0, x0, #0x8a8
    4000538c:	b9000001 	str	w1, [x0]

	strcopy((char *)PANIC_MESSAGE_BUF_PTR, panic_info.message,
    40005390:	b0006020 	adrp	x0, 40c0a000 <ref+0x3ff780>
    40005394:	91224000 	add	x0, x0, #0x890
    40005398:	f9400000 	ldr	x0, [x0]
    4000539c:	f9400261 	ldr	x1, [x19]
    400053a0:	d2820002 	mov	x2, #0x1000                	// #4096
    400053a4:	97fffca8 	bl	40004644 <strcopy>
			PANIC_MESSAGE_LEN_INIT_VALUE);

	strcopy((char *)PANIC_FILE_BUF_PTR, panic_info.location.file,
    400053a8:	b0006020 	adrp	x0, 40c0a000 <ref+0x3ff780>
    400053ac:	91226000 	add	x0, x0, #0x898
    400053b0:	f9400000 	ldr	x0, [x0]
    400053b4:	f9400661 	ldr	x1, [x19, #8]
    400053b8:	d2808002 	mov	x2, #0x400                 	// #1024
    400053bc:	97fffca2 	bl	40004644 <strcopy>
			PANIC_FILE_LEN_INIT_VALUE);
}
    400053c0:	d503201f 	nop
    400053c4:	f9400bf3 	ldr	x19, [sp, #16]
    400053c8:	a8c27bfd 	ldp	x29, x30, [sp], #32
    400053cc:	d65f03c0 	ret

00000000400053d0 <panic>:

static void log_system_info();

// TODO: use panic via exceptions
_Noreturn void panic()
{
    400053d0:	a9b07bfd 	stp	x29, x30, [sp, #-256]!
    400053d4:	910003fd 	mov	x29, sp
#ifdef DEBUG
	__attribute__((unused)) volatile uint64 GDB_esr = _ARM_ESR_EL1();
    400053d8:	97ffeb59 	bl	4000013c <_ARM_ESR_EL1>
    400053dc:	f9007be0 	str	x0, [sp, #240]
	__attribute__((unused)) volatile uint64 GDB_elr = _ARM_ELR_EL1();
    400053e0:	97ffeb59 	bl	40000144 <_ARM_ELR_EL1>
    400053e4:	f90077e0 	str	x0, [sp, #232]
	__attribute__((unused)) volatile uint64 GDB_far = _ARM_FAR_EL1();
    400053e8:	97ffeb59 	bl	4000014c <_ARM_FAR_EL1>
    400053ec:	f90073e0 	str	x0, [sp, #224]
	__attribute__((unused)) volatile uint64 GDB_spsr = _ARM_SPSR_EL1();
    400053f0:	97ffeb59 	bl	40000154 <_ARM_SPSR_EL1>
    400053f4:	f9006fe0 	str	x0, [sp, #216]
#endif

	char buf[200];

	UART_init(PANIC_UART_OUTPUT);
    400053f8:	52800020 	mov	w0, #0x1                   	// #1
    400053fc:	940007b1 	bl	400072c0 <UART_init>
	PANIC_puts("\n\r[PANIC!]");
    40005400:	90000020 	adrp	x0, 40009000 <UART_IRQ_HANDLERS+0x8>
    40005404:	91390001 	add	x1, x0, #0xe40
    40005408:	52800020 	mov	w0, #0x1                   	// #1
    4000540c:	94000783 	bl	40007218 <UART_puts>

	char *panic_reason_str = "INVALID";
    40005410:	90000020 	adrp	x0, 40009000 <UART_IRQ_HANDLERS+0x8>
    40005414:	91394000 	add	x0, x0, #0xe50
    40005418:	f9007fe0 	str	x0, [sp, #248]
	switch (PANIC_REASON) {
    4000541c:	b0006020 	adrp	x0, 40c0a000 <ref+0x3ff780>
    40005420:	9122a000 	add	x0, x0, #0x8a8
    40005424:	b9400000 	ldr	w0, [x0]
    40005428:	71000c1f 	cmp	w0, #0x3
    4000542c:	54000300 	b.eq	4000548c <panic+0xbc>  // b.none
    40005430:	71000c1f 	cmp	w0, #0x3
    40005434:	54000348 	b.hi	4000549c <panic+0xcc>  // b.pmore
    40005438:	7100081f 	cmp	w0, #0x2
    4000543c:	54000200 	b.eq	4000547c <panic+0xac>  // b.none
    40005440:	7100081f 	cmp	w0, #0x2
    40005444:	540002c8 	b.hi	4000549c <panic+0xcc>  // b.pmore
    40005448:	7100001f 	cmp	w0, #0x0
    4000544c:	54000080 	b.eq	4000545c <panic+0x8c>  // b.none
    40005450:	7100041f 	cmp	w0, #0x1
    40005454:	540000c0 	b.eq	4000546c <panic+0x9c>  // b.none
    40005458:	14000011 	b	4000549c <panic+0xcc>
		case PANIC_REASON_UNDEFINED:
			panic_reason_str = "UNDEFINED";
    4000545c:	90000020 	adrp	x0, 40009000 <UART_IRQ_HANDLERS+0x8>
    40005460:	91396000 	add	x0, x0, #0xe58
    40005464:	f9007fe0 	str	x0, [sp, #248]
			break;
    40005468:	1400000d 	b	4000549c <panic+0xcc>
		case PANIC_REASON_EXCEPTION:
			panic_reason_str = "EXCEPTION";
    4000546c:	90000020 	adrp	x0, 40009000 <UART_IRQ_HANDLERS+0x8>
    40005470:	9139a000 	add	x0, x0, #0xe68
    40005474:	f9007fe0 	str	x0, [sp, #248]
			break;
    40005478:	14000009 	b	4000549c <panic+0xcc>
		case PANIC_REASON_MANUAL_ABORT:
			panic_reason_str = "MANUAL_ABORT";
    4000547c:	90000020 	adrp	x0, 40009000 <UART_IRQ_HANDLERS+0x8>
    40005480:	9139e000 	add	x0, x0, #0xe78
    40005484:	f9007fe0 	str	x0, [sp, #248]
			break;
    40005488:	14000005 	b	4000549c <panic+0xcc>
		case PANIC_REASON_RUST_PANIC:
			panic_reason_str = "RUST_PANIC";
    4000548c:	90000020 	adrp	x0, 40009000 <UART_IRQ_HANDLERS+0x8>
    40005490:	913a2000 	add	x0, x0, #0xe88
    40005494:	f9007fe0 	str	x0, [sp, #248]
			break;
    40005498:	d503201f 	nop
	}

	PANIC_puts("\n\rPanic reason:\t");
    4000549c:	90000020 	adrp	x0, 40009000 <UART_IRQ_HANDLERS+0x8>
    400054a0:	913a6001 	add	x1, x0, #0xe98
    400054a4:	52800020 	mov	w0, #0x1                   	// #1
    400054a8:	9400075c 	bl	40007218 <UART_puts>
	PANIC_puts(panic_reason_str);
    400054ac:	f9407fe1 	ldr	x1, [sp, #248]
    400054b0:	52800020 	mov	w0, #0x1                   	// #1
    400054b4:	94000759 	bl	40007218 <UART_puts>

	PANIC_puts("\n\rPanic message:\t");
    400054b8:	90000020 	adrp	x0, 40009000 <UART_IRQ_HANDLERS+0x8>
    400054bc:	913ac001 	add	x1, x0, #0xeb0
    400054c0:	52800020 	mov	w0, #0x1                   	// #1
    400054c4:	94000755 	bl	40007218 <UART_puts>
	PANIC_puts((char *)PANIC_MESSAGE_BUF_PTR);
    400054c8:	b0006020 	adrp	x0, 40c0a000 <ref+0x3ff780>
    400054cc:	91224000 	add	x0, x0, #0x890
    400054d0:	f9400000 	ldr	x0, [x0]
    400054d4:	aa0003e1 	mov	x1, x0
    400054d8:	52800020 	mov	w0, #0x1                   	// #1
    400054dc:	9400074f 	bl	40007218 <UART_puts>

	PANIC_puts("\n\rPanic file:\t");
    400054e0:	90000020 	adrp	x0, 40009000 <UART_IRQ_HANDLERS+0x8>
    400054e4:	913b2001 	add	x1, x0, #0xec8
    400054e8:	52800020 	mov	w0, #0x1                   	// #1
    400054ec:	9400074b 	bl	40007218 <UART_puts>
	PANIC_puts((char *)PANIC_FILE_BUF_PTR);
    400054f0:	b0006020 	adrp	x0, 40c0a000 <ref+0x3ff780>
    400054f4:	91226000 	add	x0, x0, #0x898
    400054f8:	f9400000 	ldr	x0, [x0]
    400054fc:	aa0003e1 	mov	x1, x0
    40005500:	52800020 	mov	w0, #0x1                   	// #1
    40005504:	94000745 	bl	40007218 <UART_puts>
	PANIC_puts(" at line ");
    40005508:	90000020 	adrp	x0, 40009000 <UART_IRQ_HANDLERS+0x8>
    4000550c:	913b6001 	add	x1, x0, #0xed8
    40005510:	52800020 	mov	w0, #0x1                   	// #1
    40005514:	94000741 	bl	40007218 <UART_puts>

	PANIC_puts(stdint_to_ascii((STDINT_UNION){.uint32 = PANIC_LINE},
    40005518:	d2800000 	mov	x0, #0x0                   	// #0
    4000551c:	b0006021 	adrp	x1, 40c0a000 <ref+0x3ff780>
    40005520:	91228021 	add	x1, x1, #0x8a0
    40005524:	b9400021 	ldr	w1, [x1]
    40005528:	b3407c20 	bfxil	x0, x1, #0, #32
    4000552c:	910043e1 	add	x1, sp, #0x10
    40005530:	52800144 	mov	w4, #0xa                   	// #10
    40005534:	d2801903 	mov	x3, #0xc8                  	// #200
    40005538:	aa0103e2 	mov	x2, x1
    4000553c:	528000a1 	mov	w1, #0x5                   	// #5
    40005540:	97fffc84 	bl	40004750 <stdint_to_ascii>
    40005544:	aa0003e1 	mov	x1, x0
    40005548:	52800020 	mov	w0, #0x1                   	// #1
    4000554c:	94000733 	bl	40007218 <UART_puts>
							   STDINT_UINT32, buf, 200, STDINT_BASE_REPR_DEC));

	if (PANIC_COL != 0) {
    40005550:	b0006020 	adrp	x0, 40c0a000 <ref+0x3ff780>
    40005554:	91229000 	add	x0, x0, #0x8a4
    40005558:	b9400000 	ldr	w0, [x0]
    4000555c:	7100001f 	cmp	w0, #0x0
    40005560:	54000260 	b.eq	400055ac <panic+0x1dc>  // b.none
		PANIC_puts(":");
    40005564:	90000020 	adrp	x0, 40009000 <UART_IRQ_HANDLERS+0x8>
    40005568:	913ba001 	add	x1, x0, #0xee8
    4000556c:	52800020 	mov	w0, #0x1                   	// #1
    40005570:	9400072a 	bl	40007218 <UART_puts>
		PANIC_puts(stdint_to_ascii((STDINT_UNION){.uint32 = PANIC_COL},
    40005574:	d2800000 	mov	x0, #0x0                   	// #0
    40005578:	b0006021 	adrp	x1, 40c0a000 <ref+0x3ff780>
    4000557c:	91229021 	add	x1, x1, #0x8a4
    40005580:	b9400021 	ldr	w1, [x1]
    40005584:	b3407c20 	bfxil	x0, x1, #0, #32
    40005588:	910043e1 	add	x1, sp, #0x10
    4000558c:	52800144 	mov	w4, #0xa                   	// #10
    40005590:	d2801903 	mov	x3, #0xc8                  	// #200
    40005594:	aa0103e2 	mov	x2, x1
    40005598:	528000a1 	mov	w1, #0x5                   	// #5
    4000559c:	97fffc6d 	bl	40004750 <stdint_to_ascii>
    400055a0:	aa0003e1 	mov	x1, x0
    400055a4:	52800020 	mov	w0, #0x1                   	// #1
    400055a8:	9400071c 	bl	40007218 <UART_puts>
								   STDINT_UINT32, buf, 200,
								   STDINT_BASE_REPR_DEC));
	}

	log_system_info();
    400055ac:	94000011 	bl	400055f0 <log_system_info>

	loop {}	 // TODO: TUI with options
    400055b0:	d503201f 	nop
    400055b4:	17ffffff 	b	400055b0 <panic+0x1e0>

00000000400055b8 <set_and_throw_panic>:
}

_Noreturn void set_and_throw_panic(panic_info panic_info)
{
    400055b8:	a9bc7bfd 	stp	x29, x30, [sp, #-64]!
    400055bc:	910003fd 	mov	x29, sp
    400055c0:	f9000bf3 	str	x19, [sp, #16]
    400055c4:	aa0003f3 	mov	x19, x0
	_panic_exception_save_gpr();
    400055c8:	97fff7aa 	bl	40003470 <_panic_exception_save_gpr>
	set_panic(panic_info);
    400055cc:	910083e0 	add	x0, sp, #0x20
    400055d0:	aa1303e1 	mov	x1, x19
    400055d4:	3dc0003e 	ldr	q30, [x1]
    400055d8:	3dc0043f 	ldr	q31, [x1, #16]
    400055dc:	3d80001e 	str	q30, [x0]
    400055e0:	3d80041f 	str	q31, [x0, #16]
    400055e4:	910083e0 	add	x0, sp, #0x20
    400055e8:	97ffff5a 	bl	40005350 <set_panic>
	panic();
    400055ec:	97ffff79 	bl	400053d0 <panic>

00000000400055f0 <log_system_info>:
// System info
static void log_exception_info();
static void log_registers();

static void log_system_info()
{
    400055f0:	a9bd7bfd 	stp	x29, x30, [sp, #-48]!
    400055f4:	910003fd 	mov	x29, sp
	ARM_exception_status status = ARM_exceptions_get_status();
    400055f8:	97fffb68 	bl	40004398 <ARM_exceptions_get_status>
    400055fc:	b9001be0 	str	w0, [sp, #24]

	PANIC_puts("\n\rExceptions state:\n\r");
    40005600:	90000020 	adrp	x0, 40009000 <UART_IRQ_HANDLERS+0x8>
    40005604:	913bc001 	add	x1, x0, #0xef0
    40005608:	52800020 	mov	w0, #0x1                   	// #1
    4000560c:	94000703 	bl	40007218 <UART_puts>

	char *enabled = "enabled\n\r";
    40005610:	90000020 	adrp	x0, 40009000 <UART_IRQ_HANDLERS+0x8>
    40005614:	913c2000 	add	x0, x0, #0xf08
    40005618:	f90017e0 	str	x0, [sp, #40]
	char *disabled = "disabled\n\r";
    4000561c:	90000020 	adrp	x0, 40009000 <UART_IRQ_HANDLERS+0x8>
    40005620:	913c6000 	add	x0, x0, #0xf18
    40005624:	f90013e0 	str	x0, [sp, #32]

	PANIC_puts("\tFIQ:    ");
    40005628:	90000020 	adrp	x0, 40009000 <UART_IRQ_HANDLERS+0x8>
    4000562c:	913ca001 	add	x1, x0, #0xf28
    40005630:	52800020 	mov	w0, #0x1                   	// #1
    40005634:	940006f9 	bl	40007218 <UART_puts>
	PANIC_puts(status.fiq ? enabled : disabled);
    40005638:	394063e0 	ldrb	w0, [sp, #24]
    4000563c:	12000000 	and	w0, w0, #0x1
    40005640:	7100001f 	cmp	w0, #0x0
    40005644:	54000060 	b.eq	40005650 <log_system_info+0x60>  // b.none
    40005648:	f94017e0 	ldr	x0, [sp, #40]
    4000564c:	14000002 	b	40005654 <log_system_info+0x64>
    40005650:	f94013e0 	ldr	x0, [sp, #32]
    40005654:	aa0003e1 	mov	x1, x0
    40005658:	52800020 	mov	w0, #0x1                   	// #1
    4000565c:	940006ef 	bl	40007218 <UART_puts>

	PANIC_puts("\tIRQ:    ");
    40005660:	90000020 	adrp	x0, 40009000 <UART_IRQ_HANDLERS+0x8>
    40005664:	913ce001 	add	x1, x0, #0xf38
    40005668:	52800020 	mov	w0, #0x1                   	// #1
    4000566c:	940006eb 	bl	40007218 <UART_puts>
	PANIC_puts(status.irq ? enabled : disabled);
    40005670:	394067e0 	ldrb	w0, [sp, #25]
    40005674:	12000000 	and	w0, w0, #0x1
    40005678:	7100001f 	cmp	w0, #0x0
    4000567c:	54000060 	b.eq	40005688 <log_system_info+0x98>  // b.none
    40005680:	f94017e0 	ldr	x0, [sp, #40]
    40005684:	14000002 	b	4000568c <log_system_info+0x9c>
    40005688:	f94013e0 	ldr	x0, [sp, #32]
    4000568c:	aa0003e1 	mov	x1, x0
    40005690:	52800020 	mov	w0, #0x1                   	// #1
    40005694:	940006e1 	bl	40007218 <UART_puts>

	PANIC_puts("\tSError: ");
    40005698:	90000020 	adrp	x0, 40009000 <UART_IRQ_HANDLERS+0x8>
    4000569c:	913d2001 	add	x1, x0, #0xf48
    400056a0:	52800020 	mov	w0, #0x1                   	// #1
    400056a4:	940006dd 	bl	40007218 <UART_puts>
	PANIC_puts(status.serror ? enabled : disabled);
    400056a8:	39406be0 	ldrb	w0, [sp, #26]
    400056ac:	12000000 	and	w0, w0, #0x1
    400056b0:	7100001f 	cmp	w0, #0x0
    400056b4:	54000060 	b.eq	400056c0 <log_system_info+0xd0>  // b.none
    400056b8:	f94017e0 	ldr	x0, [sp, #40]
    400056bc:	14000002 	b	400056c4 <log_system_info+0xd4>
    400056c0:	f94013e0 	ldr	x0, [sp, #32]
    400056c4:	aa0003e1 	mov	x1, x0
    400056c8:	52800020 	mov	w0, #0x1                   	// #1
    400056cc:	940006d3 	bl	40007218 <UART_puts>

	PANIC_puts("\tDebug:  ");
    400056d0:	90000020 	adrp	x0, 40009000 <UART_IRQ_HANDLERS+0x8>
    400056d4:	913d6001 	add	x1, x0, #0xf58
    400056d8:	52800020 	mov	w0, #0x1                   	// #1
    400056dc:	940006cf 	bl	40007218 <UART_puts>
	PANIC_puts(status.debug ? enabled : disabled);
    400056e0:	39406fe0 	ldrb	w0, [sp, #27]
    400056e4:	12000000 	and	w0, w0, #0x1
    400056e8:	7100001f 	cmp	w0, #0x0
    400056ec:	54000060 	b.eq	400056f8 <log_system_info+0x108>  // b.none
    400056f0:	f94017e0 	ldr	x0, [sp, #40]
    400056f4:	14000002 	b	400056fc <log_system_info+0x10c>
    400056f8:	f94013e0 	ldr	x0, [sp, #32]
    400056fc:	aa0003e1 	mov	x1, x0
    40005700:	52800020 	mov	w0, #0x1                   	// #1
    40005704:	940006c5 	bl	40007218 <UART_puts>

	// TODO: log registers

	if (PANIC_REASON == PANIC_REASON_EXCEPTION) log_exception_info();
    40005708:	b0006020 	adrp	x0, 40c0a000 <ref+0x3ff780>
    4000570c:	9122a000 	add	x0, x0, #0x8a8
    40005710:	b9400000 	ldr	w0, [x0]
    40005714:	7100041f 	cmp	w0, #0x1
    40005718:	54000041 	b.ne	40005720 <log_system_info+0x130>  // b.any
    4000571c:	94000005 	bl	40005730 <log_exception_info>

	log_registers();
    40005720:	9400008c 	bl	40005950 <log_registers>
}
    40005724:	d503201f 	nop
    40005728:	a8c37bfd 	ldp	x29, x30, [sp], #48
    4000572c:	d65f03c0 	ret

0000000040005730 <log_exception_info>:
	"EL2",
	"EL3",
};

static void log_exception_info()
{
    40005730:	a9a97bfd 	stp	x29, x30, [sp, #-368]!
    40005734:	910003fd 	mov	x29, sp
	uint64 esr;
	uint64 elr;
	uint64 far;
	uint64 spsr;

	uint64 current_el = _ARM_currentEL();
    40005738:	97ffea70 	bl	400000f8 <_ARM_currentEL>
    4000573c:	f900a3e0 	str	x0, [sp, #320]

	switch (current_el) {
    40005740:	f940a3e0 	ldr	x0, [sp, #320]
    40005744:	f1000c1f 	cmp	x0, #0x3
    40005748:	54000220 	b.eq	4000578c <log_exception_info+0x5c>  // b.none
    4000574c:	f940a3e0 	ldr	x0, [sp, #320]
    40005750:	f1000c1f 	cmp	x0, #0x3
    40005754:	54000648 	b.hi	4000581c <log_exception_info+0xec>  // b.pmore
    40005758:	f940a3e0 	ldr	x0, [sp, #320]
    4000575c:	f100081f 	cmp	x0, #0x2
    40005760:	54000200 	b.eq	400057a0 <log_exception_info+0x70>  // b.none
    40005764:	f940a3e0 	ldr	x0, [sp, #320]
    40005768:	f100081f 	cmp	x0, #0x2
    4000576c:	54000588 	b.hi	4000581c <log_exception_info+0xec>  // b.pmore
    40005770:	f940a3e0 	ldr	x0, [sp, #320]
    40005774:	f100001f 	cmp	x0, #0x0
    40005778:	54000480 	b.eq	40005808 <log_exception_info+0xd8>  // b.none
    4000577c:	f940a3e0 	ldr	x0, [sp, #320]
    40005780:	f100041f 	cmp	x0, #0x1
    40005784:	54000280 	b.eq	400057d4 <log_exception_info+0xa4>  // b.none
    40005788:	14000025 	b	4000581c <log_exception_info+0xec>
		case 3:
			PANIC_puts("\n\rException info (EL3)!\n\r");
    4000578c:	90000020 	adrp	x0, 40009000 <UART_IRQ_HANDLERS+0x8>
    40005790:	913ea001 	add	x1, x0, #0xfa8
    40005794:	52800020 	mov	w0, #0x1                   	// #1
    40005798:	940006a0 	bl	40007218 <UART_puts>
			return;
    4000579c:	1400006b 	b	40005948 <log_exception_info+0x218>
		case 2:
			esr = _ARM_ESR_EL2();
    400057a0:	97ffea5f 	bl	4000011c <_ARM_ESR_EL2>
    400057a4:	f900b7e0 	str	x0, [sp, #360]
			elr = _ARM_ELR_EL2();
    400057a8:	97ffea5f 	bl	40000124 <_ARM_ELR_EL2>
    400057ac:	f900b3e0 	str	x0, [sp, #352]
			far = _ARM_FAR_EL2();
    400057b0:	97ffea5f 	bl	4000012c <_ARM_FAR_EL2>
    400057b4:	f900afe0 	str	x0, [sp, #344]
			spsr = _ARM_SPSR_EL2();
    400057b8:	97ffea5f 	bl	40000134 <_ARM_SPSR_EL2>
    400057bc:	f900abe0 	str	x0, [sp, #336]

			PANIC_puts("\n\rException info (EL2):\n\r");
    400057c0:	90000020 	adrp	x0, 40009000 <UART_IRQ_HANDLERS+0x8>
    400057c4:	913f2001 	add	x1, x0, #0xfc8
    400057c8:	52800020 	mov	w0, #0x1                   	// #1
    400057cc:	94000693 	bl	40007218 <UART_puts>
			break;
    400057d0:	14000018 	b	40005830 <log_exception_info+0x100>
		case 1:
			esr = _ARM_ESR_EL1();
    400057d4:	97ffea5a 	bl	4000013c <_ARM_ESR_EL1>
    400057d8:	f900b7e0 	str	x0, [sp, #360]
			elr = _ARM_ELR_EL1();
    400057dc:	97ffea5a 	bl	40000144 <_ARM_ELR_EL1>
    400057e0:	f900b3e0 	str	x0, [sp, #352]
			far = _ARM_FAR_EL1();
    400057e4:	97ffea5a 	bl	4000014c <_ARM_FAR_EL1>
    400057e8:	f900afe0 	str	x0, [sp, #344]
			spsr = _ARM_SPSR_EL1();
    400057ec:	97ffea5a 	bl	40000154 <_ARM_SPSR_EL1>
    400057f0:	f900abe0 	str	x0, [sp, #336]

			PANIC_puts("\n\rException info (EL1):\n\r");
    400057f4:	90000020 	adrp	x0, 40009000 <UART_IRQ_HANDLERS+0x8>
    400057f8:	913fa001 	add	x1, x0, #0xfe8
    400057fc:	52800020 	mov	w0, #0x1                   	// #1
    40005800:	94000686 	bl	40007218 <UART_puts>
			break;
    40005804:	1400000b 	b	40005830 <log_exception_info+0x100>
		case 0:
			PANIC_puts("\n\rException info (EL0)!\n\r");
    40005808:	b0000020 	adrp	x0, 4000a000 <STDINT_BASE_REPR_CHARS+0x400>
    4000580c:	91002001 	add	x1, x0, #0x8
    40005810:	52800020 	mov	w0, #0x1                   	// #1
    40005814:	94000681 	bl	40007218 <UART_puts>
			return;
    40005818:	1400004c 	b	40005948 <log_exception_info+0x218>
		default:
			PANIC_puts("\n\rERROR: log_exception_info\n\r");
    4000581c:	b0000020 	adrp	x0, 4000a000 <STDINT_BASE_REPR_CHARS+0x400>
    40005820:	9100a001 	add	x1, x0, #0x28
    40005824:	52800020 	mov	w0, #0x1                   	// #1
    40005828:	9400067c 	bl	40007218 <UART_puts>
			return;
    4000582c:	14000047 	b	40005948 <log_exception_info+0x218>
	}

	char buf[256];

	uint64 values[4] = {
    40005830:	9105e3e0 	add	x0, sp, #0x178
    40005834:	d1058000 	sub	x0, x0, #0x160
    40005838:	f940b7e1 	ldr	x1, [sp, #360]
    4000583c:	f9000001 	str	x1, [x0]
    40005840:	9105e3e0 	add	x0, sp, #0x178
    40005844:	d1058000 	sub	x0, x0, #0x160
    40005848:	f940b3e1 	ldr	x1, [sp, #352]
    4000584c:	f9000401 	str	x1, [x0, #8]
    40005850:	9105e3e0 	add	x0, sp, #0x178
    40005854:	d1058000 	sub	x0, x0, #0x160
    40005858:	f940afe1 	ldr	x1, [sp, #344]
    4000585c:	f9000801 	str	x1, [x0, #16]
    40005860:	9105e3e0 	add	x0, sp, #0x178
    40005864:	d1058000 	sub	x0, x0, #0x160
    40005868:	f940abe1 	ldr	x1, [sp, #336]
    4000586c:	f9000c01 	str	x1, [x0, #24]
		elr,
		far,
		spsr,
	};

	for (size_t i = 0; i < 4; i++) {
    40005870:	f900a7ff 	str	xzr, [sp, #328]
    40005874:	14000032 	b	4000593c <log_exception_info+0x20c>
		char *fmt_value =
			stdint_to_ascii((STDINT_UNION){.uint64 = values[i]}, STDINT_UINT64,
    40005878:	9105e3e0 	add	x0, sp, #0x178
    4000587c:	d1058000 	sub	x0, x0, #0x160
    40005880:	f940a7e1 	ldr	x1, [sp, #328]
    40005884:	f8617800 	ldr	x0, [x0, x1, lsl #3]
    40005888:	aa0003e5 	mov	x5, x0
    4000588c:	9100e3e0 	add	x0, sp, #0x38
    40005890:	52800204 	mov	w4, #0x10                  	// #16
    40005894:	d2801903 	mov	x3, #0xc8                  	// #200
    40005898:	aa0003e2 	mov	x2, x0
    4000589c:	528000e1 	mov	w1, #0x7                   	// #7
    400058a0:	aa0503e0 	mov	x0, x5
    400058a4:	97fffbab 	bl	40004750 <stdint_to_ascii>
    400058a8:	f9009fe0 	str	x0, [sp, #312]
							buf, 200, STDINT_BASE_REPR_HEX);
		PANIC_puts("\t");
    400058ac:	b0000020 	adrp	x0, 4000a000 <STDINT_BASE_REPR_CHARS+0x400>
    400058b0:	91012001 	add	x1, x0, #0x48
    400058b4:	52800020 	mov	w0, #0x1                   	// #1
    400058b8:	94000658 	bl	40007218 <UART_puts>
		PANIC_puts(exception_reg_names[i]);
    400058bc:	b0000020 	adrp	x0, 4000a000 <STDINT_BASE_REPR_CHARS+0x400>
    400058c0:	910d0000 	add	x0, x0, #0x340
    400058c4:	f940a7e1 	ldr	x1, [sp, #328]
    400058c8:	f8617800 	ldr	x0, [x0, x1, lsl #3]
    400058cc:	aa0003e1 	mov	x1, x0
    400058d0:	52800020 	mov	w0, #0x1                   	// #1
    400058d4:	94000651 	bl	40007218 <UART_puts>
		PANIC_puts("_");
    400058d8:	b0000020 	adrp	x0, 4000a000 <STDINT_BASE_REPR_CHARS+0x400>
    400058dc:	91014001 	add	x1, x0, #0x50
    400058e0:	52800020 	mov	w0, #0x1                   	// #1
    400058e4:	9400064d 	bl	40007218 <UART_puts>
		PANIC_puts(el_names[current_el]);
    400058e8:	b0000020 	adrp	x0, 4000a000 <STDINT_BASE_REPR_CHARS+0x400>
    400058ec:	910d8000 	add	x0, x0, #0x360
    400058f0:	f940a3e1 	ldr	x1, [sp, #320]
    400058f4:	f8617800 	ldr	x0, [x0, x1, lsl #3]
    400058f8:	aa0003e1 	mov	x1, x0
    400058fc:	52800020 	mov	w0, #0x1                   	// #1
    40005900:	94000646 	bl	40007218 <UART_puts>
		PANIC_puts(": ");
    40005904:	b0000020 	adrp	x0, 4000a000 <STDINT_BASE_REPR_CHARS+0x400>
    40005908:	91016001 	add	x1, x0, #0x58
    4000590c:	52800020 	mov	w0, #0x1                   	// #1
    40005910:	94000642 	bl	40007218 <UART_puts>
		PANIC_puts(fmt_value);
    40005914:	f9409fe1 	ldr	x1, [sp, #312]
    40005918:	52800020 	mov	w0, #0x1                   	// #1
    4000591c:	9400063f 	bl	40007218 <UART_puts>
		PANIC_puts("\n\r");
    40005920:	b0000020 	adrp	x0, 4000a000 <STDINT_BASE_REPR_CHARS+0x400>
    40005924:	91018001 	add	x1, x0, #0x60
    40005928:	52800020 	mov	w0, #0x1                   	// #1
    4000592c:	9400063b 	bl	40007218 <UART_puts>
	for (size_t i = 0; i < 4; i++) {
    40005930:	f940a7e0 	ldr	x0, [sp, #328]
    40005934:	91000400 	add	x0, x0, #0x1
    40005938:	f900a7e0 	str	x0, [sp, #328]
    4000593c:	f940a7e0 	ldr	x0, [sp, #328]
    40005940:	f1000c1f 	cmp	x0, #0x3
    40005944:	54fff9a9 	b.ls	40005878 <log_exception_info+0x148>  // b.plast
	}
}
    40005948:	a8d77bfd 	ldp	x29, x30, [sp], #368
    4000594c:	d65f03c0 	ret

0000000040005950 <log_registers>:

static void log_registers()
{
    40005950:	a9bc7bfd 	stp	x29, x30, [sp, #-64]!
    40005954:	910003fd 	mov	x29, sp
	PANIC_puts("Register info:\r\n");
    40005958:	b0000020 	adrp	x0, 4000a000 <STDINT_BASE_REPR_CHARS+0x400>
    4000595c:	9101a001 	add	x1, x0, #0x68
    40005960:	52800020 	mov	w0, #0x1                   	// #1
    40005964:	9400062d 	bl	40007218 <UART_puts>
	char reg_n[8];
	char reg_v[24];

	for (size_t i = 0; i < 32; i++) {
    40005968:	f9001fff 	str	xzr, [sp, #56]
    4000596c:	14000033 	b	40005a38 <log_registers+0xe8>
		uint64 x_reg = PANIC_REGISTERS[i];
    40005970:	b0006020 	adrp	x0, 40c0a000 <ref+0x3ff780>
    40005974:	9122c000 	add	x0, x0, #0x8b0
    40005978:	f9401fe1 	ldr	x1, [sp, #56]
    4000597c:	f8617800 	ldr	x0, [x0, x1, lsl #3]
    40005980:	f9001be0 	str	x0, [sp, #48]

		stdint_to_ascii((STDINT_UNION){.uint64 = i}, STDINT_UINT64, reg_n, 8,
    40005984:	f9401fe0 	ldr	x0, [sp, #56]
    40005988:	9100a3e1 	add	x1, sp, #0x28
    4000598c:	52800144 	mov	w4, #0xa                   	// #10
    40005990:	d2800103 	mov	x3, #0x8                   	// #8
    40005994:	aa0103e2 	mov	x2, x1
    40005998:	528000e1 	mov	w1, #0x7                   	// #7
    4000599c:	97fffb6d 	bl	40004750 <stdint_to_ascii>
						STDINT_BASE_REPR_DEC);

		stdint_to_ascii((STDINT_UNION){.uint64 = x_reg}, STDINT_UINT64, reg_v,
    400059a0:	f9401be0 	ldr	x0, [sp, #48]
    400059a4:	910043e1 	add	x1, sp, #0x10
    400059a8:	52800204 	mov	w4, #0x10                  	// #16
    400059ac:	d2800303 	mov	x3, #0x18                  	// #24
    400059b0:	aa0103e2 	mov	x2, x1
    400059b4:	528000e1 	mov	w1, #0x7                   	// #7
    400059b8:	97fffb66 	bl	40004750 <stdint_to_ascii>
						24, STDINT_BASE_REPR_HEX);

		if (i != 31) {	// Gpr
    400059bc:	f9401fe0 	ldr	x0, [sp, #56]
    400059c0:	f1007c1f 	cmp	x0, #0x1f
    400059c4:	540001c0 	b.eq	400059fc <log_registers+0xac>  // b.none
			PANIC_puts("\tx");
    400059c8:	b0000020 	adrp	x0, 4000a000 <STDINT_BASE_REPR_CHARS+0x400>
    400059cc:	91020001 	add	x1, x0, #0x80
    400059d0:	52800020 	mov	w0, #0x1                   	// #1
    400059d4:	94000611 	bl	40007218 <UART_puts>
			PANIC_puts(reg_n);
    400059d8:	9100a3e0 	add	x0, sp, #0x28
    400059dc:	aa0003e1 	mov	x1, x0
    400059e0:	52800020 	mov	w0, #0x1                   	// #1
    400059e4:	9400060d 	bl	40007218 <UART_puts>
			PANIC_puts(": ");
    400059e8:	b0000020 	adrp	x0, 4000a000 <STDINT_BASE_REPR_CHARS+0x400>
    400059ec:	91016001 	add	x1, x0, #0x58
    400059f0:	52800020 	mov	w0, #0x1                   	// #1
    400059f4:	94000609 	bl	40007218 <UART_puts>
    400059f8:	14000005 	b	40005a0c <log_registers+0xbc>
		} else	// sp
			PANIC_puts("\tsp: ");
    400059fc:	b0000020 	adrp	x0, 4000a000 <STDINT_BASE_REPR_CHARS+0x400>
    40005a00:	91022001 	add	x1, x0, #0x88
    40005a04:	52800020 	mov	w0, #0x1                   	// #1
    40005a08:	94000604 	bl	40007218 <UART_puts>

		PANIC_puts(reg_v);
    40005a0c:	910043e0 	add	x0, sp, #0x10
    40005a10:	aa0003e1 	mov	x1, x0
    40005a14:	52800020 	mov	w0, #0x1                   	// #1
    40005a18:	94000600 	bl	40007218 <UART_puts>
		PANIC_puts("\n\r");
    40005a1c:	b0000020 	adrp	x0, 4000a000 <STDINT_BASE_REPR_CHARS+0x400>
    40005a20:	91018001 	add	x1, x0, #0x60
    40005a24:	52800020 	mov	w0, #0x1                   	// #1
    40005a28:	940005fc 	bl	40007218 <UART_puts>
	for (size_t i = 0; i < 32; i++) {
    40005a2c:	f9401fe0 	ldr	x0, [sp, #56]
    40005a30:	91000400 	add	x0, x0, #0x1
    40005a34:	f9001fe0 	str	x0, [sp, #56]
    40005a38:	f9401fe0 	ldr	x0, [sp, #56]
    40005a3c:	f1007c1f 	cmp	x0, #0x1f
    40005a40:	54fff989 	b.ls	40005970 <log_registers+0x20>  // b.plast
	}
    40005a44:	d503201f 	nop
    40005a48:	d503201f 	nop
    40005a4c:	a8c47bfd 	ldp	x29, x30, [sp], #64
    40005a50:	d65f03c0 	ret

0000000040005a54 <GICV3_GICD_CTLR_write>:
MMIO_DECLARE_REG32_VALUE_STRUCT(GICD_CTLR_VALUE_STRUCT_NAME);

MMIO_DECLARE_REG32_GETTER(GICV3, GICD_CTLR, GICD_CTLR_VALUE_STRUCT_NAME,
						  (GICV3_DISTRIBUTOR_BASE + GICD_CTLR_OFFSET));

MMIO_DECLARE_REG32_SETTER(GICV3, GICD_CTLR, GICD_CTLR_VALUE_STRUCT_NAME,
    40005a54:	d10043ff 	sub	sp, sp, #0x10
    40005a58:	b9000be0 	str	w0, [sp, #8]
    40005a5c:	d2a71000 	mov	x0, #0x38800000            	// #947912704
    40005a60:	b9400be1 	ldr	w1, [sp, #8]
    40005a64:	b9000001 	str	w1, [x0]
    40005a68:	910043ff 	add	sp, sp, #0x10
    40005a6c:	d65f03c0 	ret

0000000040005a70 <GICV3_GICD_CTLR_BF_set_EnableGrp1NS>:
GICD_CTLR_DECLARE_BIT_FIELD_FNS(EnableGrp1S, bool);

// EnableGrp1NS
#define EnableGrp1NS_SHIFT 1
#define EnableGrp1NS_MASK (1UL << EnableGrp1NS_SHIFT)
GICD_CTLR_DECLARE_BIT_FIELD_FNS(EnableGrp1NS, bool);
    40005a70:	d10043ff 	sub	sp, sp, #0x10
    40005a74:	f90007e0 	str	x0, [sp, #8]
    40005a78:	39001fe1 	strb	w1, [sp, #7]
    40005a7c:	f94007e0 	ldr	x0, [sp, #8]
    40005a80:	b9400000 	ldr	w0, [x0]
    40005a84:	121e7801 	and	w1, w0, #0xfffffffd
    40005a88:	39401fe0 	ldrb	w0, [sp, #7]
    40005a8c:	0b000000 	add	w0, w0, w0
    40005a90:	121f0000 	and	w0, w0, #0x2
    40005a94:	2a000021 	orr	w1, w1, w0
    40005a98:	f94007e0 	ldr	x0, [sp, #8]
    40005a9c:	b9000001 	str	w1, [x0]
    40005aa0:	910043ff 	add	sp, sp, #0x10
    40005aa4:	d65f03c0 	ret

0000000040005aa8 <GICV3_GICD_IGROUPR_read>:

#define GICD_IGROUPR_VALUE_STRUCT_NAME GicdIgroupr

MMIO_DECLARE_REG32_VALUE_STRUCT(GICD_IGROUPR_VALUE_STRUCT_NAME);

